
ch307_node:     file format elf32-littleriscv


Disassembly of section .init:

00000000 <_sinit>:

	.section	.init,"ax",@progbits
	.global	_start
	.align	1
_start:
	j	handle_reset
   0:	08c0706f          	j	708c <handle_reset>

Disassembly of section .vector:

00000004 <_vector_base>:
	...
   c:	0000041a          	.word	0x0000041a
  10:	0000041e          	.word	0x0000041e
  14:	00000000          	.word	0x00000000
  18:	0000708a          	.word	0x0000708a
	...
  24:	0000708a          	.word	0x0000708a
  28:	0000708a          	.word	0x0000708a
	...
  34:	0000708a          	.word	0x0000708a
  38:	00000000          	.word	0x00000000
  3c:	0000708a          	.word	0x0000708a
  40:	00000000          	.word	0x00000000
  44:	0000708a          	.word	0x0000708a
  48:	0000708a          	.word	0x0000708a
  4c:	0000708a          	.word	0x0000708a
  50:	0000708a          	.word	0x0000708a
  54:	0000708a          	.word	0x0000708a
  58:	0000708a          	.word	0x0000708a
  5c:	0000708a          	.word	0x0000708a
  60:	0000708a          	.word	0x0000708a
  64:	0000708a          	.word	0x0000708a
  68:	0000708a          	.word	0x0000708a
  6c:	0000708a          	.word	0x0000708a
  70:	0000708a          	.word	0x0000708a
  74:	0000708a          	.word	0x0000708a
  78:	0000708a          	.word	0x0000708a
  7c:	0000708a          	.word	0x0000708a
  80:	0000708a          	.word	0x0000708a
  84:	0000708a          	.word	0x0000708a
  88:	0000708a          	.word	0x0000708a
  8c:	0000708a          	.word	0x0000708a
  90:	0000708a          	.word	0x0000708a
  94:	0000708a          	.word	0x0000708a
  98:	0000708a          	.word	0x0000708a
  9c:	0000708a          	.word	0x0000708a
  a0:	0000708a          	.word	0x0000708a
  a4:	0000708a          	.word	0x0000708a
  a8:	0000708a          	.word	0x0000708a
  ac:	0000708a          	.word	0x0000708a
  b0:	0000708a          	.word	0x0000708a
  b4:	0000708a          	.word	0x0000708a
  b8:	0000708a          	.word	0x0000708a
  bc:	0000708a          	.word	0x0000708a
  c0:	0000708a          	.word	0x0000708a
  c4:	0000708a          	.word	0x0000708a
  c8:	0000708a          	.word	0x0000708a
  cc:	0000708a          	.word	0x0000708a
  d0:	0000708a          	.word	0x0000708a
  d4:	0000708a          	.word	0x0000708a
  d8:	0000708a          	.word	0x0000708a
  dc:	0000708a          	.word	0x0000708a
  e0:	0000708a          	.word	0x0000708a
  e4:	0000708a          	.word	0x0000708a
  e8:	0000708a          	.word	0x0000708a
  ec:	0000708a          	.word	0x0000708a
  f0:	0000708a          	.word	0x0000708a
  f4:	0000708a          	.word	0x0000708a
  f8:	0000708a          	.word	0x0000708a
  fc:	0000708a          	.word	0x0000708a
 100:	0000708a          	.word	0x0000708a
 104:	00000000          	.word	0x00000000
 108:	0000708a          	.word	0x0000708a
 10c:	0000708a          	.word	0x0000708a
 110:	0000708a          	.word	0x0000708a
 114:	0000708a          	.word	0x0000708a
 118:	0000708a          	.word	0x0000708a
 11c:	0000708a          	.word	0x0000708a
 120:	0000708a          	.word	0x0000708a
 124:	0000708a          	.word	0x0000708a
 128:	0000708a          	.word	0x0000708a
 12c:	0000708a          	.word	0x0000708a
 130:	0000708a          	.word	0x0000708a
 134:	0000708a          	.word	0x0000708a
 138:	0000708a          	.word	0x0000708a
 13c:	0000708a          	.word	0x0000708a
 140:	0000708a          	.word	0x0000708a
 144:	0000708a          	.word	0x0000708a
 148:	0000708a          	.word	0x0000708a
 14c:	0000708a          	.word	0x0000708a
 150:	0000708a          	.word	0x0000708a
 154:	0000708a          	.word	0x0000708a
 158:	0000708a          	.word	0x0000708a
 15c:	0000708a          	.word	0x0000708a
 160:	0000708a          	.word	0x0000708a
 164:	0000708a          	.word	0x0000708a
 168:	0000708a          	.word	0x0000708a
 16c:	0000708a          	.word	0x0000708a
 170:	0000708a          	.word	0x0000708a
 174:	0000708a          	.word	0x0000708a
 178:	0000708a          	.word	0x0000708a
 17c:	0000708a          	.word	0x0000708a
 180:	0000708a          	.word	0x0000708a
 184:	0000708a          	.word	0x0000708a
 188:	0000708a          	.word	0x0000708a
 18c:	0000708a          	.word	0x0000708a
 190:	0000708a          	.word	0x0000708a
 194:	0000708a          	.word	0x0000708a
 198:	0000708a          	.word	0x0000708a
 19c:	0000708a          	.word	0x0000708a
 1a0:	0000708a          	.word	0x0000708a
	...

Disassembly of section .text:

000001c0 <SetSysClockTo96_HSE>:
 * @brief   Sets System clock frequency to 96MHz and configure HCLK, PCLK2 and PCLK1 prescalers.
 *
 * @return  none
 */
static void SetSysClockTo96_HSE(void)
{
     1c0:	1141                	addi	sp,sp,-16
  __IO uint32_t StartUpCounter = 0, HSEStatus = 0;
     1c2:	c602                	sw	zero,12(sp)
     1c4:	c402                	sw	zero,8(sp)

  RCC->CTLR |= ((uint32_t)RCC_HSEON);
     1c6:	40021737          	lui	a4,0x40021
     1ca:	431c                	lw	a5,0(a4)
     1cc:	66c1                	lui	a3,0x10
     1ce:	8fd5                	or	a5,a5,a3
     1d0:	c31c                	sw	a5,0(a4)

  /* Wait till HSE is ready and if Time out is reached exit */
  do
  {
    HSEStatus = RCC->CTLR & RCC_HSERDY;
     1d2:	400217b7          	lui	a5,0x40021
     1d6:	439c                	lw	a5,0(a5)
     1d8:	00020737          	lui	a4,0x20
     1dc:	8ff9                	and	a5,a5,a4
     1de:	c43e                	sw	a5,8(sp)
    StartUpCounter++;
     1e0:	47b2                	lw	a5,12(sp)
     1e2:	0785                	addi	a5,a5,1 # 40021001 <__freertos_irq_stack_top+0x20019001>
     1e4:	c63e                	sw	a5,12(sp)
  } while((HSEStatus == 0) && (StartUpCounter != HSE_STARTUP_TIMEOUT));
     1e6:	47a2                	lw	a5,8(sp)
     1e8:	e789                	bnez	a5,1f2 <SetSysClockTo96_HSE+0x32>
     1ea:	4732                	lw	a4,12(sp)
     1ec:	6785                	lui	a5,0x1
     1ee:	fef712e3          	bne	a4,a5,1d2 <SetSysClockTo96_HSE+0x12>

  if ((RCC->CTLR & RCC_HSERDY) != RESET)
     1f2:	400217b7          	lui	a5,0x40021
     1f6:	439c                	lw	a5,0(a5)
     1f8:	00e79713          	slli	a4,a5,0xe
     1fc:	00075a63          	bgez	a4,210 <SetSysClockTo96_HSE+0x50>
  {
    HSEStatus = (uint32_t)0x01;
     200:	4785                	li	a5,1
     202:	c43e                	sw	a5,8(sp)
  else
  {
    HSEStatus = (uint32_t)0x00;
  }

  if (HSEStatus == (uint32_t)0x01)
     204:	4722                	lw	a4,8(sp)
     206:	4785                	li	a5,1
     208:	00f70663          	beq	a4,a5,214 <SetSysClockTo96_HSE+0x54>
        /*
         * If HSE fails to start-up, the application will have wrong clock
     * configuration. User can add here some code to deal with this error
         */
  }
}
     20c:	0141                	addi	sp,sp,16
     20e:	8082                	ret
    HSEStatus = (uint32_t)0x00;
     210:	c402                	sw	zero,8(sp)
     212:	bfcd                	j	204 <SetSysClockTo96_HSE+0x44>
    RCC->CFGR0 |= (uint32_t)RCC_HPRE_DIV1;
     214:	400217b7          	lui	a5,0x40021
     218:	43d8                	lw	a4,4(a5)
     21a:	c3d8                	sw	a4,4(a5)
    RCC->CFGR0 |= (uint32_t)RCC_PPRE2_DIV1;
     21c:	43d8                	lw	a4,4(a5)
     21e:	c3d8                	sw	a4,4(a5)
    RCC->CFGR0 |= (uint32_t)RCC_PPRE1_DIV2;
     220:	43d8                	lw	a4,4(a5)
     222:	40076713          	ori	a4,a4,1024
     226:	c3d8                	sw	a4,4(a5)
    RCC->CFGR0 &= (uint32_t)((uint32_t)~(RCC_PLLSRC | RCC_PLLXTPRE |
     228:	43d8                	lw	a4,4(a5)
     22a:	ffc106b7          	lui	a3,0xffc10
     22e:	16fd                	addi	a3,a3,-1 # ffc0ffff <__freertos_irq_stack_top+0xdfc07fff>
     230:	8f75                	and	a4,a4,a3
     232:	c3d8                	sw	a4,4(a5)
        RCC->CFGR0 |= (uint32_t)(RCC_PLLSRC_HSE | RCC_PLLXTPRE_HSE | RCC_PLLMULL12_EXTEN);
     234:	43d8                	lw	a4,4(a5)
     236:	002906b7          	lui	a3,0x290
     23a:	8f55                	or	a4,a4,a3
     23c:	c3d8                	sw	a4,4(a5)
    RCC->CTLR |= RCC_PLLON;
     23e:	4398                	lw	a4,0(a5)
     240:	010006b7          	lui	a3,0x1000
     244:	8f55                	or	a4,a4,a3
     246:	c398                	sw	a4,0(a5)
    while((RCC->CTLR & RCC_PLLRDY) == 0)
     248:	400217b7          	lui	a5,0x40021
     24c:	439c                	lw	a5,0(a5)
     24e:	00679713          	slli	a4,a5,0x6
     252:	fe075be3          	bgez	a4,248 <SetSysClockTo96_HSE+0x88>
    RCC->CFGR0 &= (uint32_t)((uint32_t)~(RCC_SW));
     256:	400217b7          	lui	a5,0x40021
     25a:	43d8                	lw	a4,4(a5)
     25c:	9b71                	andi	a4,a4,-4
     25e:	c3d8                	sw	a4,4(a5)
    RCC->CFGR0 |= (uint32_t)RCC_SW_PLL;
     260:	43d8                	lw	a4,4(a5)
     262:	00276713          	ori	a4,a4,2
     266:	c3d8                	sw	a4,4(a5)
    while ((RCC->CFGR0 & (uint32_t)RCC_SWS) != (uint32_t)0x08)
     268:	400217b7          	lui	a5,0x40021
     26c:	43dc                	lw	a5,4(a5)
     26e:	8bb1                	andi	a5,a5,12
     270:	4721                	li	a4,8
     272:	fee79be3          	bne	a5,a4,268 <SetSysClockTo96_HSE+0xa8>
     276:	bf59                	j	20c <SetSysClockTo96_HSE+0x4c>

00000278 <SetSysClock>:
{
     278:	1141                	addi	sp,sp,-16
     27a:	c606                	sw	ra,12(sp)
    SetSysClockTo96_HSE();
     27c:	3791                	jal	1c0 <SetSysClockTo96_HSE>
}
     27e:	40b2                	lw	ra,12(sp)
     280:	0141                	addi	sp,sp,16
     282:	8082                	ret

00000284 <SystemInit>:
{
     284:	1141                	addi	sp,sp,-16
     286:	c606                	sw	ra,12(sp)
  RCC->CTLR |= (uint32_t)0x00000001;
     288:	400217b7          	lui	a5,0x40021
     28c:	4398                	lw	a4,0(a5)
     28e:	00176713          	ori	a4,a4,1
     292:	c398                	sw	a4,0(a5)
  RCC->CFGR0 &= (uint32_t)0xF8FF0000;
     294:	43d8                	lw	a4,4(a5)
     296:	f8ff06b7          	lui	a3,0xf8ff0
     29a:	8f75                	and	a4,a4,a3
     29c:	c3d8                	sw	a4,4(a5)
  RCC->CTLR &= (uint32_t)0xFEF6FFFF;
     29e:	4398                	lw	a4,0(a5)
     2a0:	fef706b7          	lui	a3,0xfef70
     2a4:	16fd                	addi	a3,a3,-1 # fef6ffff <__freertos_irq_stack_top+0xdef67fff>
     2a6:	8f75                	and	a4,a4,a3
     2a8:	c398                	sw	a4,0(a5)
  RCC->CTLR &= (uint32_t)0xFFFBFFFF;
     2aa:	4398                	lw	a4,0(a5)
     2ac:	fffc06b7          	lui	a3,0xfffc0
     2b0:	16fd                	addi	a3,a3,-1 # fffbffff <__freertos_irq_stack_top+0xdffb7fff>
     2b2:	8f75                	and	a4,a4,a3
     2b4:	c398                	sw	a4,0(a5)
  RCC->CFGR0 &= (uint32_t)0xFF80FFFF;
     2b6:	43d8                	lw	a4,4(a5)
     2b8:	ff8106b7          	lui	a3,0xff810
     2bc:	16fd                	addi	a3,a3,-1 # ff80ffff <__freertos_irq_stack_top+0xdf807fff>
     2be:	8f75                	and	a4,a4,a3
     2c0:	c3d8                	sw	a4,4(a5)
  RCC->CTLR &= (uint32_t)0xEBFFFFFF;
     2c2:	4398                	lw	a4,0(a5)
     2c4:	ec0006b7          	lui	a3,0xec000
     2c8:	16fd                	addi	a3,a3,-1 # ebffffff <__freertos_irq_stack_top+0xcbff7fff>
     2ca:	8f75                	and	a4,a4,a3
     2cc:	c398                	sw	a4,0(a5)
  RCC->INTR = 0x00FF0000;
     2ce:	00ff0737          	lui	a4,0xff0
     2d2:	c798                	sw	a4,8(a5)
  RCC->CFGR2 = 0x00000000;
     2d4:	0207a623          	sw	zero,44(a5) # 4002102c <__freertos_irq_stack_top+0x2001902c>
  SetSysClock();
     2d8:	3745                	jal	278 <SetSysClock>
}
     2da:	40b2                	lw	ra,12(sp)
     2dc:	0141                	addi	sp,sp,16
     2de:	8082                	ret

000002e0 <SystemCoreClockUpdate>:
  tmp = RCC->CFGR0 & RCC_SWS;
     2e0:	400217b7          	lui	a5,0x40021
     2e4:	43dc                	lw	a5,4(a5)
     2e6:	8bb1                	andi	a5,a5,12
  switch (tmp)
     2e8:	4711                	li	a4,4
     2ea:	04e78463          	beq	a5,a4,332 <SystemCoreClockUpdate+0x52>
     2ee:	4721                	li	a4,8
     2f0:	04e78a63          	beq	a5,a4,344 <SystemCoreClockUpdate+0x64>
     2f4:	10079a63          	bnez	a5,408 <__stack_size+0x8>
      SystemCoreClock = HSI_VALUE;
     2f8:	007a17b7          	lui	a5,0x7a1
     2fc:	20078793          	addi	a5,a5,512 # 7a1200 <_data_lma+0x798afc>
     300:	20000717          	auipc	a4,0x20000
     304:	d4f72c23          	sw	a5,-680(a4) # 20000058 <SystemCoreClock>
  tmp = AHBPrescTable[((RCC->CFGR0 & RCC_HPRE) >> 4)];
     308:	400217b7          	lui	a5,0x40021
     30c:	43dc                	lw	a5,4(a5)
     30e:	8391                	srli	a5,a5,0x4
     310:	8bbd                	andi	a5,a5,15
     312:	00008717          	auipc	a4,0x8
     316:	1de70713          	addi	a4,a4,478 # 84f0 <AHBPrescTable>
     31a:	97ba                	add	a5,a5,a4
     31c:	0007c683          	lbu	a3,0(a5) # 40021000 <__freertos_irq_stack_top+0x20019000>
  SystemCoreClock >>= tmp;  
     320:	20000717          	auipc	a4,0x20000
     324:	d3870713          	addi	a4,a4,-712 # 20000058 <SystemCoreClock>
     328:	431c                	lw	a5,0(a4)
     32a:	00d7d7b3          	srl	a5,a5,a3
     32e:	c31c                	sw	a5,0(a4)
}
     330:	8082                	ret
      SystemCoreClock = HSE_VALUE;
     332:	007a17b7          	lui	a5,0x7a1
     336:	20078793          	addi	a5,a5,512 # 7a1200 <_data_lma+0x798afc>
     33a:	20000717          	auipc	a4,0x20000
     33e:	d0f72f23          	sw	a5,-738(a4) # 20000058 <SystemCoreClock>
      break;
     342:	b7d9                	j	308 <SystemCoreClockUpdate+0x28>
      pllmull = RCC->CFGR0 & RCC_PLLMULL;
     344:	40021737          	lui	a4,0x40021
     348:	435c                	lw	a5,4(a4)
      pllsource = RCC->CFGR0 & RCC_PLLSRC; 
     34a:	4358                	lw	a4,4(a4)
     34c:	66c1                	lui	a3,0x10
     34e:	8f75                	and	a4,a4,a3
      pllmull = ( pllmull >> 18) + 2;
     350:	83c9                	srli	a5,a5,0x12
     352:	8bbd                	andi	a5,a5,15
     354:	0789                	addi	a5,a5,2
          if(pllmull == 2) pllmull = 18;
     356:	4689                	li	a3,2
     358:	04d78663          	beq	a5,a3,3a4 <SystemCoreClockUpdate+0xc4>
          if(pllmull == 15){
     35c:	46bd                	li	a3,15
     35e:	04d78563          	beq	a5,a3,3a8 <SystemCoreClockUpdate+0xc8>
          if(pllmull == 16) pllmull = 15;
     362:	46c1                	li	a3,16
     364:	04d78563          	beq	a5,a3,3ae <SystemCoreClockUpdate+0xce>
     368:	4681                	li	a3,0
          if(pllmull == 17) pllmull = 16;
     36a:	4645                	li	a2,17
     36c:	04c78463          	beq	a5,a2,3b4 <SystemCoreClockUpdate+0xd4>
      if (pllsource == 0x00)
     370:	ef39                	bnez	a4,3ce <SystemCoreClockUpdate+0xee>
          if(EXTEN->EXTEN_CTR & EXTEN_PLL_HSI_PRE){
     372:	40024737          	lui	a4,0x40024
     376:	80072703          	lw	a4,-2048(a4) # 40023800 <__freertos_irq_stack_top+0x2001b800>
     37a:	8b41                	andi	a4,a4,16
     37c:	cf15                	beqz	a4,3b8 <SystemCoreClockUpdate+0xd8>
              SystemCoreClock = (HSI_VALUE) * pllmull;
     37e:	007a1737          	lui	a4,0x7a1
     382:	20070713          	addi	a4,a4,512 # 7a1200 <_data_lma+0x798afc>
     386:	02e787b3          	mul	a5,a5,a4
     38a:	20000717          	auipc	a4,0x20000
     38e:	ccf72723          	sw	a5,-818(a4) # 20000058 <SystemCoreClock>
      if(Pll_6_5 == 1) SystemCoreClock = (SystemCoreClock / 2);
     392:	dabd                	beqz	a3,308 <SystemCoreClockUpdate+0x28>
     394:	20000717          	auipc	a4,0x20000
     398:	cc470713          	addi	a4,a4,-828 # 20000058 <SystemCoreClock>
     39c:	431c                	lw	a5,0(a4)
     39e:	8385                	srli	a5,a5,0x1
     3a0:	c31c                	sw	a5,0(a4)
     3a2:	b79d                	j	308 <SystemCoreClockUpdate+0x28>
          if(pllmull == 2) pllmull = 18;
     3a4:	47c9                	li	a5,18
     3a6:	bf75                	j	362 <SystemCoreClockUpdate+0x82>
              Pll_6_5 = 1;
     3a8:	4685                	li	a3,1
              pllmull = 13;  /* *6.5 */
     3aa:	47b5                	li	a5,13
     3ac:	bf7d                	j	36a <SystemCoreClockUpdate+0x8a>
     3ae:	4681                	li	a3,0
          if(pllmull == 16) pllmull = 15;
     3b0:	47bd                	li	a5,15
     3b2:	bf7d                	j	370 <SystemCoreClockUpdate+0x90>
          if(pllmull == 17) pllmull = 16;
     3b4:	47c1                	li	a5,16
     3b6:	bf6d                	j	370 <SystemCoreClockUpdate+0x90>
              SystemCoreClock = (HSI_VALUE >>1) * pllmull;
     3b8:	003d1737          	lui	a4,0x3d1
     3bc:	90070713          	addi	a4,a4,-1792 # 3d0900 <_data_lma+0x3c81fc>
     3c0:	02e787b3          	mul	a5,a5,a4
     3c4:	20000717          	auipc	a4,0x20000
     3c8:	c8f72a23          	sw	a5,-876(a4) # 20000058 <SystemCoreClock>
     3cc:	b7d9                	j	392 <SystemCoreClockUpdate+0xb2>
        if ((RCC->CFGR0 & RCC_PLLXTPRE) != (uint32_t)RESET)
     3ce:	40021737          	lui	a4,0x40021
     3d2:	4358                	lw	a4,4(a4)
     3d4:	00e71613          	slli	a2,a4,0xe
     3d8:	00065d63          	bgez	a2,3f2 <SystemCoreClockUpdate+0x112>
          SystemCoreClock = (HSE_VALUE >> 1) * pllmull;
     3dc:	003d1737          	lui	a4,0x3d1
     3e0:	90070713          	addi	a4,a4,-1792 # 3d0900 <_data_lma+0x3c81fc>
     3e4:	02e787b3          	mul	a5,a5,a4
     3e8:	20000717          	auipc	a4,0x20000
     3ec:	c6f72823          	sw	a5,-912(a4) # 20000058 <SystemCoreClock>
     3f0:	b74d                	j	392 <SystemCoreClockUpdate+0xb2>
          SystemCoreClock = HSE_VALUE * pllmull;
     3f2:	007a1737          	lui	a4,0x7a1
     3f6:	20070713          	addi	a4,a4,512 # 7a1200 <_data_lma+0x798afc>
     3fa:	02e787b3          	mul	a5,a5,a4
     3fe:	20000717          	auipc	a4,0x20000
     402:	c4f72d23          	sw	a5,-934(a4) # 20000058 <SystemCoreClock>
     406:	b771                	j	392 <SystemCoreClockUpdate+0xb2>
      SystemCoreClock = HSI_VALUE;
     408:	007a17b7          	lui	a5,0x7a1
     40c:	20078793          	addi	a5,a5,512 # 7a1200 <_data_lma+0x798afc>
     410:	20000717          	auipc	a4,0x20000
     414:	c4f72423          	sw	a5,-952(a4) # 20000058 <SystemCoreClock>
      break;
     418:	bdc5                	j	308 <SystemCoreClockUpdate+0x28>

0000041a <NMI_Handler>:
 *
 * @return  none
 */
void NMI_Handler(void)
{
}
     41a:	30200073          	mret

0000041e <HardFault_Handler>:
 *
 * @return  none
 */
void HardFault_Handler(void)
{
  while (1)
     41e:	a001                	j	41e <HardFault_Handler>

00000420 <vApplicationStackOverflowHook>:
#include "FreeRTOS.h"
#include "task.h"

#include "safe_state.h"
extern "C" void vApplicationStackOverflowHook(TaskHandle_t xTask, char* pcTaskName)
{
     420:	1141                	addi	sp,sp,-16
     422:	c606                	sw	ra,12(sp)
    (void)xTask;
    (void)pcTaskName;
    enter_safe_state("FreeRTOS stack overflow");
     424:	00008517          	auipc	a0,0x8
     428:	12450513          	addi	a0,a0,292 # 8548 <AHBPrescTable+0x58>
     42c:	326040ef          	jal	4752 <enter_safe_state>

00000430 <_Z14task_rtos_mainv>:
}

void task_rtos_main()
{
     430:	1141                	addi	sp,sp,-16
     432:	c606                	sw	ra,12(sp)
    vTaskStartScheduler();
     434:	188010ef          	jal	15bc <vTaskStartScheduler>
}
     438:	40b2                	lw	ra,12(sp)
     43a:	0141                	addi	sp,sp,16
     43c:	8082                	ret

0000043e <prvCreateStaticTask>:
                                        void * const pvParameters,
                                        UBaseType_t uxPriority,
                                        StackType_t * const puxStackBuffer,
                                        StaticTask_t * const pxTaskBuffer,
                                        TaskHandle_t * const pxCreatedTask )
    {
     43e:	7139                	addi	sp,sp,-64
     440:	de06                	sw	ra,60(sp)
     442:	dc22                	sw	s0,56(sp)
     444:	0080                	addi	s0,sp,64
     446:	fca42e23          	sw	a0,-36(s0)
     44a:	fcb42c23          	sw	a1,-40(s0)
     44e:	fcc42a23          	sw	a2,-44(s0)
     452:	fcd42823          	sw	a3,-48(s0)
     456:	fce42623          	sw	a4,-52(s0)
     45a:	fcf42423          	sw	a5,-56(s0)
     45e:	fd042223          	sw	a6,-60(s0)
     462:	fd142023          	sw	a7,-64(s0)
        TCB_t * pxNewTCB;

        configASSERT( puxStackBuffer != NULL );
     466:	fc842783          	lw	a5,-56(s0)
     46a:	e781                	bnez	a5,472 <prvCreateStaticTask+0x34>
     46c:	30047073          	csrci	mstatus,8
     470:	a001                	j	470 <prvCreateStaticTask+0x32>
        configASSERT( pxTaskBuffer != NULL );
     472:	fc442783          	lw	a5,-60(s0)
     476:	e781                	bnez	a5,47e <prvCreateStaticTask+0x40>
     478:	30047073          	csrci	mstatus,8
     47c:	a001                	j	47c <prvCreateStaticTask+0x3e>
        #if ( configASSERT_DEFINED == 1 )
        {
            /* Sanity check that the size of the structure used to declare a
             * variable of type StaticTask_t equals the size of the real task
             * structure. */
            volatile size_t xSize = sizeof( StaticTask_t );
     47e:	05800793          	li	a5,88
     482:	fef42423          	sw	a5,-24(s0)
            configASSERT( xSize == sizeof( TCB_t ) );
     486:	fe842703          	lw	a4,-24(s0)
     48a:	05800793          	li	a5,88
     48e:	00f70563          	beq	a4,a5,498 <prvCreateStaticTask+0x5a>
     492:	30047073          	csrci	mstatus,8
     496:	a001                	j	496 <prvCreateStaticTask+0x58>
            ( void ) xSize; /* Prevent unused variable warning when configASSERT() is not used. */
     498:	fe842783          	lw	a5,-24(s0)
        }
        #endif /* configASSERT_DEFINED */

        if( ( pxTaskBuffer != NULL ) && ( puxStackBuffer != NULL ) )
     49c:	fc442783          	lw	a5,-60(s0)
     4a0:	cbb1                	beqz	a5,4f4 <prvCreateStaticTask+0xb6>
     4a2:	fc842783          	lw	a5,-56(s0)
     4a6:	c7b9                	beqz	a5,4f4 <prvCreateStaticTask+0xb6>
            /* The memory used for the task's TCB and stack are passed into this
             * function - use them. */
            /* MISRA Ref 11.3.1 [Misaligned access] */
            /* More details at: https://github.com/FreeRTOS/FreeRTOS-Kernel/blob/main/MISRA.md#rule-113 */
            /* coverity[misra_c_2012_rule_11_3_violation] */
            pxNewTCB = ( TCB_t * ) pxTaskBuffer;
     4a8:	fc442783          	lw	a5,-60(s0)
     4ac:	fef42623          	sw	a5,-20(s0)
            ( void ) memset( ( void * ) pxNewTCB, 0x00, sizeof( TCB_t ) );
     4b0:	05800613          	li	a2,88
     4b4:	4581                	li	a1,0
     4b6:	fec42503          	lw	a0,-20(s0)
     4ba:	3ab060ef          	jal	7064 <memset>
            pxNewTCB->pxStack = ( StackType_t * ) puxStackBuffer;
     4be:	fec42783          	lw	a5,-20(s0)
     4c2:	fc842703          	lw	a4,-56(s0)
     4c6:	db98                	sw	a4,48(a5)

            #if ( tskSTATIC_AND_DYNAMIC_ALLOCATION_POSSIBLE != 0 )
            {
                /* Tasks can be created statically or dynamically, so note this
                 * task was created statically in case the task is later deleted. */
                pxNewTCB->ucStaticallyAllocated = tskSTATICALLY_ALLOCATED_STACK_AND_TCB;
     4c8:	fec42783          	lw	a5,-20(s0)
     4cc:	4709                	li	a4,2
     4ce:	04e78aa3          	sb	a4,85(a5)
            }
            #endif /* tskSTATIC_AND_DYNAMIC_ALLOCATION_POSSIBLE */

            prvInitialiseNewTask( pxTaskCode, pcName, uxStackDepth, pvParameters, uxPriority, pxCreatedTask, pxNewTCB, NULL );
     4d2:	4881                	li	a7,0
     4d4:	fec42803          	lw	a6,-20(s0)
     4d8:	fc042783          	lw	a5,-64(s0)
     4dc:	fcc42703          	lw	a4,-52(s0)
     4e0:	fd042683          	lw	a3,-48(s0)
     4e4:	fd442603          	lw	a2,-44(s0)
     4e8:	fd842583          	lw	a1,-40(s0)
     4ec:	fdc42503          	lw	a0,-36(s0)
     4f0:	2a49                	jal	682 <prvInitialiseNewTask>
     4f2:	a019                	j	4f8 <prvCreateStaticTask+0xba>
        }
        else
        {
            pxNewTCB = NULL;
     4f4:	fe042623          	sw	zero,-20(s0)
        }

        return pxNewTCB;
     4f8:	fec42783          	lw	a5,-20(s0)
    }
     4fc:	853e                	mv	a0,a5
     4fe:	50f2                	lw	ra,60(sp)
     500:	5462                	lw	s0,56(sp)
     502:	6121                	addi	sp,sp,64
     504:	8082                	ret

00000506 <xTaskCreateStatic>:
                                    const configSTACK_DEPTH_TYPE uxStackDepth,
                                    void * const pvParameters,
                                    UBaseType_t uxPriority,
                                    StackType_t * const puxStackBuffer,
                                    StaticTask_t * const pxTaskBuffer )
    {
     506:	7139                	addi	sp,sp,-64
     508:	de06                	sw	ra,60(sp)
     50a:	dc22                	sw	s0,56(sp)
     50c:	0080                	addi	s0,sp,64
     50e:	fca42e23          	sw	a0,-36(s0)
     512:	fcb42c23          	sw	a1,-40(s0)
     516:	fcc42a23          	sw	a2,-44(s0)
     51a:	fcd42823          	sw	a3,-48(s0)
     51e:	fce42623          	sw	a4,-52(s0)
     522:	fcf42423          	sw	a5,-56(s0)
     526:	fd042223          	sw	a6,-60(s0)
        TaskHandle_t xReturn = NULL;
     52a:	fe042423          	sw	zero,-24(s0)
        TCB_t * pxNewTCB;

        traceENTER_xTaskCreateStatic( pxTaskCode, pcName, uxStackDepth, pvParameters, uxPriority, puxStackBuffer, pxTaskBuffer );

        pxNewTCB = prvCreateStaticTask( pxTaskCode, pcName, uxStackDepth, pvParameters, uxPriority, puxStackBuffer, pxTaskBuffer, &xReturn );
     52e:	fe840793          	addi	a5,s0,-24
     532:	88be                	mv	a7,a5
     534:	fc442803          	lw	a6,-60(s0)
     538:	fc842783          	lw	a5,-56(s0)
     53c:	fcc42703          	lw	a4,-52(s0)
     540:	fd042683          	lw	a3,-48(s0)
     544:	fd442603          	lw	a2,-44(s0)
     548:	fd842583          	lw	a1,-40(s0)
     54c:	fdc42503          	lw	a0,-36(s0)
     550:	35fd                	jal	43e <prvCreateStaticTask>
     552:	fea42623          	sw	a0,-20(s0)

        if( pxNewTCB != NULL )
     556:	fec42783          	lw	a5,-20(s0)
     55a:	c781                	beqz	a5,562 <xTaskCreateStatic+0x5c>
                /* Set the task's affinity before scheduling it. */
                pxNewTCB->uxCoreAffinityMask = configTASK_DEFAULT_CORE_AFFINITY;
            }
            #endif

            prvAddNewTaskToReadyList( pxNewTCB );
     55c:	fec42503          	lw	a0,-20(s0)
     560:	247d                	jal	80e <prvAddNewTaskToReadyList>
            mtCOVERAGE_TEST_MARKER();
        }

        traceRETURN_xTaskCreateStatic( xReturn );

        return xReturn;
     562:	fe842783          	lw	a5,-24(s0)
    }
     566:	853e                	mv	a0,a5
     568:	50f2                	lw	ra,60(sp)
     56a:	5462                	lw	s0,56(sp)
     56c:	6121                	addi	sp,sp,64
     56e:	8082                	ret

00000570 <prvCreateTask>:
                                  const char * const pcName,
                                  const configSTACK_DEPTH_TYPE uxStackDepth,
                                  void * const pvParameters,
                                  UBaseType_t uxPriority,
                                  TaskHandle_t * const pxCreatedTask )
    {
     570:	7139                	addi	sp,sp,-64
     572:	de06                	sw	ra,60(sp)
     574:	dc22                	sw	s0,56(sp)
     576:	0080                	addi	s0,sp,64
     578:	fca42e23          	sw	a0,-36(s0)
     57c:	fcb42c23          	sw	a1,-40(s0)
     580:	fcc42a23          	sw	a2,-44(s0)
     584:	fcd42823          	sw	a3,-48(s0)
     588:	fce42623          	sw	a4,-52(s0)
     58c:	fcf42423          	sw	a5,-56(s0)

            /* Allocate space for the stack used by the task being created. */
            /* MISRA Ref 11.5.1 [Malloc memory assignment] */
            /* More details at: https://github.com/FreeRTOS/FreeRTOS-Kernel/blob/main/MISRA.md#rule-115 */
            /* coverity[misra_c_2012_rule_11_5_violation] */
            pxStack = ( StackType_t * ) pvPortMallocStack( ( ( ( size_t ) uxStackDepth ) * sizeof( StackType_t ) ) );
     590:	fd442783          	lw	a5,-44(s0)
     594:	078a                	slli	a5,a5,0x2
     596:	853e                	mv	a0,a5
     598:	0b1030ef          	jal	3e48 <pvPortMalloc>
     59c:	fea42423          	sw	a0,-24(s0)

            if( pxStack != NULL )
     5a0:	fe842783          	lw	a5,-24(s0)
     5a4:	cf85                	beqz	a5,5dc <prvCreateTask+0x6c>
            {
                /* Allocate space for the TCB. */
                /* MISRA Ref 11.5.1 [Malloc memory assignment] */
                /* More details at: https://github.com/FreeRTOS/FreeRTOS-Kernel/blob/main/MISRA.md#rule-115 */
                /* coverity[misra_c_2012_rule_11_5_violation] */
                pxNewTCB = ( TCB_t * ) pvPortMalloc( sizeof( TCB_t ) );
     5a6:	05800513          	li	a0,88
     5aa:	09f030ef          	jal	3e48 <pvPortMalloc>
     5ae:	fea42623          	sw	a0,-20(s0)

                if( pxNewTCB != NULL )
     5b2:	fec42783          	lw	a5,-20(s0)
     5b6:	cf91                	beqz	a5,5d2 <prvCreateTask+0x62>
                {
                    ( void ) memset( ( void * ) pxNewTCB, 0x00, sizeof( TCB_t ) );
     5b8:	05800613          	li	a2,88
     5bc:	4581                	li	a1,0
     5be:	fec42503          	lw	a0,-20(s0)
     5c2:	2a3060ef          	jal	7064 <memset>

                    /* Store the stack location in the TCB. */
                    pxNewTCB->pxStack = pxStack;
     5c6:	fec42783          	lw	a5,-20(s0)
     5ca:	fe842703          	lw	a4,-24(s0)
     5ce:	db98                	sw	a4,48(a5)
     5d0:	a801                	j	5e0 <prvCreateTask+0x70>
                }
                else
                {
                    /* The stack cannot be used as the TCB was not created.  Free
                     * it again. */
                    vPortFreeStack( pxStack );
     5d2:	fe842503          	lw	a0,-24(s0)
     5d6:	301030ef          	jal	40d6 <vPortFree>
     5da:	a019                	j	5e0 <prvCreateTask+0x70>
                }
            }
            else
            {
                pxNewTCB = NULL;
     5dc:	fe042623          	sw	zero,-20(s0)
            }
        }
        #endif /* portSTACK_GROWTH */

        if( pxNewTCB != NULL )
     5e0:	fec42783          	lw	a5,-20(s0)
     5e4:	c78d                	beqz	a5,60e <prvCreateTask+0x9e>
        {
            #if ( tskSTATIC_AND_DYNAMIC_ALLOCATION_POSSIBLE != 0 )
            {
                /* Tasks can be created statically or dynamically, so note this
                 * task was created dynamically in case it is later deleted. */
                pxNewTCB->ucStaticallyAllocated = tskDYNAMICALLY_ALLOCATED_STACK_AND_TCB;
     5e6:	fec42783          	lw	a5,-20(s0)
     5ea:	04078aa3          	sb	zero,85(a5)
            }
            #endif /* tskSTATIC_AND_DYNAMIC_ALLOCATION_POSSIBLE */

            prvInitialiseNewTask( pxTaskCode, pcName, uxStackDepth, pvParameters, uxPriority, pxCreatedTask, pxNewTCB, NULL );
     5ee:	4881                	li	a7,0
     5f0:	fec42803          	lw	a6,-20(s0)
     5f4:	fc842783          	lw	a5,-56(s0)
     5f8:	fcc42703          	lw	a4,-52(s0)
     5fc:	fd042683          	lw	a3,-48(s0)
     600:	fd442603          	lw	a2,-44(s0)
     604:	fd842583          	lw	a1,-40(s0)
     608:	fdc42503          	lw	a0,-36(s0)
     60c:	289d                	jal	682 <prvInitialiseNewTask>
        }

        return pxNewTCB;
     60e:	fec42783          	lw	a5,-20(s0)
    }
     612:	853e                	mv	a0,a5
     614:	50f2                	lw	ra,60(sp)
     616:	5462                	lw	s0,56(sp)
     618:	6121                	addi	sp,sp,64
     61a:	8082                	ret

0000061c <xTaskCreate>:
                            const char * const pcName,
                            const configSTACK_DEPTH_TYPE uxStackDepth,
                            void * const pvParameters,
                            UBaseType_t uxPriority,
                            TaskHandle_t * const pxCreatedTask )
    {
     61c:	7139                	addi	sp,sp,-64
     61e:	de06                	sw	ra,60(sp)
     620:	dc22                	sw	s0,56(sp)
     622:	0080                	addi	s0,sp,64
     624:	fca42e23          	sw	a0,-36(s0)
     628:	fcb42c23          	sw	a1,-40(s0)
     62c:	fcc42a23          	sw	a2,-44(s0)
     630:	fcd42823          	sw	a3,-48(s0)
     634:	fce42623          	sw	a4,-52(s0)
     638:	fcf42423          	sw	a5,-56(s0)
        TCB_t * pxNewTCB;
        BaseType_t xReturn;

        traceENTER_xTaskCreate( pxTaskCode, pcName, uxStackDepth, pvParameters, uxPriority, pxCreatedTask );

        pxNewTCB = prvCreateTask( pxTaskCode, pcName, uxStackDepth, pvParameters, uxPriority, pxCreatedTask );
     63c:	fc842783          	lw	a5,-56(s0)
     640:	fcc42703          	lw	a4,-52(s0)
     644:	fd042683          	lw	a3,-48(s0)
     648:	fd442603          	lw	a2,-44(s0)
     64c:	fd842583          	lw	a1,-40(s0)
     650:	fdc42503          	lw	a0,-36(s0)
     654:	3f31                	jal	570 <prvCreateTask>
     656:	fea42423          	sw	a0,-24(s0)

        if( pxNewTCB != NULL )
     65a:	fe842783          	lw	a5,-24(s0)
     65e:	cb81                	beqz	a5,66e <xTaskCreate+0x52>
                /* Set the task's affinity before scheduling it. */
                pxNewTCB->uxCoreAffinityMask = configTASK_DEFAULT_CORE_AFFINITY;
            }
            #endif

            prvAddNewTaskToReadyList( pxNewTCB );
     660:	fe842503          	lw	a0,-24(s0)
     664:	226d                	jal	80e <prvAddNewTaskToReadyList>
            xReturn = pdPASS;
     666:	4785                	li	a5,1
     668:	fef42623          	sw	a5,-20(s0)
     66c:	a021                	j	674 <xTaskCreate+0x58>
        }
        else
        {
            xReturn = errCOULD_NOT_ALLOCATE_REQUIRED_MEMORY;
     66e:	57fd                	li	a5,-1
     670:	fef42623          	sw	a5,-20(s0)
        }

        traceRETURN_xTaskCreate( xReturn );

        return xReturn;
     674:	fec42783          	lw	a5,-20(s0)
    }
     678:	853e                	mv	a0,a5
     67a:	50f2                	lw	ra,60(sp)
     67c:	5462                	lw	s0,56(sp)
     67e:	6121                	addi	sp,sp,64
     680:	8082                	ret

00000682 <prvInitialiseNewTask>:
                                  void * const pvParameters,
                                  UBaseType_t uxPriority,
                                  TaskHandle_t * const pxCreatedTask,
                                  TCB_t * pxNewTCB,
                                  const MemoryRegion_t * const xRegions )
{
     682:	7139                	addi	sp,sp,-64
     684:	de06                	sw	ra,60(sp)
     686:	dc22                	sw	s0,56(sp)
     688:	0080                	addi	s0,sp,64
     68a:	fca42e23          	sw	a0,-36(s0)
     68e:	fcb42c23          	sw	a1,-40(s0)
     692:	fcc42a23          	sw	a2,-44(s0)
     696:	fcd42823          	sw	a3,-48(s0)
     69a:	fce42623          	sw	a4,-52(s0)
     69e:	fcf42423          	sw	a5,-56(s0)
     6a2:	fd042223          	sw	a6,-60(s0)
     6a6:	fd142023          	sw	a7,-64(s0)

    /* Avoid dependency on memset() if it is not required. */
    #if ( tskSET_NEW_STACKS_TO_KNOWN_VALUE == 1 )
    {
        /* Fill the stack with a known value to assist debugging. */
        ( void ) memset( pxNewTCB->pxStack, ( int ) tskSTACK_FILL_BYTE, ( size_t ) uxStackDepth * sizeof( StackType_t ) );
     6aa:	fc442783          	lw	a5,-60(s0)
     6ae:	5b98                	lw	a4,48(a5)
     6b0:	fd442783          	lw	a5,-44(s0)
     6b4:	078a                	slli	a5,a5,0x2
     6b6:	863e                	mv	a2,a5
     6b8:	0a500593          	li	a1,165
     6bc:	853a                	mv	a0,a4
     6be:	1a7060ef          	jal	7064 <memset>
     * grows from high memory to low (as per the 80x86) or vice versa.
     * portSTACK_GROWTH is used to make the result positive or negative as required
     * by the port. */
    #if ( portSTACK_GROWTH < 0 )
    {
        pxTopOfStack = &( pxNewTCB->pxStack[ uxStackDepth - ( configSTACK_DEPTH_TYPE ) 1 ] );
     6c2:	fc442783          	lw	a5,-60(s0)
     6c6:	5b98                	lw	a4,48(a5)
     6c8:	fd442683          	lw	a3,-44(s0)
     6cc:	400007b7          	lui	a5,0x40000
     6d0:	17fd                	addi	a5,a5,-1 # 3fffffff <__freertos_irq_stack_top+0x1fff7fff>
     6d2:	97b6                	add	a5,a5,a3
     6d4:	078a                	slli	a5,a5,0x2
     6d6:	97ba                	add	a5,a5,a4
     6d8:	fef42423          	sw	a5,-24(s0)
        pxTopOfStack = ( StackType_t * ) ( ( ( portPOINTER_SIZE_TYPE ) pxTopOfStack ) & ( ~( ( portPOINTER_SIZE_TYPE ) portBYTE_ALIGNMENT_MASK ) ) );
     6dc:	fe842783          	lw	a5,-24(s0)
     6e0:	9bc1                	andi	a5,a5,-16
     6e2:	fef42423          	sw	a5,-24(s0)

        /* Check the alignment of the calculated top of stack is correct. */
        configASSERT( ( ( ( portPOINTER_SIZE_TYPE ) pxTopOfStack & ( portPOINTER_SIZE_TYPE ) portBYTE_ALIGNMENT_MASK ) == 0U ) );
     6e6:	fe842783          	lw	a5,-24(s0)
     6ea:	8bbd                	andi	a5,a5,15
     6ec:	c781                	beqz	a5,6f4 <prvInitialiseNewTask+0x72>
     6ee:	30047073          	csrci	mstatus,8
     6f2:	a001                	j	6f2 <prvInitialiseNewTask+0x70>
        pxNewTCB->pxEndOfStack = pxNewTCB->pxStack + ( uxStackDepth - ( configSTACK_DEPTH_TYPE ) 1 );
    }
    #endif /* portSTACK_GROWTH */

    /* Store the task name in the TCB. */
    if( pcName != NULL )
     6f4:	fd842783          	lw	a5,-40(s0)
     6f8:	cbb1                	beqz	a5,74c <prvInitialiseNewTask+0xca>
    {
        for( x = ( UBaseType_t ) 0; x < ( UBaseType_t ) configMAX_TASK_NAME_LEN; x++ )
     6fa:	fe042623          	sw	zero,-20(s0)
     6fe:	a825                	j	736 <prvInitialiseNewTask+0xb4>
        {
            pxNewTCB->pcTaskName[ x ] = pcName[ x ];
     700:	fd842703          	lw	a4,-40(s0)
     704:	fec42783          	lw	a5,-20(s0)
     708:	97ba                	add	a5,a5,a4
     70a:	0007c703          	lbu	a4,0(a5)
     70e:	fc442683          	lw	a3,-60(s0)
     712:	fec42783          	lw	a5,-20(s0)
     716:	97b6                	add	a5,a5,a3
     718:	02e78a23          	sb	a4,52(a5)

            /* Don't copy all configMAX_TASK_NAME_LEN if the string is shorter than
             * configMAX_TASK_NAME_LEN characters just in case the memory after the
             * string is not accessible (extremely unlikely). */
            if( pcName[ x ] == ( char ) 0x00 )
     71c:	fd842703          	lw	a4,-40(s0)
     720:	fec42783          	lw	a5,-20(s0)
     724:	97ba                	add	a5,a5,a4
     726:	0007c783          	lbu	a5,0(a5)
     72a:	cf81                	beqz	a5,742 <prvInitialiseNewTask+0xc0>
        for( x = ( UBaseType_t ) 0; x < ( UBaseType_t ) configMAX_TASK_NAME_LEN; x++ )
     72c:	fec42783          	lw	a5,-20(s0)
     730:	0785                	addi	a5,a5,1
     732:	fef42623          	sw	a5,-20(s0)
     736:	fec42703          	lw	a4,-20(s0)
     73a:	47bd                	li	a5,15
     73c:	fce7f2e3          	bgeu	a5,a4,700 <prvInitialiseNewTask+0x7e>
     740:	a011                	j	744 <prvInitialiseNewTask+0xc2>
            {
                break;
     742:	0001                	nop
            }
        }

        /* Ensure the name string is terminated in the case that the string length
         * was greater or equal to configMAX_TASK_NAME_LEN. */
        pxNewTCB->pcTaskName[ configMAX_TASK_NAME_LEN - 1U ] = '\0';
     744:	fc442783          	lw	a5,-60(s0)
     748:	040781a3          	sb	zero,67(a5)
    {
        mtCOVERAGE_TEST_MARKER();
    }

    /* This is used as an array index so must ensure it's not too large. */
    configASSERT( uxPriority < configMAX_PRIORITIES );
     74c:	fcc42703          	lw	a4,-52(s0)
     750:	47fd                	li	a5,31
     752:	00e7f563          	bgeu	a5,a4,75c <prvInitialiseNewTask+0xda>
     756:	30047073          	csrci	mstatus,8
     75a:	a001                	j	75a <prvInitialiseNewTask+0xd8>

    if( uxPriority >= ( UBaseType_t ) configMAX_PRIORITIES )
     75c:	fcc42703          	lw	a4,-52(s0)
     760:	47fd                	li	a5,31
     762:	00e7f563          	bgeu	a5,a4,76c <prvInitialiseNewTask+0xea>
    {
        uxPriority = ( UBaseType_t ) configMAX_PRIORITIES - ( UBaseType_t ) 1U;
     766:	47fd                	li	a5,31
     768:	fcf42623          	sw	a5,-52(s0)
    else
    {
        mtCOVERAGE_TEST_MARKER();
    }

    pxNewTCB->uxPriority = uxPriority;
     76c:	fc442783          	lw	a5,-60(s0)
     770:	fcc42703          	lw	a4,-52(s0)
     774:	d7d8                	sw	a4,44(a5)
    #if ( configUSE_MUTEXES == 1 )
    {
        pxNewTCB->uxBasePriority = uxPriority;
     776:	fc442783          	lw	a5,-60(s0)
     77a:	fcc42703          	lw	a4,-52(s0)
     77e:	c3f8                	sw	a4,68(a5)
    }
    #endif /* configUSE_MUTEXES */

    vListInitialiseItem( &( pxNewTCB->xStateListItem ) );
     780:	fc442783          	lw	a5,-60(s0)
     784:	0791                	addi	a5,a5,4
     786:	853e                	mv	a0,a5
     788:	51e030ef          	jal	3ca6 <vListInitialiseItem>
    vListInitialiseItem( &( pxNewTCB->xEventListItem ) );
     78c:	fc442783          	lw	a5,-60(s0)
     790:	07e1                	addi	a5,a5,24
     792:	853e                	mv	a0,a5
     794:	512030ef          	jal	3ca6 <vListInitialiseItem>

    /* Set the pxNewTCB as a link back from the ListItem_t.  This is so we can get
     * back to  the containing TCB from a generic item in a list. */
    listSET_LIST_ITEM_OWNER( &( pxNewTCB->xStateListItem ), pxNewTCB );
     798:	fc442783          	lw	a5,-60(s0)
     79c:	fc442703          	lw	a4,-60(s0)
     7a0:	cb98                	sw	a4,16(a5)

    /* Event lists are always in priority order. */
    listSET_LIST_ITEM_VALUE( &( pxNewTCB->xEventListItem ), ( TickType_t ) configMAX_PRIORITIES - ( TickType_t ) uxPriority );
     7a2:	02000713          	li	a4,32
     7a6:	fcc42783          	lw	a5,-52(s0)
     7aa:	8f1d                	sub	a4,a4,a5
     7ac:	fc442783          	lw	a5,-60(s0)
     7b0:	cf98                	sw	a4,24(a5)
    listSET_LIST_ITEM_OWNER( &( pxNewTCB->xEventListItem ), pxNewTCB );
     7b2:	fc442783          	lw	a5,-60(s0)
     7b6:	fc442703          	lw	a4,-60(s0)
     7ba:	d3d8                	sw	a4,36(a5)
            }
            #endif /* portSTACK_GROWTH */
        }
        #else /* portHAS_STACK_OVERFLOW_CHECKING */
        {
            pxNewTCB->pxTopOfStack = pxPortInitialiseStack( pxTopOfStack, pxTaskCode, pvParameters );
     7bc:	fd042603          	lw	a2,-48(s0)
     7c0:	fdc42583          	lw	a1,-36(s0)
     7c4:	fe842503          	lw	a0,-24(s0)
     7c8:	67d030ef          	jal	4644 <pxPortInitialiseStack>
     7cc:	872a                	mv	a4,a0
     7ce:	fc442783          	lw	a5,-60(s0)
     7d2:	c398                	sw	a4,0(a5)
        }
        #endif /* portHAS_STACK_OVERFLOW_CHECKING */

        #if ( portSTACK_GROWTH < 0 )
        {
            configASSERT( ( ( portPOINTER_SIZE_TYPE ) ( pxTopOfStack - pxNewTCB->pxTopOfStack ) ) < ( ( portPOINTER_SIZE_TYPE ) uxStackDepth ) );
     7d4:	fc442783          	lw	a5,-60(s0)
     7d8:	439c                	lw	a5,0(a5)
     7da:	fe842703          	lw	a4,-24(s0)
     7de:	40f707b3          	sub	a5,a4,a5
     7e2:	8789                	srai	a5,a5,0x2
     7e4:	873e                	mv	a4,a5
     7e6:	fd442783          	lw	a5,-44(s0)
     7ea:	00f76563          	bltu	a4,a5,7f4 <prvInitialiseNewTask+0x172>
     7ee:	30047073          	csrci	mstatus,8
     7f2:	a001                	j	7f2 <prvInitialiseNewTask+0x170>
            pxNewTCB->uxTaskAttributes |= taskATTRIBUTE_IS_IDLE;
        }
    }
    #endif /* #if ( configNUMBER_OF_CORES > 1 ) */

    if( pxCreatedTask != NULL )
     7f4:	fc842783          	lw	a5,-56(s0)
     7f8:	c791                	beqz	a5,804 <prvInitialiseNewTask+0x182>
    {
        /* Pass the handle out in an anonymous way.  The handle can be used to
         * change the created task's priority, delete the created task, etc.*/
        *pxCreatedTask = ( TaskHandle_t ) pxNewTCB;
     7fa:	fc842783          	lw	a5,-56(s0)
     7fe:	fc442703          	lw	a4,-60(s0)
     802:	c398                	sw	a4,0(a5)
    }
    else
    {
        mtCOVERAGE_TEST_MARKER();
    }
}
     804:	0001                	nop
     806:	50f2                	lw	ra,60(sp)
     808:	5462                	lw	s0,56(sp)
     80a:	6121                	addi	sp,sp,64
     80c:	8082                	ret

0000080e <prvAddNewTaskToReadyList>:
/*-----------------------------------------------------------*/

#if ( configNUMBER_OF_CORES == 1 )

    static void prvAddNewTaskToReadyList( TCB_t * pxNewTCB )
    {
     80e:	7179                	addi	sp,sp,-48
     810:	d606                	sw	ra,44(sp)
     812:	d422                	sw	s0,40(sp)
     814:	1800                	addi	s0,sp,48
     816:	fca42e23          	sw	a0,-36(s0)
        /* Ensure interrupts don't access the task lists while the lists are being
         * updated. */
        taskENTER_CRITICAL();
     81a:	30047073          	csrci	mstatus,8
     81e:	8081a783          	lw	a5,-2040(gp) # 20000060 <xCriticalNesting>
     822:	00178713          	addi	a4,a5,1
     826:	80e1a423          	sw	a4,-2040(gp) # 20000060 <xCriticalNesting>
        {
            uxCurrentNumberOfTasks = ( UBaseType_t ) ( uxCurrentNumberOfTasks + 1U );
     82a:	b441a783          	lw	a5,-1212(gp) # 2000039c <uxCurrentNumberOfTasks>
     82e:	00178713          	addi	a4,a5,1
     832:	b4e1a223          	sw	a4,-1212(gp) # 2000039c <uxCurrentNumberOfTasks>

            if( pxCurrentTCB == NULL )
     836:	8281a783          	lw	a5,-2008(gp) # 20000080 <pxCurrentTCB>
     83a:	ef89                	bnez	a5,854 <prvAddNewTaskToReadyList+0x46>
            {
                /* There are no other tasks, or all the other tasks are in
                 * the suspended state - make this the current task. */
                pxCurrentTCB = pxNewTCB;
     83c:	fdc42703          	lw	a4,-36(s0)
     840:	82e1a423          	sw	a4,-2008(gp) # 20000080 <pxCurrentTCB>

                if( uxCurrentNumberOfTasks == ( UBaseType_t ) 1 )
     844:	b441a703          	lw	a4,-1212(gp) # 2000039c <uxCurrentNumberOfTasks>
     848:	4785                	li	a5,1
     84a:	02f71463          	bne	a4,a5,872 <prvAddNewTaskToReadyList+0x64>
                {
                    /* This is the first task to be created so do the preliminary
                     * initialisation required.  We will not recover if this call
                     * fails, but we will report the failure. */
                    prvInitialiseTaskLists();
     84e:	603010ef          	jal	2650 <prvInitialiseTaskLists>
     852:	a005                	j	872 <prvAddNewTaskToReadyList+0x64>
            else
            {
                /* If the scheduler is not already running, make this task the
                 * current task if it is the highest priority task to be created
                 * so far. */
                if( xSchedulerRunning == pdFALSE )
     854:	b501a783          	lw	a5,-1200(gp) # 200003a8 <xSchedulerRunning>
     858:	ef89                	bnez	a5,872 <prvAddNewTaskToReadyList+0x64>
                {
                    if( pxCurrentTCB->uxPriority <= pxNewTCB->uxPriority )
     85a:	8281a783          	lw	a5,-2008(gp) # 20000080 <pxCurrentTCB>
     85e:	57d8                	lw	a4,44(a5)
     860:	fdc42783          	lw	a5,-36(s0)
     864:	57dc                	lw	a5,44(a5)
     866:	00e7e663          	bltu	a5,a4,872 <prvAddNewTaskToReadyList+0x64>
                    {
                        pxCurrentTCB = pxNewTCB;
     86a:	fdc42703          	lw	a4,-36(s0)
     86e:	82e1a423          	sw	a4,-2008(gp) # 20000080 <pxCurrentTCB>
                {
                    mtCOVERAGE_TEST_MARKER();
                }
            }

            uxTaskNumber++;
     872:	b601a783          	lw	a5,-1184(gp) # 200003b8 <uxTaskNumber>
     876:	00178713          	addi	a4,a5,1
     87a:	b6e1a023          	sw	a4,-1184(gp) # 200003b8 <uxTaskNumber>
                pxNewTCB->uxTCBNumber = uxTaskNumber;
            }
            #endif /* configUSE_TRACE_FACILITY */
            traceTASK_CREATE( pxNewTCB );

            prvAddTaskToReadyList( pxNewTCB );
     87e:	fdc42783          	lw	a5,-36(s0)
     882:	57dc                	lw	a5,44(a5)
     884:	4705                	li	a4,1
     886:	00f71733          	sll	a4,a4,a5
     88a:	b4c1a783          	lw	a5,-1204(gp) # 200003a4 <uxTopReadyPriority>
     88e:	8f5d                	or	a4,a4,a5
     890:	b4e1a623          	sw	a4,-1204(gp) # 200003a4 <uxTopReadyPriority>
     894:	fdc42783          	lw	a5,-36(s0)
     898:	57d8                	lw	a4,44(a5)
     89a:	200007b7          	lui	a5,0x20000
     89e:	0ac78693          	addi	a3,a5,172 # 200000ac <pxReadyTasksLists>
     8a2:	87ba                	mv	a5,a4
     8a4:	078a                	slli	a5,a5,0x2
     8a6:	97ba                	add	a5,a5,a4
     8a8:	078a                	slli	a5,a5,0x2
     8aa:	97b6                	add	a5,a5,a3
     8ac:	43dc                	lw	a5,4(a5)
     8ae:	fef42623          	sw	a5,-20(s0)
     8b2:	fdc42783          	lw	a5,-36(s0)
     8b6:	fec42703          	lw	a4,-20(s0)
     8ba:	c798                	sw	a4,8(a5)
     8bc:	fec42783          	lw	a5,-20(s0)
     8c0:	4798                	lw	a4,8(a5)
     8c2:	fdc42783          	lw	a5,-36(s0)
     8c6:	c7d8                	sw	a4,12(a5)
     8c8:	fec42783          	lw	a5,-20(s0)
     8cc:	479c                	lw	a5,8(a5)
     8ce:	fdc42703          	lw	a4,-36(s0)
     8d2:	0711                	addi	a4,a4,4
     8d4:	c3d8                	sw	a4,4(a5)
     8d6:	fdc42783          	lw	a5,-36(s0)
     8da:	00478713          	addi	a4,a5,4
     8de:	fec42783          	lw	a5,-20(s0)
     8e2:	c798                	sw	a4,8(a5)
     8e4:	fdc42783          	lw	a5,-36(s0)
     8e8:	57d8                	lw	a4,44(a5)
     8ea:	87ba                	mv	a5,a4
     8ec:	078a                	slli	a5,a5,0x2
     8ee:	97ba                	add	a5,a5,a4
     8f0:	078a                	slli	a5,a5,0x2
     8f2:	20000737          	lui	a4,0x20000
     8f6:	0ac70713          	addi	a4,a4,172 # 200000ac <pxReadyTasksLists>
     8fa:	973e                	add	a4,a4,a5
     8fc:	fdc42783          	lw	a5,-36(s0)
     900:	cbd8                	sw	a4,20(a5)
     902:	fdc42783          	lw	a5,-36(s0)
     906:	57d8                	lw	a4,44(a5)
     908:	200007b7          	lui	a5,0x20000
     90c:	0ac78693          	addi	a3,a5,172 # 200000ac <pxReadyTasksLists>
     910:	87ba                	mv	a5,a4
     912:	078a                	slli	a5,a5,0x2
     914:	97ba                	add	a5,a5,a4
     916:	078a                	slli	a5,a5,0x2
     918:	97b6                	add	a5,a5,a3
     91a:	439c                	lw	a5,0(a5)
     91c:	fdc42703          	lw	a4,-36(s0)
     920:	5758                	lw	a4,44(a4)
     922:	00178693          	addi	a3,a5,1
     926:	200007b7          	lui	a5,0x20000
     92a:	0ac78613          	addi	a2,a5,172 # 200000ac <pxReadyTasksLists>
     92e:	87ba                	mv	a5,a4
     930:	078a                	slli	a5,a5,0x2
     932:	97ba                	add	a5,a5,a4
     934:	078a                	slli	a5,a5,0x2
     936:	97b2                	add	a5,a5,a2
     938:	c394                	sw	a3,0(a5)

            portSETUP_TCB( pxNewTCB );
        }
        taskEXIT_CRITICAL();
     93a:	8081a783          	lw	a5,-2040(gp) # 20000060 <xCriticalNesting>
     93e:	fff78713          	addi	a4,a5,-1
     942:	80e1a423          	sw	a4,-2040(gp) # 20000060 <xCriticalNesting>
     946:	8081a783          	lw	a5,-2040(gp) # 20000060 <xCriticalNesting>
     94a:	e399                	bnez	a5,950 <prvAddNewTaskToReadyList+0x142>
     94c:	30046073          	csrsi	mstatus,8

        if( xSchedulerRunning != pdFALSE )
     950:	b501a783          	lw	a5,-1200(gp) # 200003a8 <xSchedulerRunning>
     954:	cb99                	beqz	a5,96a <prvAddNewTaskToReadyList+0x15c>
        {
            /* If the created task is of a higher priority than the current task
             * then it should run now. */
            taskYIELD_ANY_CORE_IF_USING_PREEMPTION( pxNewTCB );
     956:	8281a783          	lw	a5,-2008(gp) # 20000080 <pxCurrentTCB>
     95a:	57d8                	lw	a4,44(a5)
     95c:	fdc42783          	lw	a5,-36(s0)
     960:	57dc                	lw	a5,44(a5)
     962:	00f77463          	bgeu	a4,a5,96a <prvAddNewTaskToReadyList+0x15c>
     966:	00000073          	ecall
        }
        else
        {
            mtCOVERAGE_TEST_MARKER();
        }
    }
     96a:	0001                	nop
     96c:	50b2                	lw	ra,44(sp)
     96e:	5422                	lw	s0,40(sp)
     970:	6145                	addi	sp,sp,48
     972:	8082                	ret

00000974 <vTaskDelete>:
/*-----------------------------------------------------------*/

#if ( INCLUDE_vTaskDelete == 1 )

    void vTaskDelete( TaskHandle_t xTaskToDelete )
    {
     974:	7179                	addi	sp,sp,-48
     976:	d606                	sw	ra,44(sp)
     978:	d422                	sw	s0,40(sp)
     97a:	1800                	addi	s0,sp,48
     97c:	fca42e23          	sw	a0,-36(s0)
        TCB_t * pxTCB;
        BaseType_t xDeleteTCBInIdleTask = pdFALSE;
     980:	fe042423          	sw	zero,-24(s0)
        BaseType_t xTaskIsRunningOrYielding;

        traceENTER_vTaskDelete( xTaskToDelete );

        taskENTER_CRITICAL();
     984:	30047073          	csrci	mstatus,8
     988:	8081a783          	lw	a5,-2040(gp) # 20000060 <xCriticalNesting>
     98c:	00178713          	addi	a4,a5,1
     990:	80e1a423          	sw	a4,-2040(gp) # 20000060 <xCriticalNesting>
        {
            /* If null is passed in here then it is the calling task that is
             * being deleted. */
            pxTCB = prvGetTCBFromHandle( xTaskToDelete );
     994:	fdc42783          	lw	a5,-36(s0)
     998:	e791                	bnez	a5,9a4 <vTaskDelete+0x30>
     99a:	8281a783          	lw	a5,-2008(gp) # 20000080 <pxCurrentTCB>
     99e:	fef42623          	sw	a5,-20(s0)
     9a2:	a029                	j	9ac <vTaskDelete+0x38>
     9a4:	fdc42783          	lw	a5,-36(s0)
     9a8:	fef42623          	sw	a5,-20(s0)
            configASSERT( pxTCB != NULL );
     9ac:	fec42783          	lw	a5,-20(s0)
     9b0:	e781                	bnez	a5,9b8 <vTaskDelete+0x44>
     9b2:	30047073          	csrci	mstatus,8
     9b6:	a001                	j	9b6 <vTaskDelete+0x42>

            /* Remove task from the ready/delayed list. */
            if( uxListRemove( &( pxTCB->xStateListItem ) ) == ( UBaseType_t ) 0 )
     9b8:	fec42783          	lw	a5,-20(s0)
     9bc:	0791                	addi	a5,a5,4
     9be:	853e                	mv	a0,a5
     9c0:	414030ef          	jal	3dd4 <uxListRemove>
     9c4:	87aa                	mv	a5,a0
     9c6:	ef85                	bnez	a5,9fe <vTaskDelete+0x8a>
            {
                taskRESET_READY_PRIORITY( pxTCB->uxPriority );
     9c8:	fec42783          	lw	a5,-20(s0)
     9cc:	57d8                	lw	a4,44(a5)
     9ce:	200007b7          	lui	a5,0x20000
     9d2:	0ac78693          	addi	a3,a5,172 # 200000ac <pxReadyTasksLists>
     9d6:	87ba                	mv	a5,a4
     9d8:	078a                	slli	a5,a5,0x2
     9da:	97ba                	add	a5,a5,a4
     9dc:	078a                	slli	a5,a5,0x2
     9de:	97b6                	add	a5,a5,a3
     9e0:	439c                	lw	a5,0(a5)
     9e2:	ef91                	bnez	a5,9fe <vTaskDelete+0x8a>
     9e4:	fec42783          	lw	a5,-20(s0)
     9e8:	57dc                	lw	a5,44(a5)
     9ea:	4705                	li	a4,1
     9ec:	00f717b3          	sll	a5,a4,a5
     9f0:	fff7c713          	not	a4,a5
     9f4:	b4c1a783          	lw	a5,-1204(gp) # 200003a4 <uxTopReadyPriority>
     9f8:	8f7d                	and	a4,a4,a5
     9fa:	b4e1a623          	sw	a4,-1204(gp) # 200003a4 <uxTopReadyPriority>
            {
                mtCOVERAGE_TEST_MARKER();
            }

            /* Is the task waiting on an event also? */
            if( listLIST_ITEM_CONTAINER( &( pxTCB->xEventListItem ) ) != NULL )
     9fe:	fec42783          	lw	a5,-20(s0)
     a02:	579c                	lw	a5,40(a5)
     a04:	c799                	beqz	a5,a12 <vTaskDelete+0x9e>
            {
                ( void ) uxListRemove( &( pxTCB->xEventListItem ) );
     a06:	fec42783          	lw	a5,-20(s0)
     a0a:	07e1                	addi	a5,a5,24
     a0c:	853e                	mv	a0,a5
     a0e:	3c6030ef          	jal	3dd4 <uxListRemove>

            /* Increment the uxTaskNumber also so kernel aware debuggers can
             * detect that the task lists need re-generating.  This is done before
             * portPRE_TASK_DELETE_HOOK() as in the Windows port that macro will
             * not return. */
            uxTaskNumber++;
     a12:	b601a783          	lw	a5,-1184(gp) # 200003b8 <uxTaskNumber>
     a16:	00178713          	addi	a4,a5,1
     a1a:	b6e1a023          	sw	a4,-1184(gp) # 200003b8 <uxTaskNumber>

            /* Use temp variable as distinct sequence points for reading volatile
             * variables prior to a logical operator to ensure compliance with
             * MISRA C 2012 Rule 13.5. */
            xTaskIsRunningOrYielding = taskTASK_IS_RUNNING_OR_SCHEDULED_TO_YIELD( pxTCB );
     a1e:	8281a783          	lw	a5,-2008(gp) # 20000080 <pxCurrentTCB>
     a22:	fec42703          	lw	a4,-20(s0)
     a26:	00f71663          	bne	a4,a5,a32 <vTaskDelete+0xbe>
     a2a:	4785                	li	a5,1
     a2c:	fef42223          	sw	a5,-28(s0)
     a30:	a019                	j	a36 <vTaskDelete+0xc2>
     a32:	fe042223          	sw	zero,-28(s0)

            /* If the task is running (or yielding), we must add it to the
             * termination list so that an idle task can delete it when it is
             * no longer running. */
            if( ( xSchedulerRunning != pdFALSE ) && ( xTaskIsRunningOrYielding != pdFALSE ) )
     a36:	b501a783          	lw	a5,-1200(gp) # 200003a8 <xSchedulerRunning>
     a3a:	c795                	beqz	a5,a66 <vTaskDelete+0xf2>
     a3c:	fe442783          	lw	a5,-28(s0)
     a40:	c39d                	beqz	a5,a66 <vTaskDelete+0xf2>
                 * deleted. This cannot complete when the task is still running
                 * on a core, as a context switch to another task is required.
                 * Place the task in the termination list. The idle task will check
                 * the termination list and free up any memory allocated by the
                 * scheduler for the TCB and stack of the deleted task. */
                vListInsertEnd( &xTasksWaitingTermination, &( pxTCB->xStateListItem ) );
     a42:	fec42783          	lw	a5,-20(s0)
     a46:	0791                	addi	a5,a5,4
     a48:	85be                	mv	a1,a5
     a4a:	b1818513          	addi	a0,gp,-1256 # 20000370 <xTasksWaitingTermination>
     a4e:	276030ef          	jal	3cc4 <vListInsertEnd>

                /* Increment the ucTasksDeleted variable so the idle task knows
                 * there is a task that has been deleted and that it should therefore
                 * check the xTasksWaitingTermination list. */
                ++uxDeletedTasksWaitingCleanUp;
     a52:	b2c1a783          	lw	a5,-1236(gp) # 20000384 <uxDeletedTasksWaitingCleanUp>
     a56:	00178713          	addi	a4,a5,1
     a5a:	b2e1a623          	sw	a4,-1236(gp) # 20000384 <uxDeletedTasksWaitingCleanUp>
                /* Call the delete hook before portPRE_TASK_DELETE_HOOK() as
                 * portPRE_TASK_DELETE_HOOK() does not return in the Win32 port. */
                traceTASK_DELETE( pxTCB );

                /* Delete the task TCB in idle task. */
                xDeleteTCBInIdleTask = pdTRUE;
     a5e:	4785                	li	a5,1
     a60:	fef42423          	sw	a5,-24(s0)
     a64:	a809                	j	a76 <vTaskDelete+0x102>
                }
                #endif /* #if ( configNUMBER_OF_CORES > 1 ) */
            }
            else
            {
                --uxCurrentNumberOfTasks;
     a66:	b441a783          	lw	a5,-1212(gp) # 2000039c <uxCurrentNumberOfTasks>
     a6a:	fff78713          	addi	a4,a5,-1
     a6e:	b4e1a223          	sw	a4,-1212(gp) # 2000039c <uxCurrentNumberOfTasks>
                traceTASK_DELETE( pxTCB );

                /* Reset the next expected unblock time in case it referred to
                 * the task that has just been deleted. */
                prvResetNextTaskUnblockTime();
     a72:	5d9010ef          	jal	284a <prvResetNextTaskUnblockTime>
            }
        }
        taskEXIT_CRITICAL();
     a76:	8081a783          	lw	a5,-2040(gp) # 20000060 <xCriticalNesting>
     a7a:	fff78713          	addi	a4,a5,-1
     a7e:	80e1a423          	sw	a4,-2040(gp) # 20000060 <xCriticalNesting>
     a82:	8081a783          	lw	a5,-2040(gp) # 20000060 <xCriticalNesting>
     a86:	e399                	bnez	a5,a8c <vTaskDelete+0x118>
     a88:	30046073          	csrsi	mstatus,8

        /* If the task is not deleting itself, call prvDeleteTCB from outside of
         * critical section. If a task deletes itself, prvDeleteTCB is called
         * from prvCheckTasksWaitingTermination which is called from Idle task. */
        if( xDeleteTCBInIdleTask != pdTRUE )
     a8c:	fe842703          	lw	a4,-24(s0)
     a90:	4785                	li	a5,1
     a92:	00f70663          	beq	a4,a5,a9e <vTaskDelete+0x12a>
        {
            prvDeleteTCB( pxTCB );
     a96:	fec42503          	lw	a0,-20(s0)
     a9a:	54f010ef          	jal	27e8 <prvDeleteTCB>

        /* Force a reschedule if it is the currently running task that has just
         * been deleted. */
        #if ( configNUMBER_OF_CORES == 1 )
        {
            if( xSchedulerRunning != pdFALSE )
     a9e:	b501a783          	lw	a5,-1200(gp) # 200003a8 <xSchedulerRunning>
     aa2:	cf99                	beqz	a5,ac0 <vTaskDelete+0x14c>
            {
                if( pxTCB == pxCurrentTCB )
     aa4:	8281a783          	lw	a5,-2008(gp) # 20000080 <pxCurrentTCB>
     aa8:	fec42703          	lw	a4,-20(s0)
     aac:	00f71a63          	bne	a4,a5,ac0 <vTaskDelete+0x14c>
                {
                    configASSERT( uxSchedulerSuspended == 0 );
     ab0:	b6c1a783          	lw	a5,-1172(gp) # 200003c4 <uxSchedulerSuspended>
     ab4:	c781                	beqz	a5,abc <vTaskDelete+0x148>
     ab6:	30047073          	csrci	mstatus,8
     aba:	a001                	j	aba <vTaskDelete+0x146>
                    taskYIELD_WITHIN_API();
     abc:	00000073          	ecall
            }
        }
        #endif /* #if ( configNUMBER_OF_CORES == 1 ) */

        traceRETURN_vTaskDelete();
    }
     ac0:	0001                	nop
     ac2:	50b2                	lw	ra,44(sp)
     ac4:	5422                	lw	s0,40(sp)
     ac6:	6145                	addi	sp,sp,48
     ac8:	8082                	ret

00000aca <vTaskDelay>:
/*-----------------------------------------------------------*/

#if ( INCLUDE_vTaskDelay == 1 )

    void vTaskDelay( const TickType_t xTicksToDelay )
    {
     aca:	7179                	addi	sp,sp,-48
     acc:	d606                	sw	ra,44(sp)
     ace:	d422                	sw	s0,40(sp)
     ad0:	1800                	addi	s0,sp,48
     ad2:	fca42e23          	sw	a0,-36(s0)
        BaseType_t xAlreadyYielded = pdFALSE;
     ad6:	fe042623          	sw	zero,-20(s0)

        traceENTER_vTaskDelay( xTicksToDelay );

        /* A delay time of zero just forces a reschedule. */
        if( xTicksToDelay > ( TickType_t ) 0U )
     ada:	fdc42783          	lw	a5,-36(s0)
     ade:	c785                	beqz	a5,b06 <vTaskDelay+0x3c>
        {
            vTaskSuspendAll();
     ae0:	37b000ef          	jal	165a <vTaskSuspendAll>
            {
                configASSERT( uxSchedulerSuspended == 1U );
     ae4:	b6c1a703          	lw	a4,-1172(gp) # 200003c4 <uxSchedulerSuspended>
     ae8:	4785                	li	a5,1
     aea:	00f70563          	beq	a4,a5,af4 <vTaskDelay+0x2a>
     aee:	30047073          	csrci	mstatus,8
     af2:	a001                	j	af2 <vTaskDelay+0x28>
                 * list or removed from the blocked list until the scheduler
                 * is resumed.
                 *
                 * This task cannot be in an event list as it is the currently
                 * executing task. */
                prvAddCurrentTaskToDelayedList( xTicksToDelay, pdFALSE );
     af4:	4581                	li	a1,0
     af6:	fdc42503          	lw	a0,-36(s0)
     afa:	7dd020ef          	jal	3ad6 <prvAddCurrentTaskToDelayedList>
            }
            xAlreadyYielded = xTaskResumeAll();
     afe:	37b000ef          	jal	1678 <xTaskResumeAll>
     b02:	fea42623          	sw	a0,-20(s0)
            mtCOVERAGE_TEST_MARKER();
        }

        /* Force a reschedule if xTaskResumeAll has not already done so, we may
         * have put ourselves to sleep. */
        if( xAlreadyYielded == pdFALSE )
     b06:	fec42783          	lw	a5,-20(s0)
     b0a:	e399                	bnez	a5,b10 <vTaskDelay+0x46>
        {
            taskYIELD_WITHIN_API();
     b0c:	00000073          	ecall
        {
            mtCOVERAGE_TEST_MARKER();
        }

        traceRETURN_vTaskDelay();
    }
     b10:	0001                	nop
     b12:	50b2                	lw	ra,44(sp)
     b14:	5422                	lw	s0,40(sp)
     b16:	6145                	addi	sp,sp,48
     b18:	8082                	ret

00000b1a <eTaskGetState>:
/*-----------------------------------------------------------*/

#if ( ( INCLUDE_eTaskGetState == 1 ) || ( configUSE_TRACE_FACILITY == 1 ) || ( INCLUDE_xTaskAbortDelay == 1 ) )

    eTaskState eTaskGetState( TaskHandle_t xTask )
    {
     b1a:	7139                	addi	sp,sp,-64
     b1c:	de06                	sw	ra,60(sp)
     b1e:	dc22                	sw	s0,56(sp)
     b20:	0080                	addi	s0,sp,64
     b22:	fca42623          	sw	a0,-52(s0)
        eTaskState eReturn;
        List_t const * pxStateList;
        List_t const * pxEventList;
        List_t const * pxDelayedList;
        List_t const * pxOverflowedDelayedList;
        const TCB_t * const pxTCB = xTask;
     b26:	fcc42783          	lw	a5,-52(s0)
     b2a:	fef42223          	sw	a5,-28(s0)

        traceENTER_eTaskGetState( xTask );

        configASSERT( pxTCB != NULL );
     b2e:	fe442783          	lw	a5,-28(s0)
     b32:	e781                	bnez	a5,b3a <eTaskGetState+0x20>
     b34:	30047073          	csrci	mstatus,8
     b38:	a001                	j	b38 <eTaskGetState+0x1e>

        #if ( configNUMBER_OF_CORES == 1 )
            if( pxTCB == pxCurrentTCB )
     b3a:	8281a783          	lw	a5,-2008(gp) # 20000080 <pxCurrentTCB>
     b3e:	fe442703          	lw	a4,-28(s0)
     b42:	00f71563          	bne	a4,a5,b4c <eTaskGetState+0x32>
            {
                /* The task calling this function is querying its own state. */
                eReturn = eRunning;
     b46:	fe042623          	sw	zero,-20(s0)
     b4a:	a8f5                	j	c46 <eTaskGetState+0x12c>
            }
            else
        #endif
        {
            taskENTER_CRITICAL();
     b4c:	30047073          	csrci	mstatus,8
     b50:	8081a783          	lw	a5,-2040(gp) # 20000060 <xCriticalNesting>
     b54:	00178713          	addi	a4,a5,1
     b58:	80e1a423          	sw	a4,-2040(gp) # 20000060 <xCriticalNesting>
            {
                pxStateList = listLIST_ITEM_CONTAINER( &( pxTCB->xStateListItem ) );
     b5c:	fe442783          	lw	a5,-28(s0)
     b60:	4bdc                	lw	a5,20(a5)
     b62:	fef42023          	sw	a5,-32(s0)
                pxEventList = listLIST_ITEM_CONTAINER( &( pxTCB->xEventListItem ) );
     b66:	fe442783          	lw	a5,-28(s0)
     b6a:	579c                	lw	a5,40(a5)
     b6c:	fcf42e23          	sw	a5,-36(s0)
                pxDelayedList = pxDelayedTaskList;
     b70:	afc1a783          	lw	a5,-1284(gp) # 20000354 <pxDelayedTaskList>
     b74:	fcf42c23          	sw	a5,-40(s0)
                pxOverflowedDelayedList = pxOverflowDelayedTaskList;
     b78:	b001a783          	lw	a5,-1280(gp) # 20000358 <pxOverflowDelayedTaskList>
     b7c:	fcf42a23          	sw	a5,-44(s0)
            }
            taskEXIT_CRITICAL();
     b80:	8081a783          	lw	a5,-2040(gp) # 20000060 <xCriticalNesting>
     b84:	fff78713          	addi	a4,a5,-1
     b88:	80e1a423          	sw	a4,-2040(gp) # 20000060 <xCriticalNesting>
     b8c:	8081a783          	lw	a5,-2040(gp) # 20000060 <xCriticalNesting>
     b90:	e399                	bnez	a5,b96 <eTaskGetState+0x7c>
     b92:	30046073          	csrsi	mstatus,8

            if( pxEventList == &xPendingReadyList )
     b96:	fdc42703          	lw	a4,-36(s0)
     b9a:	b0418793          	addi	a5,gp,-1276 # 2000035c <xPendingReadyList>
     b9e:	00f71663          	bne	a4,a5,baa <eTaskGetState+0x90>
            {
                /* The task has been placed on the pending ready list, so its
                 * state is eReady regardless of what list the task's state list
                 * item is currently placed on. */
                eReturn = eReady;
     ba2:	4785                	li	a5,1
     ba4:	fef42623          	sw	a5,-20(s0)
     ba8:	a879                	j	c46 <eTaskGetState+0x12c>
            }
            else if( ( pxStateList == pxDelayedList ) || ( pxStateList == pxOverflowedDelayedList ) )
     baa:	fe042703          	lw	a4,-32(s0)
     bae:	fd842783          	lw	a5,-40(s0)
     bb2:	00f70863          	beq	a4,a5,bc2 <eTaskGetState+0xa8>
     bb6:	fe042703          	lw	a4,-32(s0)
     bba:	fd442783          	lw	a5,-44(s0)
     bbe:	00f71663          	bne	a4,a5,bca <eTaskGetState+0xb0>
            {
                /* The task being queried is referenced from one of the Blocked
                 * lists. */
                eReturn = eBlocked;
     bc2:	4789                	li	a5,2
     bc4:	fef42623          	sw	a5,-20(s0)
     bc8:	a8bd                	j	c46 <eTaskGetState+0x12c>
            }

            #if ( INCLUDE_vTaskSuspend == 1 )
                else if( pxStateList == &xSuspendedTaskList )
     bca:	fe042703          	lw	a4,-32(s0)
     bce:	b3018793          	addi	a5,gp,-1232 # 20000388 <xSuspendedTaskList>
     bd2:	04f71a63          	bne	a4,a5,c26 <eTaskGetState+0x10c>
                {
                    /* The task being queried is referenced from the suspended
                     * list.  Is it genuinely suspended or is it blocked
                     * indefinitely? */
                    if( listLIST_ITEM_CONTAINER( &( pxTCB->xEventListItem ) ) == NULL )
     bd6:	fe442783          	lw	a5,-28(s0)
     bda:	579c                	lw	a5,40(a5)
     bdc:	e3a9                	bnez	a5,c1e <eTaskGetState+0x104>
                            /* The task does not appear on the event list item of
                             * and of the RTOS objects, but could still be in the
                             * blocked state if it is waiting on its notification
                             * rather than waiting on an object.  If not, is
                             * suspended. */
                            eReturn = eSuspended;
     bde:	478d                	li	a5,3
     be0:	fef42623          	sw	a5,-20(s0)

                            for( x = ( BaseType_t ) 0; x < ( BaseType_t ) configTASK_NOTIFICATION_ARRAY_ENTRIES; x++ )
     be4:	fe042423          	sw	zero,-24(s0)
     be8:	a035                	j	c14 <eTaskGetState+0xfa>
                            {
                                if( pxTCB->ucNotifyState[ x ] == taskWAITING_NOTIFICATION )
     bea:	fe442703          	lw	a4,-28(s0)
     bee:	fe842783          	lw	a5,-24(s0)
     bf2:	97ba                	add	a5,a5,a4
     bf4:	0547c783          	lbu	a5,84(a5)
     bf8:	0ff7f713          	zext.b	a4,a5
     bfc:	4785                	li	a5,1
     bfe:	00f71663          	bne	a4,a5,c0a <eTaskGetState+0xf0>
                                {
                                    eReturn = eBlocked;
     c02:	4789                	li	a5,2
     c04:	fef42623          	sw	a5,-20(s0)
                                    break;
     c08:	a83d                	j	c46 <eTaskGetState+0x12c>
                            for( x = ( BaseType_t ) 0; x < ( BaseType_t ) configTASK_NOTIFICATION_ARRAY_ENTRIES; x++ )
     c0a:	fe842783          	lw	a5,-24(s0)
     c0e:	0785                	addi	a5,a5,1
     c10:	fef42423          	sw	a5,-24(s0)
     c14:	fe842783          	lw	a5,-24(s0)
     c18:	fcf059e3          	blez	a5,bea <eTaskGetState+0xd0>
     c1c:	a02d                	j	c46 <eTaskGetState+0x12c>
                        }
                        #endif /* if ( configUSE_TASK_NOTIFICATIONS == 1 ) */
                    }
                    else
                    {
                        eReturn = eBlocked;
     c1e:	4789                	li	a5,2
     c20:	fef42623          	sw	a5,-20(s0)
     c24:	a00d                	j	c46 <eTaskGetState+0x12c>
                    }
                }
            #endif /* if ( INCLUDE_vTaskSuspend == 1 ) */

            #if ( INCLUDE_vTaskDelete == 1 )
                else if( ( pxStateList == &xTasksWaitingTermination ) || ( pxStateList == NULL ) )
     c26:	fe042703          	lw	a4,-32(s0)
     c2a:	b1818793          	addi	a5,gp,-1256 # 20000370 <xTasksWaitingTermination>
     c2e:	00f70563          	beq	a4,a5,c38 <eTaskGetState+0x11e>
     c32:	fe042783          	lw	a5,-32(s0)
     c36:	e789                	bnez	a5,c40 <eTaskGetState+0x126>
                {
                    /* The task being queried is referenced from the deleted
                     * tasks list, or it is not referenced from any lists at
                     * all. */
                    eReturn = eDeleted;
     c38:	4791                	li	a5,4
     c3a:	fef42623          	sw	a5,-20(s0)
     c3e:	a021                	j	c46 <eTaskGetState+0x12c>
            {
                #if ( configNUMBER_OF_CORES == 1 )
                {
                    /* If the task is not in any other state, it must be in the
                     * Ready (including pending ready) state. */
                    eReturn = eReady;
     c40:	4785                	li	a5,1
     c42:	fef42623          	sw	a5,-20(s0)
            }
        }

        traceRETURN_eTaskGetState( eReturn );

        return eReturn;
     c46:	fec42783          	lw	a5,-20(s0)
    }
     c4a:	853e                	mv	a0,a5
     c4c:	50f2                	lw	ra,60(sp)
     c4e:	5462                	lw	s0,56(sp)
     c50:	6121                	addi	sp,sp,64
     c52:	8082                	ret

00000c54 <uxTaskPriorityGet>:
/*-----------------------------------------------------------*/

#if ( INCLUDE_uxTaskPriorityGet == 1 )

    UBaseType_t uxTaskPriorityGet( const TaskHandle_t xTask )
    {
     c54:	7179                	addi	sp,sp,-48
     c56:	d606                	sw	ra,44(sp)
     c58:	d422                	sw	s0,40(sp)
     c5a:	1800                	addi	s0,sp,48
     c5c:	fca42e23          	sw	a0,-36(s0)
        TCB_t const * pxTCB;
        UBaseType_t uxReturn;

        traceENTER_uxTaskPriorityGet( xTask );

        portBASE_TYPE_ENTER_CRITICAL();
     c60:	30047073          	csrci	mstatus,8
     c64:	8081a783          	lw	a5,-2040(gp) # 20000060 <xCriticalNesting>
     c68:	00178713          	addi	a4,a5,1
     c6c:	80e1a423          	sw	a4,-2040(gp) # 20000060 <xCriticalNesting>
        {
            /* If null is passed in here then it is the priority of the task
             * that called uxTaskPriorityGet() that is being queried. */
            pxTCB = prvGetTCBFromHandle( xTask );
     c70:	fdc42783          	lw	a5,-36(s0)
     c74:	e791                	bnez	a5,c80 <uxTaskPriorityGet+0x2c>
     c76:	8281a783          	lw	a5,-2008(gp) # 20000080 <pxCurrentTCB>
     c7a:	fef42623          	sw	a5,-20(s0)
     c7e:	a029                	j	c88 <uxTaskPriorityGet+0x34>
     c80:	fdc42783          	lw	a5,-36(s0)
     c84:	fef42623          	sw	a5,-20(s0)
            configASSERT( pxTCB != NULL );
     c88:	fec42783          	lw	a5,-20(s0)
     c8c:	e781                	bnez	a5,c94 <uxTaskPriorityGet+0x40>
     c8e:	30047073          	csrci	mstatus,8
     c92:	a001                	j	c92 <uxTaskPriorityGet+0x3e>

            uxReturn = pxTCB->uxPriority;
     c94:	fec42783          	lw	a5,-20(s0)
     c98:	57dc                	lw	a5,44(a5)
     c9a:	fef42423          	sw	a5,-24(s0)
        }
        portBASE_TYPE_EXIT_CRITICAL();
     c9e:	8081a783          	lw	a5,-2040(gp) # 20000060 <xCriticalNesting>
     ca2:	fff78713          	addi	a4,a5,-1
     ca6:	80e1a423          	sw	a4,-2040(gp) # 20000060 <xCriticalNesting>
     caa:	8081a783          	lw	a5,-2040(gp) # 20000060 <xCriticalNesting>
     cae:	e399                	bnez	a5,cb4 <uxTaskPriorityGet+0x60>
     cb0:	30046073          	csrsi	mstatus,8

        traceRETURN_uxTaskPriorityGet( uxReturn );

        return uxReturn;
     cb4:	fe842783          	lw	a5,-24(s0)
    }
     cb8:	853e                	mv	a0,a5
     cba:	50b2                	lw	ra,44(sp)
     cbc:	5422                	lw	s0,40(sp)
     cbe:	6145                	addi	sp,sp,48
     cc0:	8082                	ret

00000cc2 <uxTaskPriorityGetFromISR>:
/*-----------------------------------------------------------*/

#if ( INCLUDE_uxTaskPriorityGet == 1 )

    UBaseType_t uxTaskPriorityGetFromISR( const TaskHandle_t xTask )
    {
     cc2:	7179                	addi	sp,sp,-48
     cc4:	d606                	sw	ra,44(sp)
     cc6:	d422                	sw	s0,40(sp)
     cc8:	1800                	addi	s0,sp,48
     cca:	fca42e23          	sw	a0,-36(s0)
        portASSERT_IF_INTERRUPT_PRIORITY_INVALID();

        /* MISRA Ref 4.7.1 [Return value shall be checked] */
        /* More details at: https://github.com/FreeRTOS/FreeRTOS-Kernel/blob/main/MISRA.md#dir-47 */
        /* coverity[misra_c_2012_directive_4_7_violation] */
        uxSavedInterruptStatus = ( UBaseType_t ) taskENTER_CRITICAL_FROM_ISR();
     cce:	fe042423          	sw	zero,-24(s0)
        {
            /* If null is passed in here then it is the priority of the calling
             * task that is being queried. */
            pxTCB = prvGetTCBFromHandle( xTask );
     cd2:	fdc42783          	lw	a5,-36(s0)
     cd6:	e791                	bnez	a5,ce2 <uxTaskPriorityGetFromISR+0x20>
     cd8:	8281a783          	lw	a5,-2008(gp) # 20000080 <pxCurrentTCB>
     cdc:	fef42623          	sw	a5,-20(s0)
     ce0:	a029                	j	cea <uxTaskPriorityGetFromISR+0x28>
     ce2:	fdc42783          	lw	a5,-36(s0)
     ce6:	fef42623          	sw	a5,-20(s0)
            configASSERT( pxTCB != NULL );
     cea:	fec42783          	lw	a5,-20(s0)
     cee:	e781                	bnez	a5,cf6 <uxTaskPriorityGetFromISR+0x34>
     cf0:	30047073          	csrci	mstatus,8
     cf4:	a001                	j	cf4 <uxTaskPriorityGetFromISR+0x32>

            uxReturn = pxTCB->uxPriority;
     cf6:	fec42783          	lw	a5,-20(s0)
     cfa:	57dc                	lw	a5,44(a5)
     cfc:	fef42223          	sw	a5,-28(s0)
        }
        taskEXIT_CRITICAL_FROM_ISR( uxSavedInterruptStatus );

        traceRETURN_uxTaskPriorityGetFromISR( uxReturn );

        return uxReturn;
     d00:	fe442783          	lw	a5,-28(s0)
    }
     d04:	853e                	mv	a0,a5
     d06:	50b2                	lw	ra,44(sp)
     d08:	5422                	lw	s0,40(sp)
     d0a:	6145                	addi	sp,sp,48
     d0c:	8082                	ret

00000d0e <uxTaskBasePriorityGet>:
/*-----------------------------------------------------------*/

#if ( ( INCLUDE_uxTaskPriorityGet == 1 ) && ( configUSE_MUTEXES == 1 ) )

    UBaseType_t uxTaskBasePriorityGet( const TaskHandle_t xTask )
    {
     d0e:	7179                	addi	sp,sp,-48
     d10:	d606                	sw	ra,44(sp)
     d12:	d422                	sw	s0,40(sp)
     d14:	1800                	addi	s0,sp,48
     d16:	fca42e23          	sw	a0,-36(s0)
        TCB_t const * pxTCB;
        UBaseType_t uxReturn;

        traceENTER_uxTaskBasePriorityGet( xTask );

        portBASE_TYPE_ENTER_CRITICAL();
     d1a:	30047073          	csrci	mstatus,8
     d1e:	8081a783          	lw	a5,-2040(gp) # 20000060 <xCriticalNesting>
     d22:	00178713          	addi	a4,a5,1
     d26:	80e1a423          	sw	a4,-2040(gp) # 20000060 <xCriticalNesting>
        {
            /* If null is passed in here then it is the base priority of the task
             * that called uxTaskBasePriorityGet() that is being queried. */
            pxTCB = prvGetTCBFromHandle( xTask );
     d2a:	fdc42783          	lw	a5,-36(s0)
     d2e:	e791                	bnez	a5,d3a <uxTaskBasePriorityGet+0x2c>
     d30:	8281a783          	lw	a5,-2008(gp) # 20000080 <pxCurrentTCB>
     d34:	fef42623          	sw	a5,-20(s0)
     d38:	a029                	j	d42 <uxTaskBasePriorityGet+0x34>
     d3a:	fdc42783          	lw	a5,-36(s0)
     d3e:	fef42623          	sw	a5,-20(s0)
            configASSERT( pxTCB != NULL );
     d42:	fec42783          	lw	a5,-20(s0)
     d46:	e781                	bnez	a5,d4e <uxTaskBasePriorityGet+0x40>
     d48:	30047073          	csrci	mstatus,8
     d4c:	a001                	j	d4c <uxTaskBasePriorityGet+0x3e>

            uxReturn = pxTCB->uxBasePriority;
     d4e:	fec42783          	lw	a5,-20(s0)
     d52:	43fc                	lw	a5,68(a5)
     d54:	fef42423          	sw	a5,-24(s0)
        }
        portBASE_TYPE_EXIT_CRITICAL();
     d58:	8081a783          	lw	a5,-2040(gp) # 20000060 <xCriticalNesting>
     d5c:	fff78713          	addi	a4,a5,-1
     d60:	80e1a423          	sw	a4,-2040(gp) # 20000060 <xCriticalNesting>
     d64:	8081a783          	lw	a5,-2040(gp) # 20000060 <xCriticalNesting>
     d68:	e399                	bnez	a5,d6e <uxTaskBasePriorityGet+0x60>
     d6a:	30046073          	csrsi	mstatus,8

        traceRETURN_uxTaskBasePriorityGet( uxReturn );

        return uxReturn;
     d6e:	fe842783          	lw	a5,-24(s0)
    }
     d72:	853e                	mv	a0,a5
     d74:	50b2                	lw	ra,44(sp)
     d76:	5422                	lw	s0,40(sp)
     d78:	6145                	addi	sp,sp,48
     d7a:	8082                	ret

00000d7c <uxTaskBasePriorityGetFromISR>:
/*-----------------------------------------------------------*/

#if ( ( INCLUDE_uxTaskPriorityGet == 1 ) && ( configUSE_MUTEXES == 1 ) )

    UBaseType_t uxTaskBasePriorityGetFromISR( const TaskHandle_t xTask )
    {
     d7c:	7179                	addi	sp,sp,-48
     d7e:	d606                	sw	ra,44(sp)
     d80:	d422                	sw	s0,40(sp)
     d82:	1800                	addi	s0,sp,48
     d84:	fca42e23          	sw	a0,-36(s0)
        portASSERT_IF_INTERRUPT_PRIORITY_INVALID();

        /* MISRA Ref 4.7.1 [Return value shall be checked] */
        /* More details at: https://github.com/FreeRTOS/FreeRTOS-Kernel/blob/main/MISRA.md#dir-47 */
        /* coverity[misra_c_2012_directive_4_7_violation] */
        uxSavedInterruptStatus = ( UBaseType_t ) taskENTER_CRITICAL_FROM_ISR();
     d88:	fe042423          	sw	zero,-24(s0)
        {
            /* If null is passed in here then it is the base priority of the calling
             * task that is being queried. */
            pxTCB = prvGetTCBFromHandle( xTask );
     d8c:	fdc42783          	lw	a5,-36(s0)
     d90:	e791                	bnez	a5,d9c <uxTaskBasePriorityGetFromISR+0x20>
     d92:	8281a783          	lw	a5,-2008(gp) # 20000080 <pxCurrentTCB>
     d96:	fef42623          	sw	a5,-20(s0)
     d9a:	a029                	j	da4 <uxTaskBasePriorityGetFromISR+0x28>
     d9c:	fdc42783          	lw	a5,-36(s0)
     da0:	fef42623          	sw	a5,-20(s0)
            configASSERT( pxTCB != NULL );
     da4:	fec42783          	lw	a5,-20(s0)
     da8:	e781                	bnez	a5,db0 <uxTaskBasePriorityGetFromISR+0x34>
     daa:	30047073          	csrci	mstatus,8
     dae:	a001                	j	dae <uxTaskBasePriorityGetFromISR+0x32>

            uxReturn = pxTCB->uxBasePriority;
     db0:	fec42783          	lw	a5,-20(s0)
     db4:	43fc                	lw	a5,68(a5)
     db6:	fef42223          	sw	a5,-28(s0)
        }
        taskEXIT_CRITICAL_FROM_ISR( uxSavedInterruptStatus );

        traceRETURN_uxTaskBasePriorityGetFromISR( uxReturn );

        return uxReturn;
     dba:	fe442783          	lw	a5,-28(s0)
    }
     dbe:	853e                	mv	a0,a5
     dc0:	50b2                	lw	ra,44(sp)
     dc2:	5422                	lw	s0,40(sp)
     dc4:	6145                	addi	sp,sp,48
     dc6:	8082                	ret

00000dc8 <vTaskPrioritySet>:

#if ( INCLUDE_vTaskPrioritySet == 1 )

    void vTaskPrioritySet( TaskHandle_t xTask,
                           UBaseType_t uxNewPriority )
    {
     dc8:	7139                	addi	sp,sp,-64
     dca:	de06                	sw	ra,60(sp)
     dcc:	dc22                	sw	s0,56(sp)
     dce:	0080                	addi	s0,sp,64
     dd0:	fca42623          	sw	a0,-52(s0)
     dd4:	fcb42423          	sw	a1,-56(s0)
        TCB_t * pxTCB;
        UBaseType_t uxCurrentBasePriority, uxPriorityUsedOnEntry;
        BaseType_t xYieldRequired = pdFALSE;
     dd8:	fe042423          	sw	zero,-24(s0)
            BaseType_t xYieldForTask = pdFALSE;
        #endif

        traceENTER_vTaskPrioritySet( xTask, uxNewPriority );

        configASSERT( uxNewPriority < configMAX_PRIORITIES );
     ddc:	fc842703          	lw	a4,-56(s0)
     de0:	47fd                	li	a5,31
     de2:	00e7f563          	bgeu	a5,a4,dec <vTaskPrioritySet+0x24>
     de6:	30047073          	csrci	mstatus,8
     dea:	a001                	j	dea <vTaskPrioritySet+0x22>

        /* Ensure the new priority is valid. */
        if( uxNewPriority >= ( UBaseType_t ) configMAX_PRIORITIES )
     dec:	fc842703          	lw	a4,-56(s0)
     df0:	47fd                	li	a5,31
     df2:	00e7f563          	bgeu	a5,a4,dfc <vTaskPrioritySet+0x34>
        {
            uxNewPriority = ( UBaseType_t ) configMAX_PRIORITIES - ( UBaseType_t ) 1U;
     df6:	47fd                	li	a5,31
     df8:	fcf42423          	sw	a5,-56(s0)
        else
        {
            mtCOVERAGE_TEST_MARKER();
        }

        taskENTER_CRITICAL();
     dfc:	30047073          	csrci	mstatus,8
     e00:	8081a783          	lw	a5,-2040(gp) # 20000060 <xCriticalNesting>
     e04:	00178713          	addi	a4,a5,1
     e08:	80e1a423          	sw	a4,-2040(gp) # 20000060 <xCriticalNesting>
        {
            /* If null is passed in here then it is the priority of the calling
             * task that is being changed. */
            pxTCB = prvGetTCBFromHandle( xTask );
     e0c:	fcc42783          	lw	a5,-52(s0)
     e10:	e791                	bnez	a5,e1c <vTaskPrioritySet+0x54>
     e12:	8281a783          	lw	a5,-2008(gp) # 20000080 <pxCurrentTCB>
     e16:	fef42623          	sw	a5,-20(s0)
     e1a:	a029                	j	e24 <vTaskPrioritySet+0x5c>
     e1c:	fcc42783          	lw	a5,-52(s0)
     e20:	fef42623          	sw	a5,-20(s0)
            configASSERT( pxTCB != NULL );
     e24:	fec42783          	lw	a5,-20(s0)
     e28:	e781                	bnez	a5,e30 <vTaskPrioritySet+0x68>
     e2a:	30047073          	csrci	mstatus,8
     e2e:	a001                	j	e2e <vTaskPrioritySet+0x66>

            traceTASK_PRIORITY_SET( pxTCB, uxNewPriority );

            #if ( configUSE_MUTEXES == 1 )
            {
                uxCurrentBasePriority = pxTCB->uxBasePriority;
     e30:	fec42783          	lw	a5,-20(s0)
     e34:	43fc                	lw	a5,68(a5)
     e36:	fef42223          	sw	a5,-28(s0)
            {
                uxCurrentBasePriority = pxTCB->uxPriority;
            }
            #endif

            if( uxCurrentBasePriority != uxNewPriority )
     e3a:	fe442703          	lw	a4,-28(s0)
     e3e:	fc842783          	lw	a5,-56(s0)
     e42:	1af70463          	beq	a4,a5,fea <vTaskPrioritySet+0x222>
            {
                /* The priority change may have readied a task of higher
                 * priority than a running task. */
                if( uxNewPriority > uxCurrentBasePriority )
     e46:	fc842703          	lw	a4,-56(s0)
     e4a:	fe442783          	lw	a5,-28(s0)
     e4e:	02e7f363          	bgeu	a5,a4,e74 <vTaskPrioritySet+0xac>
                {
                    #if ( configNUMBER_OF_CORES == 1 )
                    {
                        if( pxTCB != pxCurrentTCB )
     e52:	8281a783          	lw	a5,-2008(gp) # 20000080 <pxCurrentTCB>
     e56:	fec42703          	lw	a4,-20(s0)
     e5a:	02f70663          	beq	a4,a5,e86 <vTaskPrioritySet+0xbe>
                        {
                            /* The priority of a task other than the currently
                             * running task is being raised.  Is the priority being
                             * raised above that of the running task? */
                            if( uxNewPriority > pxCurrentTCB->uxPriority )
     e5e:	8281a783          	lw	a5,-2008(gp) # 20000080 <pxCurrentTCB>
     e62:	57dc                	lw	a5,44(a5)
     e64:	fc842703          	lw	a4,-56(s0)
     e68:	00e7ff63          	bgeu	a5,a4,e86 <vTaskPrioritySet+0xbe>
                            {
                                xYieldRequired = pdTRUE;
     e6c:	4785                	li	a5,1
     e6e:	fef42423          	sw	a5,-24(s0)
     e72:	a811                	j	e86 <vTaskPrioritySet+0xbe>
                         * perform a yield for this task later. */
                        xYieldForTask = pdTRUE;
                    }
                    #endif /* #if ( configNUMBER_OF_CORES == 1 ) */
                }
                else if( taskTASK_IS_RUNNING( pxTCB ) == pdTRUE )
     e74:	8281a783          	lw	a5,-2008(gp) # 20000080 <pxCurrentTCB>
     e78:	fec42703          	lw	a4,-20(s0)
     e7c:	00f71563          	bne	a4,a5,e86 <vTaskPrioritySet+0xbe>
                     * is ready to execute. */
                    #if ( configUSE_TASK_PREEMPTION_DISABLE == 1 )
                        if( pxTCB->xPreemptionDisable == pdFALSE )
                    #endif
                    {
                        xYieldRequired = pdTRUE;
     e80:	4785                	li	a5,1
     e82:	fef42423          	sw	a5,-24(s0)
                }

                /* Remember the ready list the task might be referenced from
                 * before its uxPriority member is changed so the
                 * taskRESET_READY_PRIORITY() macro can function correctly. */
                uxPriorityUsedOnEntry = pxTCB->uxPriority;
     e86:	fec42783          	lw	a5,-20(s0)
     e8a:	57dc                	lw	a5,44(a5)
     e8c:	fef42023          	sw	a5,-32(s0)
                #if ( configUSE_MUTEXES == 1 )
                {
                    /* Only change the priority being used if the task is not
                     * currently using an inherited priority or the new priority
                     * is bigger than the inherited priority. */
                    if( ( pxTCB->uxBasePriority == pxTCB->uxPriority ) || ( uxNewPriority > pxTCB->uxPriority ) )
     e90:	fec42783          	lw	a5,-20(s0)
     e94:	43f8                	lw	a4,68(a5)
     e96:	fec42783          	lw	a5,-20(s0)
     e9a:	57dc                	lw	a5,44(a5)
     e9c:	00f70963          	beq	a4,a5,eae <vTaskPrioritySet+0xe6>
     ea0:	fec42783          	lw	a5,-20(s0)
     ea4:	57dc                	lw	a5,44(a5)
     ea6:	fc842703          	lw	a4,-56(s0)
     eaa:	00e7f763          	bgeu	a5,a4,eb8 <vTaskPrioritySet+0xf0>
                    {
                        pxTCB->uxPriority = uxNewPriority;
     eae:	fec42783          	lw	a5,-20(s0)
     eb2:	fc842703          	lw	a4,-56(s0)
     eb6:	d7d8                	sw	a4,44(a5)
                    {
                        mtCOVERAGE_TEST_MARKER();
                    }

                    /* The base priority gets set whatever. */
                    pxTCB->uxBasePriority = uxNewPriority;
     eb8:	fec42783          	lw	a5,-20(s0)
     ebc:	fc842703          	lw	a4,-56(s0)
     ec0:	c3f8                	sw	a4,68(a5)
                }
                #endif /* if ( configUSE_MUTEXES == 1 ) */

                /* Only reset the event list item value if the value is not
                 * being used for anything else. */
                if( ( listGET_LIST_ITEM_VALUE( &( pxTCB->xEventListItem ) ) & taskEVENT_LIST_ITEM_VALUE_IN_USE ) == ( ( TickType_t ) 0U ) )
     ec2:	fec42783          	lw	a5,-20(s0)
     ec6:	4f9c                	lw	a5,24(a5)
     ec8:	0007ca63          	bltz	a5,edc <vTaskPrioritySet+0x114>
                {
                    listSET_LIST_ITEM_VALUE( &( pxTCB->xEventListItem ), ( ( TickType_t ) configMAX_PRIORITIES - ( TickType_t ) uxNewPriority ) );
     ecc:	02000713          	li	a4,32
     ed0:	fc842783          	lw	a5,-56(s0)
     ed4:	8f1d                	sub	a4,a4,a5
     ed6:	fec42783          	lw	a5,-20(s0)
     eda:	cf98                	sw	a4,24(a5)

                /* If the task is in the blocked or suspended list we need do
                 * nothing more than change its priority variable. However, if
                 * the task is in a ready list it needs to be removed and placed
                 * in the list appropriate to its new priority. */
                if( listIS_CONTAINED_WITHIN( &( pxReadyTasksLists[ uxPriorityUsedOnEntry ] ), &( pxTCB->xStateListItem ) ) != pdFALSE )
     edc:	fec42783          	lw	a5,-20(s0)
     ee0:	4bd4                	lw	a3,20(a5)
     ee2:	fe042703          	lw	a4,-32(s0)
     ee6:	87ba                	mv	a5,a4
     ee8:	078a                	slli	a5,a5,0x2
     eea:	97ba                	add	a5,a5,a4
     eec:	078a                	slli	a5,a5,0x2
     eee:	20000737          	lui	a4,0x20000
     ef2:	0ac70713          	addi	a4,a4,172 # 200000ac <pxReadyTasksLists>
     ef6:	97ba                	add	a5,a5,a4
     ef8:	0ef69463          	bne	a3,a5,fe0 <vTaskPrioritySet+0x218>
                {
                    /* The task is currently in its ready list - remove before
                     * adding it to its new ready list.  As we are in a critical
                     * section we can do this even if the scheduler is suspended. */
                    if( uxListRemove( &( pxTCB->xStateListItem ) ) == ( UBaseType_t ) 0 )
     efc:	fec42783          	lw	a5,-20(s0)
     f00:	0791                	addi	a5,a5,4
     f02:	853e                	mv	a0,a5
     f04:	6d1020ef          	jal	3dd4 <uxListRemove>
     f08:	87aa                	mv	a5,a0
     f0a:	ef89                	bnez	a5,f24 <vTaskPrioritySet+0x15c>
                    {
                        /* It is known that the task is in its ready list so
                         * there is no need to check again and the port level
                         * reset macro can be called directly. */
                        portRESET_READY_PRIORITY( uxPriorityUsedOnEntry, uxTopReadyPriority );
     f0c:	fe042783          	lw	a5,-32(s0)
     f10:	4705                	li	a4,1
     f12:	00f717b3          	sll	a5,a4,a5
     f16:	fff7c713          	not	a4,a5
     f1a:	b4c1a783          	lw	a5,-1204(gp) # 200003a4 <uxTopReadyPriority>
     f1e:	8f7d                	and	a4,a4,a5
     f20:	b4e1a623          	sw	a4,-1204(gp) # 200003a4 <uxTopReadyPriority>
                    else
                    {
                        mtCOVERAGE_TEST_MARKER();
                    }

                    prvAddTaskToReadyList( pxTCB );
     f24:	fec42783          	lw	a5,-20(s0)
     f28:	57dc                	lw	a5,44(a5)
     f2a:	4705                	li	a4,1
     f2c:	00f71733          	sll	a4,a4,a5
     f30:	b4c1a783          	lw	a5,-1204(gp) # 200003a4 <uxTopReadyPriority>
     f34:	8f5d                	or	a4,a4,a5
     f36:	b4e1a623          	sw	a4,-1204(gp) # 200003a4 <uxTopReadyPriority>
     f3a:	fec42783          	lw	a5,-20(s0)
     f3e:	57d8                	lw	a4,44(a5)
     f40:	200007b7          	lui	a5,0x20000
     f44:	0ac78693          	addi	a3,a5,172 # 200000ac <pxReadyTasksLists>
     f48:	87ba                	mv	a5,a4
     f4a:	078a                	slli	a5,a5,0x2
     f4c:	97ba                	add	a5,a5,a4
     f4e:	078a                	slli	a5,a5,0x2
     f50:	97b6                	add	a5,a5,a3
     f52:	43dc                	lw	a5,4(a5)
     f54:	fcf42e23          	sw	a5,-36(s0)
     f58:	fec42783          	lw	a5,-20(s0)
     f5c:	fdc42703          	lw	a4,-36(s0)
     f60:	c798                	sw	a4,8(a5)
     f62:	fdc42783          	lw	a5,-36(s0)
     f66:	4798                	lw	a4,8(a5)
     f68:	fec42783          	lw	a5,-20(s0)
     f6c:	c7d8                	sw	a4,12(a5)
     f6e:	fdc42783          	lw	a5,-36(s0)
     f72:	479c                	lw	a5,8(a5)
     f74:	fec42703          	lw	a4,-20(s0)
     f78:	0711                	addi	a4,a4,4
     f7a:	c3d8                	sw	a4,4(a5)
     f7c:	fec42783          	lw	a5,-20(s0)
     f80:	00478713          	addi	a4,a5,4
     f84:	fdc42783          	lw	a5,-36(s0)
     f88:	c798                	sw	a4,8(a5)
     f8a:	fec42783          	lw	a5,-20(s0)
     f8e:	57d8                	lw	a4,44(a5)
     f90:	87ba                	mv	a5,a4
     f92:	078a                	slli	a5,a5,0x2
     f94:	97ba                	add	a5,a5,a4
     f96:	078a                	slli	a5,a5,0x2
     f98:	20000737          	lui	a4,0x20000
     f9c:	0ac70713          	addi	a4,a4,172 # 200000ac <pxReadyTasksLists>
     fa0:	973e                	add	a4,a4,a5
     fa2:	fec42783          	lw	a5,-20(s0)
     fa6:	cbd8                	sw	a4,20(a5)
     fa8:	fec42783          	lw	a5,-20(s0)
     fac:	57d8                	lw	a4,44(a5)
     fae:	200007b7          	lui	a5,0x20000
     fb2:	0ac78693          	addi	a3,a5,172 # 200000ac <pxReadyTasksLists>
     fb6:	87ba                	mv	a5,a4
     fb8:	078a                	slli	a5,a5,0x2
     fba:	97ba                	add	a5,a5,a4
     fbc:	078a                	slli	a5,a5,0x2
     fbe:	97b6                	add	a5,a5,a3
     fc0:	439c                	lw	a5,0(a5)
     fc2:	fec42703          	lw	a4,-20(s0)
     fc6:	5758                	lw	a4,44(a4)
     fc8:	00178693          	addi	a3,a5,1
     fcc:	200007b7          	lui	a5,0x20000
     fd0:	0ac78613          	addi	a2,a5,172 # 200000ac <pxReadyTasksLists>
     fd4:	87ba                	mv	a5,a4
     fd6:	078a                	slli	a5,a5,0x2
     fd8:	97ba                	add	a5,a5,a4
     fda:	078a                	slli	a5,a5,0x2
     fdc:	97b2                	add	a5,a5,a2
     fde:	c394                	sw	a3,0(a5)
                        xYieldForTask = pdFALSE;
                    }
                    #endif
                }

                if( xYieldRequired != pdFALSE )
     fe0:	fe842783          	lw	a5,-24(s0)
     fe4:	c399                	beqz	a5,fea <vTaskPrioritySet+0x222>
                {
                    /* The running task priority is set down. Request the task to yield. */
                    taskYIELD_TASK_CORE_IF_USING_PREEMPTION( pxTCB );
     fe6:	00000073          	ecall
                /* Remove compiler warning about unused variables when the port
                 * optimised task selection is not being used. */
                ( void ) uxPriorityUsedOnEntry;
            }
        }
        taskEXIT_CRITICAL();
     fea:	8081a783          	lw	a5,-2040(gp) # 20000060 <xCriticalNesting>
     fee:	fff78713          	addi	a4,a5,-1
     ff2:	80e1a423          	sw	a4,-2040(gp) # 20000060 <xCriticalNesting>
     ff6:	8081a783          	lw	a5,-2040(gp) # 20000060 <xCriticalNesting>
     ffa:	e399                	bnez	a5,1000 <vTaskPrioritySet+0x238>
     ffc:	30046073          	csrsi	mstatus,8

        traceRETURN_vTaskPrioritySet();
    }
    1000:	0001                	nop
    1002:	50f2                	lw	ra,60(sp)
    1004:	5462                	lw	s0,56(sp)
    1006:	6121                	addi	sp,sp,64
    1008:	8082                	ret

0000100a <vTaskSuspend>:
/*-----------------------------------------------------------*/

#if ( INCLUDE_vTaskSuspend == 1 )

    void vTaskSuspend( TaskHandle_t xTaskToSuspend )
    {
    100a:	7179                	addi	sp,sp,-48
    100c:	d606                	sw	ra,44(sp)
    100e:	d422                	sw	s0,40(sp)
    1010:	1800                	addi	s0,sp,48
    1012:	fca42e23          	sw	a0,-36(s0)
        TCB_t * pxTCB;

        traceENTER_vTaskSuspend( xTaskToSuspend );

        taskENTER_CRITICAL();
    1016:	30047073          	csrci	mstatus,8
    101a:	8081a783          	lw	a5,-2040(gp) # 20000060 <xCriticalNesting>
    101e:	00178713          	addi	a4,a5,1
    1022:	80e1a423          	sw	a4,-2040(gp) # 20000060 <xCriticalNesting>
        {
            /* If null is passed in here then it is the running task that is
             * being suspended. */
            pxTCB = prvGetTCBFromHandle( xTaskToSuspend );
    1026:	fdc42783          	lw	a5,-36(s0)
    102a:	e791                	bnez	a5,1036 <vTaskSuspend+0x2c>
    102c:	8281a783          	lw	a5,-2008(gp) # 20000080 <pxCurrentTCB>
    1030:	fef42623          	sw	a5,-20(s0)
    1034:	a029                	j	103e <vTaskSuspend+0x34>
    1036:	fdc42783          	lw	a5,-36(s0)
    103a:	fef42623          	sw	a5,-20(s0)
            configASSERT( pxTCB != NULL );
    103e:	fec42783          	lw	a5,-20(s0)
    1042:	e781                	bnez	a5,104a <vTaskSuspend+0x40>
    1044:	30047073          	csrci	mstatus,8
    1048:	a001                	j	1048 <vTaskSuspend+0x3e>

            traceTASK_SUSPEND( pxTCB );

            /* Remove task from the ready/delayed list and place in the
             * suspended list. */
            if( uxListRemove( &( pxTCB->xStateListItem ) ) == ( UBaseType_t ) 0 )
    104a:	fec42783          	lw	a5,-20(s0)
    104e:	0791                	addi	a5,a5,4
    1050:	853e                	mv	a0,a5
    1052:	583020ef          	jal	3dd4 <uxListRemove>
    1056:	87aa                	mv	a5,a0
    1058:	ef85                	bnez	a5,1090 <vTaskSuspend+0x86>
            {
                taskRESET_READY_PRIORITY( pxTCB->uxPriority );
    105a:	fec42783          	lw	a5,-20(s0)
    105e:	57d8                	lw	a4,44(a5)
    1060:	200007b7          	lui	a5,0x20000
    1064:	0ac78693          	addi	a3,a5,172 # 200000ac <pxReadyTasksLists>
    1068:	87ba                	mv	a5,a4
    106a:	078a                	slli	a5,a5,0x2
    106c:	97ba                	add	a5,a5,a4
    106e:	078a                	slli	a5,a5,0x2
    1070:	97b6                	add	a5,a5,a3
    1072:	439c                	lw	a5,0(a5)
    1074:	ef91                	bnez	a5,1090 <vTaskSuspend+0x86>
    1076:	fec42783          	lw	a5,-20(s0)
    107a:	57dc                	lw	a5,44(a5)
    107c:	4705                	li	a4,1
    107e:	00f717b3          	sll	a5,a4,a5
    1082:	fff7c713          	not	a4,a5
    1086:	b4c1a783          	lw	a5,-1204(gp) # 200003a4 <uxTopReadyPriority>
    108a:	8f7d                	and	a4,a4,a5
    108c:	b4e1a623          	sw	a4,-1204(gp) # 200003a4 <uxTopReadyPriority>
            {
                mtCOVERAGE_TEST_MARKER();
            }

            /* Is the task waiting on an event also? */
            if( listLIST_ITEM_CONTAINER( &( pxTCB->xEventListItem ) ) != NULL )
    1090:	fec42783          	lw	a5,-20(s0)
    1094:	579c                	lw	a5,40(a5)
    1096:	c799                	beqz	a5,10a4 <vTaskSuspend+0x9a>
            {
                ( void ) uxListRemove( &( pxTCB->xEventListItem ) );
    1098:	fec42783          	lw	a5,-20(s0)
    109c:	07e1                	addi	a5,a5,24
    109e:	853e                	mv	a0,a5
    10a0:	535020ef          	jal	3dd4 <uxListRemove>
            else
            {
                mtCOVERAGE_TEST_MARKER();
            }

            vListInsertEnd( &xSuspendedTaskList, &( pxTCB->xStateListItem ) );
    10a4:	fec42783          	lw	a5,-20(s0)
    10a8:	0791                	addi	a5,a5,4
    10aa:	85be                	mv	a1,a5
    10ac:	b3018513          	addi	a0,gp,-1232 # 20000388 <xSuspendedTaskList>
    10b0:	415020ef          	jal	3cc4 <vListInsertEnd>

            #if ( configUSE_TASK_NOTIFICATIONS == 1 )
            {
                BaseType_t x;

                for( x = ( BaseType_t ) 0; x < ( BaseType_t ) configTASK_NOTIFICATION_ARRAY_ENTRIES; x++ )
    10b4:	fe042423          	sw	zero,-24(s0)
    10b8:	a80d                	j	10ea <vTaskSuspend+0xe0>
                {
                    if( pxTCB->ucNotifyState[ x ] == taskWAITING_NOTIFICATION )
    10ba:	fec42703          	lw	a4,-20(s0)
    10be:	fe842783          	lw	a5,-24(s0)
    10c2:	97ba                	add	a5,a5,a4
    10c4:	0547c783          	lbu	a5,84(a5)
    10c8:	0ff7f713          	zext.b	a4,a5
    10cc:	4785                	li	a5,1
    10ce:	00f71963          	bne	a4,a5,10e0 <vTaskSuspend+0xd6>
                    {
                        /* The task was blocked to wait for a notification, but is
                         * now suspended, so no notification was received. */
                        pxTCB->ucNotifyState[ x ] = taskNOT_WAITING_NOTIFICATION;
    10d2:	fec42703          	lw	a4,-20(s0)
    10d6:	fe842783          	lw	a5,-24(s0)
    10da:	97ba                	add	a5,a5,a4
    10dc:	04078a23          	sb	zero,84(a5)
                for( x = ( BaseType_t ) 0; x < ( BaseType_t ) configTASK_NOTIFICATION_ARRAY_ENTRIES; x++ )
    10e0:	fe842783          	lw	a5,-24(s0)
    10e4:	0785                	addi	a5,a5,1
    10e6:	fef42423          	sw	a5,-24(s0)
    10ea:	fe842783          	lw	a5,-24(s0)
    10ee:	fcf056e3          	blez	a5,10ba <vTaskSuspend+0xb0>
                    mtCOVERAGE_TEST_MARKER();
                }
            }
            #endif /* #if ( configNUMBER_OF_CORES > 1 ) */
        }
        taskEXIT_CRITICAL();
    10f2:	8081a783          	lw	a5,-2040(gp) # 20000060 <xCriticalNesting>
    10f6:	fff78713          	addi	a4,a5,-1
    10fa:	80e1a423          	sw	a4,-2040(gp) # 20000060 <xCriticalNesting>
    10fe:	8081a783          	lw	a5,-2040(gp) # 20000060 <xCriticalNesting>
    1102:	e399                	bnez	a5,1108 <vTaskSuspend+0xfe>
    1104:	30046073          	csrsi	mstatus,8

        #if ( configNUMBER_OF_CORES == 1 )
        {
            UBaseType_t uxCurrentListLength;

            if( xSchedulerRunning != pdFALSE )
    1108:	b501a783          	lw	a5,-1200(gp) # 200003a8 <xSchedulerRunning>
    110c:	c795                	beqz	a5,1138 <vTaskSuspend+0x12e>
            {
                /* Reset the next expected unblock time in case it referred to the
                 * task that is now in the Suspended state. */
                taskENTER_CRITICAL();
    110e:	30047073          	csrci	mstatus,8
    1112:	8081a783          	lw	a5,-2040(gp) # 20000060 <xCriticalNesting>
    1116:	00178713          	addi	a4,a5,1
    111a:	80e1a423          	sw	a4,-2040(gp) # 20000060 <xCriticalNesting>
                {
                    prvResetNextTaskUnblockTime();
    111e:	72c010ef          	jal	284a <prvResetNextTaskUnblockTime>
                }
                taskEXIT_CRITICAL();
    1122:	8081a783          	lw	a5,-2040(gp) # 20000060 <xCriticalNesting>
    1126:	fff78713          	addi	a4,a5,-1
    112a:	80e1a423          	sw	a4,-2040(gp) # 20000060 <xCriticalNesting>
    112e:	8081a783          	lw	a5,-2040(gp) # 20000060 <xCriticalNesting>
    1132:	e399                	bnez	a5,1138 <vTaskSuspend+0x12e>
    1134:	30046073          	csrsi	mstatus,8
            else
            {
                mtCOVERAGE_TEST_MARKER();
            }

            if( pxTCB == pxCurrentTCB )
    1138:	8281a783          	lw	a5,-2008(gp) # 20000080 <pxCurrentTCB>
    113c:	fec42703          	lw	a4,-20(s0)
    1140:	02f71e63          	bne	a4,a5,117c <vTaskSuspend+0x172>
            {
                if( xSchedulerRunning != pdFALSE )
    1144:	b501a783          	lw	a5,-1200(gp) # 200003a8 <xSchedulerRunning>
    1148:	cb91                	beqz	a5,115c <vTaskSuspend+0x152>
                {
                    /* The current task has just been suspended. */
                    configASSERT( uxSchedulerSuspended == 0 );
    114a:	b6c1a783          	lw	a5,-1172(gp) # 200003c4 <uxSchedulerSuspended>
    114e:	c781                	beqz	a5,1156 <vTaskSuspend+0x14c>
    1150:	30047073          	csrci	mstatus,8
    1154:	a001                	j	1154 <vTaskSuspend+0x14a>
                    portYIELD_WITHIN_API();
    1156:	00000073          	ecall
            }
        }
        #endif /* #if ( configNUMBER_OF_CORES == 1 ) */

        traceRETURN_vTaskSuspend();
    }
    115a:	a00d                	j	117c <vTaskSuspend+0x172>
                    uxCurrentListLength = listCURRENT_LIST_LENGTH( &xSuspendedTaskList );
    115c:	b3018793          	addi	a5,gp,-1232 # 20000388 <xSuspendedTaskList>
    1160:	439c                	lw	a5,0(a5)
    1162:	fef42223          	sw	a5,-28(s0)
                    if( uxCurrentListLength == uxCurrentNumberOfTasks )
    1166:	b441a783          	lw	a5,-1212(gp) # 2000039c <uxCurrentNumberOfTasks>
    116a:	fe442703          	lw	a4,-28(s0)
    116e:	00f71563          	bne	a4,a5,1178 <vTaskSuspend+0x16e>
                        pxCurrentTCB = NULL;
    1172:	8201a423          	sw	zero,-2008(gp) # 20000080 <pxCurrentTCB>
    }
    1176:	a019                	j	117c <vTaskSuspend+0x172>
                        vTaskSwitchContext();
    1178:	523000ef          	jal	1e9a <vTaskSwitchContext>
    }
    117c:	0001                	nop
    117e:	50b2                	lw	ra,44(sp)
    1180:	5422                	lw	s0,40(sp)
    1182:	6145                	addi	sp,sp,48
    1184:	8082                	ret

00001186 <prvTaskIsTaskSuspended>:
/*-----------------------------------------------------------*/

#if ( INCLUDE_vTaskSuspend == 1 )

    static BaseType_t prvTaskIsTaskSuspended( const TaskHandle_t xTask )
    {
    1186:	7179                	addi	sp,sp,-48
    1188:	d606                	sw	ra,44(sp)
    118a:	d422                	sw	s0,40(sp)
    118c:	1800                	addi	s0,sp,48
    118e:	fca42e23          	sw	a0,-36(s0)
        BaseType_t xReturn = pdFALSE;
    1192:	fe042623          	sw	zero,-20(s0)
        const TCB_t * const pxTCB = xTask;
    1196:	fdc42783          	lw	a5,-36(s0)
    119a:	fef42223          	sw	a5,-28(s0)

        /* Accesses xPendingReadyList so must be called from a critical
         * section. */

        /* It does not make sense to check if the calling task is suspended. */
        configASSERT( xTask );
    119e:	fdc42783          	lw	a5,-36(s0)
    11a2:	e781                	bnez	a5,11aa <prvTaskIsTaskSuspended+0x24>
    11a4:	30047073          	csrci	mstatus,8
    11a8:	a001                	j	11a8 <prvTaskIsTaskSuspended+0x22>

        /* Is the task being resumed actually in the suspended list? */
        if( listIS_CONTAINED_WITHIN( &xSuspendedTaskList, &( pxTCB->xStateListItem ) ) != pdFALSE )
    11aa:	fe442783          	lw	a5,-28(s0)
    11ae:	4bd8                	lw	a4,20(a5)
    11b0:	b3018793          	addi	a5,gp,-1232 # 20000388 <xSuspendedTaskList>
    11b4:	04f71b63          	bne	a4,a5,120a <prvTaskIsTaskSuspended+0x84>
        {
            /* Has the task already been resumed from within an ISR? */
            if( listIS_CONTAINED_WITHIN( &xPendingReadyList, &( pxTCB->xEventListItem ) ) == pdFALSE )
    11b8:	fe442783          	lw	a5,-28(s0)
    11bc:	5798                	lw	a4,40(a5)
    11be:	b0418793          	addi	a5,gp,-1276 # 2000035c <xPendingReadyList>
    11c2:	04f70463          	beq	a4,a5,120a <prvTaskIsTaskSuspended+0x84>
            {
                /* Is it in the suspended list because it is in the Suspended
                 * state, or because it is blocked with no timeout? */
                if( listIS_CONTAINED_WITHIN( NULL, &( pxTCB->xEventListItem ) ) != pdFALSE )
    11c6:	fe442783          	lw	a5,-28(s0)
    11ca:	579c                	lw	a5,40(a5)
    11cc:	ef9d                	bnez	a5,120a <prvTaskIsTaskSuspended+0x84>
                        /* The task does not appear on the event list item of
                         * and of the RTOS objects, but could still be in the
                         * blocked state if it is waiting on its notification
                         * rather than waiting on an object.  If not, is
                         * suspended. */
                        xReturn = pdTRUE;
    11ce:	4785                	li	a5,1
    11d0:	fef42623          	sw	a5,-20(s0)

                        for( x = ( BaseType_t ) 0; x < ( BaseType_t ) configTASK_NOTIFICATION_ARRAY_ENTRIES; x++ )
    11d4:	fe042423          	sw	zero,-24(s0)
    11d8:	a02d                	j	1202 <prvTaskIsTaskSuspended+0x7c>
                        {
                            if( pxTCB->ucNotifyState[ x ] == taskWAITING_NOTIFICATION )
    11da:	fe442703          	lw	a4,-28(s0)
    11de:	fe842783          	lw	a5,-24(s0)
    11e2:	97ba                	add	a5,a5,a4
    11e4:	0547c783          	lbu	a5,84(a5)
    11e8:	0ff7f713          	zext.b	a4,a5
    11ec:	4785                	li	a5,1
    11ee:	00f71563          	bne	a4,a5,11f8 <prvTaskIsTaskSuspended+0x72>
                            {
                                xReturn = pdFALSE;
    11f2:	fe042623          	sw	zero,-20(s0)
                                break;
    11f6:	a811                	j	120a <prvTaskIsTaskSuspended+0x84>
                        for( x = ( BaseType_t ) 0; x < ( BaseType_t ) configTASK_NOTIFICATION_ARRAY_ENTRIES; x++ )
    11f8:	fe842783          	lw	a5,-24(s0)
    11fc:	0785                	addi	a5,a5,1
    11fe:	fef42423          	sw	a5,-24(s0)
    1202:	fe842783          	lw	a5,-24(s0)
    1206:	fcf05ae3          	blez	a5,11da <prvTaskIsTaskSuspended+0x54>
        else
        {
            mtCOVERAGE_TEST_MARKER();
        }

        return xReturn;
    120a:	fec42783          	lw	a5,-20(s0)
    }
    120e:	853e                	mv	a0,a5
    1210:	50b2                	lw	ra,44(sp)
    1212:	5422                	lw	s0,40(sp)
    1214:	6145                	addi	sp,sp,48
    1216:	8082                	ret

00001218 <vTaskResume>:
/*-----------------------------------------------------------*/

#if ( INCLUDE_vTaskSuspend == 1 )

    void vTaskResume( TaskHandle_t xTaskToResume )
    {
    1218:	7179                	addi	sp,sp,-48
    121a:	d606                	sw	ra,44(sp)
    121c:	d422                	sw	s0,40(sp)
    121e:	1800                	addi	s0,sp,48
    1220:	fca42e23          	sw	a0,-36(s0)
        TCB_t * const pxTCB = xTaskToResume;
    1224:	fdc42783          	lw	a5,-36(s0)
    1228:	fef42623          	sw	a5,-20(s0)

        traceENTER_vTaskResume( xTaskToResume );

        /* It does not make sense to resume the calling task. */
        configASSERT( xTaskToResume );
    122c:	fdc42783          	lw	a5,-36(s0)
    1230:	e781                	bnez	a5,1238 <vTaskResume+0x20>
    1232:	30047073          	csrci	mstatus,8
    1236:	a001                	j	1236 <vTaskResume+0x1e>

        #if ( configNUMBER_OF_CORES == 1 )

            /* The parameter cannot be NULL as it is impossible to resume the
             * currently executing task. */
            if( ( pxTCB != pxCurrentTCB ) && ( pxTCB != NULL ) )
    1238:	8281a783          	lw	a5,-2008(gp) # 20000080 <pxCurrentTCB>
    123c:	fec42703          	lw	a4,-20(s0)
    1240:	10f70c63          	beq	a4,a5,1358 <vTaskResume+0x140>
    1244:	fec42783          	lw	a5,-20(s0)
    1248:	10078863          	beqz	a5,1358 <vTaskResume+0x140>
             * to check their run state here. Therefore, we get into a critical
             * section and check if the task is actually suspended or not. */
            if( pxTCB != NULL )
        #endif
        {
            taskENTER_CRITICAL();
    124c:	30047073          	csrci	mstatus,8
    1250:	8081a783          	lw	a5,-2040(gp) # 20000060 <xCriticalNesting>
    1254:	00178713          	addi	a4,a5,1
    1258:	80e1a423          	sw	a4,-2040(gp) # 20000060 <xCriticalNesting>
            {
                if( prvTaskIsTaskSuspended( pxTCB ) != pdFALSE )
    125c:	fec42503          	lw	a0,-20(s0)
    1260:	371d                	jal	1186 <prvTaskIsTaskSuspended>
    1262:	87aa                	mv	a5,a0
    1264:	cff9                	beqz	a5,1342 <vTaskResume+0x12a>
                {
                    traceTASK_RESUME( pxTCB );

                    /* The ready list can be accessed even if the scheduler is
                     * suspended because this is inside a critical section. */
                    ( void ) uxListRemove( &( pxTCB->xStateListItem ) );
    1266:	fec42783          	lw	a5,-20(s0)
    126a:	0791                	addi	a5,a5,4
    126c:	853e                	mv	a0,a5
    126e:	367020ef          	jal	3dd4 <uxListRemove>
                    prvAddTaskToReadyList( pxTCB );
    1272:	fec42783          	lw	a5,-20(s0)
    1276:	57dc                	lw	a5,44(a5)
    1278:	4705                	li	a4,1
    127a:	00f71733          	sll	a4,a4,a5
    127e:	b4c1a783          	lw	a5,-1204(gp) # 200003a4 <uxTopReadyPriority>
    1282:	8f5d                	or	a4,a4,a5
    1284:	b4e1a623          	sw	a4,-1204(gp) # 200003a4 <uxTopReadyPriority>
    1288:	fec42783          	lw	a5,-20(s0)
    128c:	57d8                	lw	a4,44(a5)
    128e:	200007b7          	lui	a5,0x20000
    1292:	0ac78693          	addi	a3,a5,172 # 200000ac <pxReadyTasksLists>
    1296:	87ba                	mv	a5,a4
    1298:	078a                	slli	a5,a5,0x2
    129a:	97ba                	add	a5,a5,a4
    129c:	078a                	slli	a5,a5,0x2
    129e:	97b6                	add	a5,a5,a3
    12a0:	43dc                	lw	a5,4(a5)
    12a2:	fef42423          	sw	a5,-24(s0)
    12a6:	fec42783          	lw	a5,-20(s0)
    12aa:	fe842703          	lw	a4,-24(s0)
    12ae:	c798                	sw	a4,8(a5)
    12b0:	fe842783          	lw	a5,-24(s0)
    12b4:	4798                	lw	a4,8(a5)
    12b6:	fec42783          	lw	a5,-20(s0)
    12ba:	c7d8                	sw	a4,12(a5)
    12bc:	fe842783          	lw	a5,-24(s0)
    12c0:	479c                	lw	a5,8(a5)
    12c2:	fec42703          	lw	a4,-20(s0)
    12c6:	0711                	addi	a4,a4,4
    12c8:	c3d8                	sw	a4,4(a5)
    12ca:	fec42783          	lw	a5,-20(s0)
    12ce:	00478713          	addi	a4,a5,4
    12d2:	fe842783          	lw	a5,-24(s0)
    12d6:	c798                	sw	a4,8(a5)
    12d8:	fec42783          	lw	a5,-20(s0)
    12dc:	57d8                	lw	a4,44(a5)
    12de:	87ba                	mv	a5,a4
    12e0:	078a                	slli	a5,a5,0x2
    12e2:	97ba                	add	a5,a5,a4
    12e4:	078a                	slli	a5,a5,0x2
    12e6:	20000737          	lui	a4,0x20000
    12ea:	0ac70713          	addi	a4,a4,172 # 200000ac <pxReadyTasksLists>
    12ee:	973e                	add	a4,a4,a5
    12f0:	fec42783          	lw	a5,-20(s0)
    12f4:	cbd8                	sw	a4,20(a5)
    12f6:	fec42783          	lw	a5,-20(s0)
    12fa:	57d8                	lw	a4,44(a5)
    12fc:	200007b7          	lui	a5,0x20000
    1300:	0ac78693          	addi	a3,a5,172 # 200000ac <pxReadyTasksLists>
    1304:	87ba                	mv	a5,a4
    1306:	078a                	slli	a5,a5,0x2
    1308:	97ba                	add	a5,a5,a4
    130a:	078a                	slli	a5,a5,0x2
    130c:	97b6                	add	a5,a5,a3
    130e:	439c                	lw	a5,0(a5)
    1310:	fec42703          	lw	a4,-20(s0)
    1314:	5758                	lw	a4,44(a4)
    1316:	00178693          	addi	a3,a5,1
    131a:	200007b7          	lui	a5,0x20000
    131e:	0ac78613          	addi	a2,a5,172 # 200000ac <pxReadyTasksLists>
    1322:	87ba                	mv	a5,a4
    1324:	078a                	slli	a5,a5,0x2
    1326:	97ba                	add	a5,a5,a4
    1328:	078a                	slli	a5,a5,0x2
    132a:	97b2                	add	a5,a5,a2
    132c:	c394                	sw	a3,0(a5)

                    /* This yield may not cause the task just resumed to run,
                     * but will leave the lists in the correct state for the
                     * next yield. */
                    taskYIELD_ANY_CORE_IF_USING_PREEMPTION( pxTCB );
    132e:	8281a783          	lw	a5,-2008(gp) # 20000080 <pxCurrentTCB>
    1332:	57d8                	lw	a4,44(a5)
    1334:	fec42783          	lw	a5,-20(s0)
    1338:	57dc                	lw	a5,44(a5)
    133a:	00f77463          	bgeu	a4,a5,1342 <vTaskResume+0x12a>
    133e:	00000073          	ecall
                else
                {
                    mtCOVERAGE_TEST_MARKER();
                }
            }
            taskEXIT_CRITICAL();
    1342:	8081a783          	lw	a5,-2040(gp) # 20000060 <xCriticalNesting>
    1346:	fff78713          	addi	a4,a5,-1
    134a:	80e1a423          	sw	a4,-2040(gp) # 20000060 <xCriticalNesting>
    134e:	8081a783          	lw	a5,-2040(gp) # 20000060 <xCriticalNesting>
    1352:	e399                	bnez	a5,1358 <vTaskResume+0x140>
    1354:	30046073          	csrsi	mstatus,8
        {
            mtCOVERAGE_TEST_MARKER();
        }

        traceRETURN_vTaskResume();
    }
    1358:	0001                	nop
    135a:	50b2                	lw	ra,44(sp)
    135c:	5422                	lw	s0,40(sp)
    135e:	6145                	addi	sp,sp,48
    1360:	8082                	ret

00001362 <xTaskResumeFromISR>:
/*-----------------------------------------------------------*/

#if ( ( INCLUDE_xTaskResumeFromISR == 1 ) && ( INCLUDE_vTaskSuspend == 1 ) )

    BaseType_t xTaskResumeFromISR( TaskHandle_t xTaskToResume )
    {
    1362:	7179                	addi	sp,sp,-48
    1364:	d606                	sw	ra,44(sp)
    1366:	d422                	sw	s0,40(sp)
    1368:	1800                	addi	s0,sp,48
    136a:	fca42e23          	sw	a0,-36(s0)
        BaseType_t xYieldRequired = pdFALSE;
    136e:	fe042623          	sw	zero,-20(s0)
        TCB_t * const pxTCB = xTaskToResume;
    1372:	fdc42783          	lw	a5,-36(s0)
    1376:	fef42423          	sw	a5,-24(s0)
        UBaseType_t uxSavedInterruptStatus;

        traceENTER_xTaskResumeFromISR( xTaskToResume );

        configASSERT( xTaskToResume );
    137a:	fdc42783          	lw	a5,-36(s0)
    137e:	e781                	bnez	a5,1386 <xTaskResumeFromISR+0x24>
    1380:	30047073          	csrci	mstatus,8
    1384:	a001                	j	1384 <xTaskResumeFromISR+0x22>
        portASSERT_IF_INTERRUPT_PRIORITY_INVALID();

        /* MISRA Ref 4.7.1 [Return value shall be checked] */
        /* More details at: https://github.com/FreeRTOS/FreeRTOS-Kernel/blob/main/MISRA.md#dir-47 */
        /* coverity[misra_c_2012_directive_4_7_violation] */
        uxSavedInterruptStatus = taskENTER_CRITICAL_FROM_ISR();
    1386:	fe042223          	sw	zero,-28(s0)
        {
            if( prvTaskIsTaskSuspended( pxTCB ) != pdFALSE )
    138a:	fe842503          	lw	a0,-24(s0)
    138e:	3be5                	jal	1186 <prvTaskIsTaskSuspended>
    1390:	87aa                	mv	a5,a0
    1392:	10078063          	beqz	a5,1492 <xTaskResumeFromISR+0x130>
            {
                traceTASK_RESUME_FROM_ISR( pxTCB );

                /* Check the ready lists can be accessed. */
                if( uxSchedulerSuspended == ( UBaseType_t ) 0U )
    1396:	b6c1a783          	lw	a5,-1172(gp) # 200003c4 <uxSchedulerSuspended>
    139a:	e7e5                	bnez	a5,1482 <xTaskResumeFromISR+0x120>
                {
                    #if ( configNUMBER_OF_CORES == 1 )
                    {
                        /* Ready lists can be accessed so move the task from the
                         * suspended list to the ready list directly. */
                        if( pxTCB->uxPriority > pxCurrentTCB->uxPriority )
    139c:	fe842783          	lw	a5,-24(s0)
    13a0:	57d8                	lw	a4,44(a5)
    13a2:	8281a783          	lw	a5,-2008(gp) # 20000080 <pxCurrentTCB>
    13a6:	57dc                	lw	a5,44(a5)
    13a8:	00e7f863          	bgeu	a5,a4,13b8 <xTaskResumeFromISR+0x56>
                        {
                            xYieldRequired = pdTRUE;
    13ac:	4785                	li	a5,1
    13ae:	fef42623          	sw	a5,-20(s0)

                            /* Mark that a yield is pending in case the user is not
                             * using the return value to initiate a context switch
                             * from the ISR using the port specific portYIELD_FROM_ISR(). */
                            xYieldPendings[ 0 ] = pdTRUE;
    13b2:	4705                	li	a4,1
    13b4:	b4e1ac23          	sw	a4,-1192(gp) # 200003b0 <xYieldPendings>
                            mtCOVERAGE_TEST_MARKER();
                        }
                    }
                    #endif /* #if ( configNUMBER_OF_CORES == 1 ) */

                    ( void ) uxListRemove( &( pxTCB->xStateListItem ) );
    13b8:	fe842783          	lw	a5,-24(s0)
    13bc:	0791                	addi	a5,a5,4
    13be:	853e                	mv	a0,a5
    13c0:	215020ef          	jal	3dd4 <uxListRemove>
                    prvAddTaskToReadyList( pxTCB );
    13c4:	fe842783          	lw	a5,-24(s0)
    13c8:	57dc                	lw	a5,44(a5)
    13ca:	4705                	li	a4,1
    13cc:	00f71733          	sll	a4,a4,a5
    13d0:	b4c1a783          	lw	a5,-1204(gp) # 200003a4 <uxTopReadyPriority>
    13d4:	8f5d                	or	a4,a4,a5
    13d6:	b4e1a623          	sw	a4,-1204(gp) # 200003a4 <uxTopReadyPriority>
    13da:	fe842783          	lw	a5,-24(s0)
    13de:	57d8                	lw	a4,44(a5)
    13e0:	200007b7          	lui	a5,0x20000
    13e4:	0ac78693          	addi	a3,a5,172 # 200000ac <pxReadyTasksLists>
    13e8:	87ba                	mv	a5,a4
    13ea:	078a                	slli	a5,a5,0x2
    13ec:	97ba                	add	a5,a5,a4
    13ee:	078a                	slli	a5,a5,0x2
    13f0:	97b6                	add	a5,a5,a3
    13f2:	43dc                	lw	a5,4(a5)
    13f4:	fef42023          	sw	a5,-32(s0)
    13f8:	fe842783          	lw	a5,-24(s0)
    13fc:	fe042703          	lw	a4,-32(s0)
    1400:	c798                	sw	a4,8(a5)
    1402:	fe042783          	lw	a5,-32(s0)
    1406:	4798                	lw	a4,8(a5)
    1408:	fe842783          	lw	a5,-24(s0)
    140c:	c7d8                	sw	a4,12(a5)
    140e:	fe042783          	lw	a5,-32(s0)
    1412:	479c                	lw	a5,8(a5)
    1414:	fe842703          	lw	a4,-24(s0)
    1418:	0711                	addi	a4,a4,4
    141a:	c3d8                	sw	a4,4(a5)
    141c:	fe842783          	lw	a5,-24(s0)
    1420:	00478713          	addi	a4,a5,4
    1424:	fe042783          	lw	a5,-32(s0)
    1428:	c798                	sw	a4,8(a5)
    142a:	fe842783          	lw	a5,-24(s0)
    142e:	57d8                	lw	a4,44(a5)
    1430:	87ba                	mv	a5,a4
    1432:	078a                	slli	a5,a5,0x2
    1434:	97ba                	add	a5,a5,a4
    1436:	078a                	slli	a5,a5,0x2
    1438:	20000737          	lui	a4,0x20000
    143c:	0ac70713          	addi	a4,a4,172 # 200000ac <pxReadyTasksLists>
    1440:	973e                	add	a4,a4,a5
    1442:	fe842783          	lw	a5,-24(s0)
    1446:	cbd8                	sw	a4,20(a5)
    1448:	fe842783          	lw	a5,-24(s0)
    144c:	57d8                	lw	a4,44(a5)
    144e:	200007b7          	lui	a5,0x20000
    1452:	0ac78693          	addi	a3,a5,172 # 200000ac <pxReadyTasksLists>
    1456:	87ba                	mv	a5,a4
    1458:	078a                	slli	a5,a5,0x2
    145a:	97ba                	add	a5,a5,a4
    145c:	078a                	slli	a5,a5,0x2
    145e:	97b6                	add	a5,a5,a3
    1460:	439c                	lw	a5,0(a5)
    1462:	fe842703          	lw	a4,-24(s0)
    1466:	5758                	lw	a4,44(a4)
    1468:	00178693          	addi	a3,a5,1
    146c:	200007b7          	lui	a5,0x20000
    1470:	0ac78613          	addi	a2,a5,172 # 200000ac <pxReadyTasksLists>
    1474:	87ba                	mv	a5,a4
    1476:	078a                	slli	a5,a5,0x2
    1478:	97ba                	add	a5,a5,a4
    147a:	078a                	slli	a5,a5,0x2
    147c:	97b2                	add	a5,a5,a2
    147e:	c394                	sw	a3,0(a5)
    1480:	a809                	j	1492 <xTaskResumeFromISR+0x130>
                else
                {
                    /* The delayed or ready lists cannot be accessed so the task
                     * is held in the pending ready list until the scheduler is
                     * unsuspended. */
                    vListInsertEnd( &( xPendingReadyList ), &( pxTCB->xEventListItem ) );
    1482:	fe842783          	lw	a5,-24(s0)
    1486:	07e1                	addi	a5,a5,24
    1488:	85be                	mv	a1,a5
    148a:	b0418513          	addi	a0,gp,-1276 # 2000035c <xPendingReadyList>
    148e:	037020ef          	jal	3cc4 <vListInsertEnd>
        }
        taskEXIT_CRITICAL_FROM_ISR( uxSavedInterruptStatus );

        traceRETURN_xTaskResumeFromISR( xYieldRequired );

        return xYieldRequired;
    1492:	fec42783          	lw	a5,-20(s0)
    }
    1496:	853e                	mv	a0,a5
    1498:	50b2                	lw	ra,44(sp)
    149a:	5422                	lw	s0,40(sp)
    149c:	6145                	addi	sp,sp,48
    149e:	8082                	ret

000014a0 <prvCreateIdleTasks>:

#endif /* ( ( INCLUDE_xTaskResumeFromISR == 1 ) && ( INCLUDE_vTaskSuspend == 1 ) ) */
/*-----------------------------------------------------------*/

static BaseType_t prvCreateIdleTasks( void )
{
    14a0:	7139                	addi	sp,sp,-64
    14a2:	de06                	sw	ra,60(sp)
    14a4:	dc22                	sw	s0,56(sp)
    14a6:	0080                	addi	s0,sp,64
    BaseType_t xReturn = pdPASS;
    14a8:	4785                	li	a5,1
    14aa:	fef42623          	sw	a5,-20(s0)
    BaseType_t xCoreID;
    char cIdleName[ configMAX_TASK_NAME_LEN ] = { 0 };
    14ae:	fc042823          	sw	zero,-48(s0)
    14b2:	fc042a23          	sw	zero,-44(s0)
    14b6:	fc042c23          	sw	zero,-40(s0)
    14ba:	fc042e23          	sw	zero,-36(s0)
    TaskFunction_t pxIdleTaskFunction = NULL;
    14be:	fe042023          	sw	zero,-32(s0)
    UBaseType_t xIdleTaskNameIndex;

    /* MISRA Ref 14.3.1 [Configuration dependent invariant] */
    /* More details at: https://github.com/FreeRTOS/FreeRTOS-Kernel/blob/main/MISRA.md#rule-143. */
    /* coverity[misra_c_2012_rule_14_3_violation] */
    for( xIdleTaskNameIndex = 0U; xIdleTaskNameIndex < ( configMAX_TASK_NAME_LEN - taskRESERVED_TASK_NAME_LENGTH ); xIdleTaskNameIndex++ )
    14c2:	fe042223          	sw	zero,-28(s0)
    14c6:	a81d                	j	14fc <prvCreateIdleTasks+0x5c>
    {
        /* MISRA Ref 18.1.1 [Configuration dependent bounds checking] */
        /* More details at: https://github.com/FreeRTOS/FreeRTOS-Kernel/blob/main/MISRA.md#rule-181. */
        /* coverity[misra_c_2012_rule_18_1_violation] */
        cIdleName[ xIdleTaskNameIndex ] = configIDLE_TASK_NAME[ xIdleTaskNameIndex ];
    14c8:	67a1                	lui	a5,0x8
    14ca:	50078713          	addi	a4,a5,1280 # 8500 <AHBPrescTable+0x10>
    14ce:	fe442783          	lw	a5,-28(s0)
    14d2:	97ba                	add	a5,a5,a4
    14d4:	0007c703          	lbu	a4,0(a5)
    14d8:	fe442783          	lw	a5,-28(s0)
    14dc:	17c1                	addi	a5,a5,-16
    14de:	97a2                	add	a5,a5,s0
    14e0:	fee78023          	sb	a4,-32(a5)

        if( cIdleName[ xIdleTaskNameIndex ] == ( char ) 0x00 )
    14e4:	fe442783          	lw	a5,-28(s0)
    14e8:	17c1                	addi	a5,a5,-16
    14ea:	97a2                	add	a5,a5,s0
    14ec:	fe07c783          	lbu	a5,-32(a5)
    14f0:	cf81                	beqz	a5,1508 <prvCreateIdleTasks+0x68>
    for( xIdleTaskNameIndex = 0U; xIdleTaskNameIndex < ( configMAX_TASK_NAME_LEN - taskRESERVED_TASK_NAME_LENGTH ); xIdleTaskNameIndex++ )
    14f2:	fe442783          	lw	a5,-28(s0)
    14f6:	0785                	addi	a5,a5,1
    14f8:	fef42223          	sw	a5,-28(s0)
    14fc:	fe442703          	lw	a4,-28(s0)
    1500:	47b9                	li	a5,14
    1502:	fce7f3e3          	bgeu	a5,a4,14c8 <prvCreateIdleTasks+0x28>
    1506:	a011                	j	150a <prvCreateIdleTasks+0x6a>
        {
            break;
    1508:	0001                	nop
            mtCOVERAGE_TEST_MARKER();
        }
    }

    /* Ensure null termination. */
    cIdleName[ xIdleTaskNameIndex ] = '\0';
    150a:	fe442783          	lw	a5,-28(s0)
    150e:	17c1                	addi	a5,a5,-16
    1510:	97a2                	add	a5,a5,s0
    1512:	fe078023          	sb	zero,-32(a5)

    /* Add each idle task at the lowest priority. */
    for( xCoreID = ( BaseType_t ) 0; xCoreID < ( BaseType_t ) configNUMBER_OF_CORES; xCoreID++ )
    1516:	fe042423          	sw	zero,-24(s0)
    151a:	a061                	j	15a2 <prvCreateIdleTasks+0x102>
    {
        #if ( configNUMBER_OF_CORES == 1 )
        {
            pxIdleTaskFunction = &prvIdleTask;
    151c:	6789                	lui	a5,0x2
    151e:	62c78793          	addi	a5,a5,1580 # 262c <prvIdleTask>
    1522:	fef42023          	sw	a5,-32(s0)
        }
        #endif /* if ( configNUMBER_OF_CORES > 1 ) */

        #if ( configSUPPORT_STATIC_ALLOCATION == 1 )
        {
            StaticTask_t * pxIdleTaskTCBBuffer = NULL;
    1526:	fc042623          	sw	zero,-52(s0)
            StackType_t * pxIdleTaskStackBuffer = NULL;
    152a:	fc042423          	sw	zero,-56(s0)

            /* The Idle task is created using user provided RAM - obtain the
             * address of the RAM then create the idle task. */
            #if ( configNUMBER_OF_CORES == 1 )
            {
                vApplicationGetIdleTaskMemory( &pxIdleTaskTCBBuffer, &pxIdleTaskStackBuffer, &uxIdleTaskStackSize );
    152e:	fc440693          	addi	a3,s0,-60
    1532:	fc840713          	addi	a4,s0,-56
    1536:	fcc40793          	addi	a5,s0,-52
    153a:	8636                	mv	a2,a3
    153c:	85ba                	mv	a1,a4
    153e:	853e                	mv	a0,a5
    1540:	37b030ef          	jal	50ba <vApplicationGetIdleTaskMemory>
                {
                    vApplicationGetPassiveIdleTaskMemory( &pxIdleTaskTCBBuffer, &pxIdleTaskStackBuffer, &uxIdleTaskStackSize, ( BaseType_t ) ( xCoreID - 1 ) );
                }
            }
            #endif /* if ( configNUMBER_OF_CORES == 1 ) */
            xIdleTaskHandles[ xCoreID ] = xTaskCreateStatic( pxIdleTaskFunction,
    1544:	fc442603          	lw	a2,-60(s0)
    1548:	fc842783          	lw	a5,-56(s0)
    154c:	fcc42703          	lw	a4,-52(s0)
    1550:	fd040593          	addi	a1,s0,-48
    1554:	883a                	mv	a6,a4
    1556:	4701                	li	a4,0
    1558:	4681                	li	a3,0
    155a:	fe042503          	lw	a0,-32(s0)
    155e:	fa9fe0ef          	jal	506 <xTaskCreateStatic>
    1562:	86aa                	mv	a3,a0
    1564:	fe842703          	lw	a4,-24(s0)
    1568:	070a                	slli	a4,a4,0x2
    156a:	b6818793          	addi	a5,gp,-1176 # 200003c0 <xIdleTaskHandles>
    156e:	97ba                	add	a5,a5,a4
    1570:	c394                	sw	a3,0(a5)
                                                             ( void * ) NULL,
                                                             portPRIVILEGE_BIT, /* In effect ( tskIDLE_PRIORITY | portPRIVILEGE_BIT ), but tskIDLE_PRIORITY is zero. */
                                                             pxIdleTaskStackBuffer,
                                                             pxIdleTaskTCBBuffer );

            if( xIdleTaskHandles[ xCoreID ] != NULL )
    1572:	fe842703          	lw	a4,-24(s0)
    1576:	070a                	slli	a4,a4,0x2
    1578:	b6818793          	addi	a5,gp,-1176 # 200003c0 <xIdleTaskHandles>
    157c:	97ba                	add	a5,a5,a4
    157e:	439c                	lw	a5,0(a5)
    1580:	c789                	beqz	a5,158a <prvCreateIdleTasks+0xea>
            {
                xReturn = pdPASS;
    1582:	4785                	li	a5,1
    1584:	fef42623          	sw	a5,-20(s0)
    1588:	a019                	j	158e <prvCreateIdleTasks+0xee>
            }
            else
            {
                xReturn = pdFAIL;
    158a:	fe042623          	sw	zero,-20(s0)
                                   &xIdleTaskHandles[ xCoreID ] );
        }
        #endif /* configSUPPORT_STATIC_ALLOCATION */

        /* Break the loop if any of the idle task is failed to be created. */
        if( xReturn != pdPASS )
    158e:	fec42703          	lw	a4,-20(s0)
    1592:	4785                	li	a5,1
    1594:	00f71c63          	bne	a4,a5,15ac <prvCreateIdleTasks+0x10c>
    for( xCoreID = ( BaseType_t ) 0; xCoreID < ( BaseType_t ) configNUMBER_OF_CORES; xCoreID++ )
    1598:	fe842783          	lw	a5,-24(s0)
    159c:	0785                	addi	a5,a5,1
    159e:	fef42423          	sw	a5,-24(s0)
    15a2:	fe842783          	lw	a5,-24(s0)
    15a6:	f6f05be3          	blez	a5,151c <prvCreateIdleTasks+0x7c>
    15aa:	a011                	j	15ae <prvCreateIdleTasks+0x10e>
        {
            break;
    15ac:	0001                	nop
            }
            #endif
        }
    }

    return xReturn;
    15ae:	fec42783          	lw	a5,-20(s0)
}
    15b2:	853e                	mv	a0,a5
    15b4:	50f2                	lw	ra,60(sp)
    15b6:	5462                	lw	s0,56(sp)
    15b8:	6121                	addi	sp,sp,64
    15ba:	8082                	ret

000015bc <vTaskStartScheduler>:

/*-----------------------------------------------------------*/

void vTaskStartScheduler( void )
{
    15bc:	1101                	addi	sp,sp,-32
    15be:	ce06                	sw	ra,28(sp)
    15c0:	cc22                	sw	s0,24(sp)
    15c2:	1000                	addi	s0,sp,32
         * the number of bits as confNUMBER_OF_CORES. */
        configASSERT( ( sizeof( UBaseType_t ) * taskBITS_PER_BYTE ) >= configNUMBER_OF_CORES );
    }
    #endif /* #if ( configUSE_CORE_AFFINITY == 1 ) && ( configNUMBER_OF_CORES > 1 ) */

    xReturn = prvCreateIdleTasks();
    15c4:	3df1                	jal	14a0 <prvCreateIdleTasks>
    15c6:	fea42623          	sw	a0,-20(s0)
            mtCOVERAGE_TEST_MARKER();
        }
    }
    #endif /* configUSE_TIMERS */

    if( xReturn == pdPASS )
    15ca:	fec42703          	lw	a4,-20(s0)
    15ce:	4785                	li	a5,1
    15d0:	00f71f63          	bne	a4,a5,15ee <vTaskStartScheduler+0x32>
        /* Interrupts are turned off here, to ensure a tick does not occur
         * before or during the call to xPortStartScheduler().  The stacks of
         * the created tasks contain a status word with interrupts switched on
         * so interrupts will automatically get re-enabled when the first task
         * starts to run. */
        portDISABLE_INTERRUPTS();
    15d4:	30047073          	csrci	mstatus,8
             * block specific to the task that will run first. */
            configSET_TLS_BLOCK( pxCurrentTCB->xTLSBlock );
        }
        #endif

        xNextTaskUnblockTime = portMAX_DELAY;
    15d8:	577d                	li	a4,-1
    15da:	b6e1a223          	sw	a4,-1180(gp) # 200003bc <xNextTaskUnblockTime>
        xSchedulerRunning = pdTRUE;
    15de:	4705                	li	a4,1
    15e0:	b4e1a823          	sw	a4,-1200(gp) # 200003a8 <xSchedulerRunning>
        xTickCount = ( TickType_t ) configINITIAL_TICK_COUNT;
    15e4:	b401a423          	sw	zero,-1208(gp) # 200003a0 <xTickCount>
        /* Setting up the timer tick is hardware specific and thus in the
         * portable interface. */

        /* The return value for xPortStartScheduler is not required
         * hence using a void datatype. */
        ( void ) xPortStartScheduler();
    15e8:	026030ef          	jal	460e <xPortStartScheduler>
    15ec:	a809                	j	15fe <vTaskStartScheduler+0x42>
    else
    {
        /* This line will only be reached if the kernel could not be started,
         * because there was not enough FreeRTOS heap to create the idle task
         * or the timer task. */
        configASSERT( xReturn != errCOULD_NOT_ALLOCATE_REQUIRED_MEMORY );
    15ee:	fec42703          	lw	a4,-20(s0)
    15f2:	57fd                	li	a5,-1
    15f4:	00f71563          	bne	a4,a5,15fe <vTaskStartScheduler+0x42>
    15f8:	30047073          	csrci	mstatus,8
    15fc:	a001                	j	15fc <vTaskStartScheduler+0x40>
     * meaning xIdleTaskHandles are not used anywhere else. */
    ( void ) xIdleTaskHandles;

    /* OpenOCD makes use of uxTopUsedPriority for thread debugging. Prevent uxTopUsedPriority
     * from getting optimized out as it is no longer used by the kernel. */
    ( void ) uxTopUsedPriority;
    15fe:	8181a783          	lw	a5,-2024(gp) # 20000070 <uxTopUsedPriority>

    traceRETURN_vTaskStartScheduler();
}
    1602:	0001                	nop
    1604:	40f2                	lw	ra,28(sp)
    1606:	4462                	lw	s0,24(sp)
    1608:	6105                	addi	sp,sp,32
    160a:	8082                	ret

0000160c <vTaskEndScheduler>:
/*-----------------------------------------------------------*/

void vTaskEndScheduler( void )
{
    160c:	1101                	addi	sp,sp,-32
    160e:	ce06                	sw	ra,28(sp)
    1610:	cc22                	sw	s0,24(sp)
    1612:	1000                	addi	s0,sp,32
            vTaskDelete( xTimerGetTimerDaemonTaskHandle() );
        }
        #endif /* #if ( configUSE_TIMERS == 1 ) */

        /* Delete Idle tasks created by the kernel.*/
        for( xCoreID = 0; xCoreID < ( BaseType_t ) configNUMBER_OF_CORES; xCoreID++ )
    1614:	fe042623          	sw	zero,-20(s0)
    1618:	a005                	j	1638 <vTaskEndScheduler+0x2c>
        {
            vTaskDelete( xIdleTaskHandles[ xCoreID ] );
    161a:	fec42703          	lw	a4,-20(s0)
    161e:	070a                	slli	a4,a4,0x2
    1620:	b6818793          	addi	a5,gp,-1176 # 200003c0 <xIdleTaskHandles>
    1624:	97ba                	add	a5,a5,a4
    1626:	439c                	lw	a5,0(a5)
    1628:	853e                	mv	a0,a5
    162a:	b4aff0ef          	jal	974 <vTaskDelete>
        for( xCoreID = 0; xCoreID < ( BaseType_t ) configNUMBER_OF_CORES; xCoreID++ )
    162e:	fec42783          	lw	a5,-20(s0)
    1632:	0785                	addi	a5,a5,1
    1634:	fef42623          	sw	a5,-20(s0)
    1638:	fec42783          	lw	a5,-20(s0)
    163c:	fcf05fe3          	blez	a5,161a <vTaskEndScheduler+0xe>

        /* Idle task is responsible for reclaiming the resources of the tasks in
         * xTasksWaitingTermination list. Since the idle task is now deleted and
         * no longer going to run, we need to reclaim resources of all the tasks
         * in the xTasksWaitingTermination list. */
        prvCheckTasksWaitingTermination();
    1640:	090010ef          	jal	26d0 <prvCheckTasksWaitingTermination>
    #endif /* #if ( INCLUDE_vTaskDelete == 1 ) */

    /* Stop the scheduler interrupts and call the portable scheduler end
     * routine so the original ISRs can be restored if necessary.  The port
     * layer must ensure interrupts enable  bit is left in the correct state. */
    portDISABLE_INTERRUPTS();
    1644:	30047073          	csrci	mstatus,8
    xSchedulerRunning = pdFALSE;
    1648:	b401a823          	sw	zero,-1200(gp) # 200003a8 <xSchedulerRunning>

    /* This function must be called from a task and the application is
     * responsible for deleting that task after the scheduler is stopped. */
    vPortEndScheduler();
    164c:	7ef020ef          	jal	463a <vPortEndScheduler>

    traceRETURN_vTaskEndScheduler();
}
    1650:	0001                	nop
    1652:	40f2                	lw	ra,28(sp)
    1654:	4462                	lw	s0,24(sp)
    1656:	6105                	addi	sp,sp,32
    1658:	8082                	ret

0000165a <vTaskSuspendAll>:
/*----------------------------------------------------------*/

void vTaskSuspendAll( void )
{
    165a:	1141                	addi	sp,sp,-16
    165c:	c606                	sw	ra,12(sp)
    165e:	c422                	sw	s0,8(sp)
    1660:	0800                	addi	s0,sp,16
         * do not otherwise exhibit real time behaviour. */
        portSOFTWARE_BARRIER();

        /* The scheduler is suspended if uxSchedulerSuspended is non-zero.  An increment
         * is used to allow calls to vTaskSuspendAll() to nest. */
        uxSchedulerSuspended = ( UBaseType_t ) ( uxSchedulerSuspended + 1U );
    1662:	b6c1a783          	lw	a5,-1172(gp) # 200003c4 <uxSchedulerSuspended>
    1666:	00178713          	addi	a4,a5,1
    166a:	b6e1a623          	sw	a4,-1172(gp) # 200003c4 <uxSchedulerSuspended>
        }
    }
    #endif /* #if ( configNUMBER_OF_CORES == 1 ) */

    traceRETURN_vTaskSuspendAll();
}
    166e:	0001                	nop
    1670:	40b2                	lw	ra,12(sp)
    1672:	4422                	lw	s0,8(sp)
    1674:	0141                	addi	sp,sp,16
    1676:	8082                	ret

00001678 <xTaskResumeAll>:

#endif /* configUSE_TICKLESS_IDLE */
/*----------------------------------------------------------*/

BaseType_t xTaskResumeAll( void )
{
    1678:	7179                	addi	sp,sp,-48
    167a:	d606                	sw	ra,44(sp)
    167c:	d422                	sw	s0,40(sp)
    167e:	1800                	addi	s0,sp,48
    TCB_t * pxTCB = NULL;
    1680:	fe042623          	sw	zero,-20(s0)
    BaseType_t xAlreadyYielded = pdFALSE;
    1684:	fe042423          	sw	zero,-24(s0)
        /* It is possible that an ISR caused a task to be removed from an event
         * list while the scheduler was suspended.  If this was the case then the
         * removed task will have been added to the xPendingReadyList.  Once the
         * scheduler has been resumed it is safe to move all the pending ready
         * tasks from this list into their appropriate ready list. */
        taskENTER_CRITICAL();
    1688:	30047073          	csrci	mstatus,8
    168c:	8081a783          	lw	a5,-2040(gp) # 20000060 <xCriticalNesting>
    1690:	00178713          	addi	a4,a5,1
    1694:	80e1a423          	sw	a4,-2040(gp) # 20000060 <xCriticalNesting>
        {
            const BaseType_t xCoreID = ( BaseType_t ) portGET_CORE_ID();
    1698:	fe042023          	sw	zero,-32(s0)

            /* If uxSchedulerSuspended is zero then this function does not match a
             * previous call to vTaskSuspendAll(). */
            configASSERT( uxSchedulerSuspended != 0U );
    169c:	b6c1a783          	lw	a5,-1172(gp) # 200003c4 <uxSchedulerSuspended>
    16a0:	e781                	bnez	a5,16a8 <xTaskResumeAll+0x30>
    16a2:	30047073          	csrci	mstatus,8
    16a6:	a001                	j	16a6 <xTaskResumeAll+0x2e>

            uxSchedulerSuspended = ( UBaseType_t ) ( uxSchedulerSuspended - 1U );
    16a8:	b6c1a783          	lw	a5,-1172(gp) # 200003c4 <uxSchedulerSuspended>
    16ac:	fff78713          	addi	a4,a5,-1
    16b0:	b6e1a623          	sw	a4,-1172(gp) # 200003c4 <uxSchedulerSuspended>
            portRELEASE_TASK_LOCK( xCoreID );

            if( uxSchedulerSuspended == ( UBaseType_t ) 0U )
    16b4:	b6c1a783          	lw	a5,-1172(gp) # 200003c4 <uxSchedulerSuspended>
    16b8:	20079a63          	bnez	a5,18cc <xTaskResumeAll+0x254>
            {
                if( uxCurrentNumberOfTasks > ( UBaseType_t ) 0U )
    16bc:	b441a783          	lw	a5,-1212(gp) # 2000039c <uxCurrentNumberOfTasks>
    16c0:	20078663          	beqz	a5,18cc <xTaskResumeAll+0x254>
                {
                    /* Move any readied tasks from the pending list into the
                     * appropriate ready list. */
                    while( listLIST_IS_EMPTY( &xPendingReadyList ) == pdFALSE )
    16c4:	aa79                	j	1862 <xTaskResumeAll+0x1ea>
                    {
                        /* MISRA Ref 11.5.3 [Void pointer assignment] */
                        /* More details at: https://github.com/FreeRTOS/FreeRTOS-Kernel/blob/main/MISRA.md#rule-115 */
                        /* coverity[misra_c_2012_rule_11_5_violation] */
                        pxTCB = listGET_OWNER_OF_HEAD_ENTRY( ( &xPendingReadyList ) );
    16c6:	b0418793          	addi	a5,gp,-1276 # 2000035c <xPendingReadyList>
    16ca:	47dc                	lw	a5,12(a5)
    16cc:	47dc                	lw	a5,12(a5)
    16ce:	fef42623          	sw	a5,-20(s0)
                        listREMOVE_ITEM( &( pxTCB->xEventListItem ) );
    16d2:	fec42783          	lw	a5,-20(s0)
    16d6:	579c                	lw	a5,40(a5)
    16d8:	fcf42e23          	sw	a5,-36(s0)
    16dc:	fec42783          	lw	a5,-20(s0)
    16e0:	4fdc                	lw	a5,28(a5)
    16e2:	fec42703          	lw	a4,-20(s0)
    16e6:	5318                	lw	a4,32(a4)
    16e8:	c798                	sw	a4,8(a5)
    16ea:	fec42783          	lw	a5,-20(s0)
    16ee:	539c                	lw	a5,32(a5)
    16f0:	fec42703          	lw	a4,-20(s0)
    16f4:	4f58                	lw	a4,28(a4)
    16f6:	c3d8                	sw	a4,4(a5)
    16f8:	fdc42783          	lw	a5,-36(s0)
    16fc:	43d8                	lw	a4,4(a5)
    16fe:	fec42783          	lw	a5,-20(s0)
    1702:	07e1                	addi	a5,a5,24
    1704:	00f71863          	bne	a4,a5,1714 <xTaskResumeAll+0x9c>
    1708:	fec42783          	lw	a5,-20(s0)
    170c:	5398                	lw	a4,32(a5)
    170e:	fdc42783          	lw	a5,-36(s0)
    1712:	c3d8                	sw	a4,4(a5)
    1714:	fec42783          	lw	a5,-20(s0)
    1718:	0207a423          	sw	zero,40(a5)
    171c:	fdc42783          	lw	a5,-36(s0)
    1720:	439c                	lw	a5,0(a5)
    1722:	fff78713          	addi	a4,a5,-1
    1726:	fdc42783          	lw	a5,-36(s0)
    172a:	c398                	sw	a4,0(a5)
                        portMEMORY_BARRIER();
                        listREMOVE_ITEM( &( pxTCB->xStateListItem ) );
    172c:	fec42783          	lw	a5,-20(s0)
    1730:	4bdc                	lw	a5,20(a5)
    1732:	fcf42c23          	sw	a5,-40(s0)
    1736:	fec42783          	lw	a5,-20(s0)
    173a:	479c                	lw	a5,8(a5)
    173c:	fec42703          	lw	a4,-20(s0)
    1740:	4758                	lw	a4,12(a4)
    1742:	c798                	sw	a4,8(a5)
    1744:	fec42783          	lw	a5,-20(s0)
    1748:	47dc                	lw	a5,12(a5)
    174a:	fec42703          	lw	a4,-20(s0)
    174e:	4718                	lw	a4,8(a4)
    1750:	c3d8                	sw	a4,4(a5)
    1752:	fd842783          	lw	a5,-40(s0)
    1756:	43d8                	lw	a4,4(a5)
    1758:	fec42783          	lw	a5,-20(s0)
    175c:	0791                	addi	a5,a5,4
    175e:	00f71863          	bne	a4,a5,176e <xTaskResumeAll+0xf6>
    1762:	fec42783          	lw	a5,-20(s0)
    1766:	47d8                	lw	a4,12(a5)
    1768:	fd842783          	lw	a5,-40(s0)
    176c:	c3d8                	sw	a4,4(a5)
    176e:	fec42783          	lw	a5,-20(s0)
    1772:	0007aa23          	sw	zero,20(a5)
    1776:	fd842783          	lw	a5,-40(s0)
    177a:	439c                	lw	a5,0(a5)
    177c:	fff78713          	addi	a4,a5,-1
    1780:	fd842783          	lw	a5,-40(s0)
    1784:	c398                	sw	a4,0(a5)
                        prvAddTaskToReadyList( pxTCB );
    1786:	fec42783          	lw	a5,-20(s0)
    178a:	57dc                	lw	a5,44(a5)
    178c:	4705                	li	a4,1
    178e:	00f71733          	sll	a4,a4,a5
    1792:	b4c1a783          	lw	a5,-1204(gp) # 200003a4 <uxTopReadyPriority>
    1796:	8f5d                	or	a4,a4,a5
    1798:	b4e1a623          	sw	a4,-1204(gp) # 200003a4 <uxTopReadyPriority>
    179c:	fec42783          	lw	a5,-20(s0)
    17a0:	57d8                	lw	a4,44(a5)
    17a2:	200007b7          	lui	a5,0x20000
    17a6:	0ac78693          	addi	a3,a5,172 # 200000ac <pxReadyTasksLists>
    17aa:	87ba                	mv	a5,a4
    17ac:	078a                	slli	a5,a5,0x2
    17ae:	97ba                	add	a5,a5,a4
    17b0:	078a                	slli	a5,a5,0x2
    17b2:	97b6                	add	a5,a5,a3
    17b4:	43dc                	lw	a5,4(a5)
    17b6:	fcf42a23          	sw	a5,-44(s0)
    17ba:	fec42783          	lw	a5,-20(s0)
    17be:	fd442703          	lw	a4,-44(s0)
    17c2:	c798                	sw	a4,8(a5)
    17c4:	fd442783          	lw	a5,-44(s0)
    17c8:	4798                	lw	a4,8(a5)
    17ca:	fec42783          	lw	a5,-20(s0)
    17ce:	c7d8                	sw	a4,12(a5)
    17d0:	fd442783          	lw	a5,-44(s0)
    17d4:	479c                	lw	a5,8(a5)
    17d6:	fec42703          	lw	a4,-20(s0)
    17da:	0711                	addi	a4,a4,4
    17dc:	c3d8                	sw	a4,4(a5)
    17de:	fec42783          	lw	a5,-20(s0)
    17e2:	00478713          	addi	a4,a5,4
    17e6:	fd442783          	lw	a5,-44(s0)
    17ea:	c798                	sw	a4,8(a5)
    17ec:	fec42783          	lw	a5,-20(s0)
    17f0:	57d8                	lw	a4,44(a5)
    17f2:	87ba                	mv	a5,a4
    17f4:	078a                	slli	a5,a5,0x2
    17f6:	97ba                	add	a5,a5,a4
    17f8:	078a                	slli	a5,a5,0x2
    17fa:	20000737          	lui	a4,0x20000
    17fe:	0ac70713          	addi	a4,a4,172 # 200000ac <pxReadyTasksLists>
    1802:	973e                	add	a4,a4,a5
    1804:	fec42783          	lw	a5,-20(s0)
    1808:	cbd8                	sw	a4,20(a5)
    180a:	fec42783          	lw	a5,-20(s0)
    180e:	57d8                	lw	a4,44(a5)
    1810:	200007b7          	lui	a5,0x20000
    1814:	0ac78693          	addi	a3,a5,172 # 200000ac <pxReadyTasksLists>
    1818:	87ba                	mv	a5,a4
    181a:	078a                	slli	a5,a5,0x2
    181c:	97ba                	add	a5,a5,a4
    181e:	078a                	slli	a5,a5,0x2
    1820:	97b6                	add	a5,a5,a3
    1822:	439c                	lw	a5,0(a5)
    1824:	fec42703          	lw	a4,-20(s0)
    1828:	5758                	lw	a4,44(a4)
    182a:	00178693          	addi	a3,a5,1
    182e:	200007b7          	lui	a5,0x20000
    1832:	0ac78613          	addi	a2,a5,172 # 200000ac <pxReadyTasksLists>
    1836:	87ba                	mv	a5,a4
    1838:	078a                	slli	a5,a5,0x2
    183a:	97ba                	add	a5,a5,a4
    183c:	078a                	slli	a5,a5,0x2
    183e:	97b2                	add	a5,a5,a2
    1840:	c394                	sw	a3,0(a5)

                        #if ( configNUMBER_OF_CORES == 1 )
                        {
                            /* If the moved task has a priority higher than the current
                             * task then a yield must be performed. */
                            if( pxTCB->uxPriority > pxCurrentTCB->uxPriority )
    1842:	fec42783          	lw	a5,-20(s0)
    1846:	57d8                	lw	a4,44(a5)
    1848:	8281a783          	lw	a5,-2008(gp) # 20000080 <pxCurrentTCB>
    184c:	57dc                	lw	a5,44(a5)
    184e:	00e7fa63          	bgeu	a5,a4,1862 <xTaskResumeAll+0x1ea>
                            {
                                xYieldPendings[ xCoreID ] = pdTRUE;
    1852:	fe042703          	lw	a4,-32(s0)
    1856:	070a                	slli	a4,a4,0x2
    1858:	b5818793          	addi	a5,gp,-1192 # 200003b0 <xYieldPendings>
    185c:	97ba                	add	a5,a5,a4
    185e:	4705                	li	a4,1
    1860:	c398                	sw	a4,0(a5)
                    while( listLIST_IS_EMPTY( &xPendingReadyList ) == pdFALSE )
    1862:	b0418793          	addi	a5,gp,-1276 # 2000035c <xPendingReadyList>
    1866:	439c                	lw	a5,0(a5)
    1868:	e4079fe3          	bnez	a5,16c6 <xTaskResumeAll+0x4e>
                             * which sets xYieldPendings for the current core to pdTRUE. */
                        }
                        #endif /* #if ( configNUMBER_OF_CORES == 1 ) */
                    }

                    if( pxTCB != NULL )
    186c:	fec42783          	lw	a5,-20(s0)
    1870:	c399                	beqz	a5,1876 <xTaskResumeAll+0x1fe>
                         * which may have prevented the next unblock time from being
                         * re-calculated, in which case re-calculate it now.  Mainly
                         * important for low power tickless implementations, where
                         * this can prevent an unnecessary exit from low power
                         * state. */
                        prvResetNextTaskUnblockTime();
    1872:	7d9000ef          	jal	284a <prvResetNextTaskUnblockTime>
                     * It should be safe to call xTaskIncrementTick here from any core
                     * since we are in a critical section and xTaskIncrementTick itself
                     * protects itself within a critical section. Suspending the scheduler
                     * from any core causes xTaskIncrementTick to increment uxPendedCounts. */
                    {
                        TickType_t xPendedCounts = xPendedTicks; /* Non-volatile copy. */
    1876:	b541a783          	lw	a5,-1196(gp) # 200003ac <xPendedTicks>
    187a:	fef42223          	sw	a5,-28(s0)

                        if( xPendedCounts > ( TickType_t ) 0U )
    187e:	fe442783          	lw	a5,-28(s0)
    1882:	c795                	beqz	a5,18ae <xTaskResumeAll+0x236>
                        {
                            do
                            {
                                if( xTaskIncrementTick() != pdFALSE )
    1884:	2c39                	jal	1aa2 <xTaskIncrementTick>
    1886:	87aa                	mv	a5,a0
    1888:	cb89                	beqz	a5,189a <xTaskResumeAll+0x222>
                                {
                                    /* Other cores are interrupted from
                                     * within xTaskIncrementTick(). */
                                    xYieldPendings[ xCoreID ] = pdTRUE;
    188a:	fe042703          	lw	a4,-32(s0)
    188e:	070a                	slli	a4,a4,0x2
    1890:	b5818793          	addi	a5,gp,-1192 # 200003b0 <xYieldPendings>
    1894:	97ba                	add	a5,a5,a4
    1896:	4705                	li	a4,1
    1898:	c398                	sw	a4,0(a5)
                                else
                                {
                                    mtCOVERAGE_TEST_MARKER();
                                }

                                --xPendedCounts;
    189a:	fe442783          	lw	a5,-28(s0)
    189e:	17fd                	addi	a5,a5,-1
    18a0:	fef42223          	sw	a5,-28(s0)
                            } while( xPendedCounts > ( TickType_t ) 0U );
    18a4:	fe442783          	lw	a5,-28(s0)
    18a8:	fff1                	bnez	a5,1884 <xTaskResumeAll+0x20c>

                            xPendedTicks = 0;
    18aa:	b401aa23          	sw	zero,-1196(gp) # 200003ac <xPendedTicks>
                        {
                            mtCOVERAGE_TEST_MARKER();
                        }
                    }

                    if( xYieldPendings[ xCoreID ] != pdFALSE )
    18ae:	fe042703          	lw	a4,-32(s0)
    18b2:	070a                	slli	a4,a4,0x2
    18b4:	b5818793          	addi	a5,gp,-1192 # 200003b0 <xYieldPendings>
    18b8:	97ba                	add	a5,a5,a4
    18ba:	439c                	lw	a5,0(a5)
    18bc:	cb81                	beqz	a5,18cc <xTaskResumeAll+0x254>
                    {
                        #if ( configUSE_PREEMPTION != 0 )
                        {
                            xAlreadyYielded = pdTRUE;
    18be:	4785                	li	a5,1
    18c0:	fef42423          	sw	a5,-24(s0)
                        }
                        #endif /* #if ( configUSE_PREEMPTION != 0 ) */

                        #if ( configNUMBER_OF_CORES == 1 )
                        {
                            taskYIELD_TASK_CORE_IF_USING_PREEMPTION( pxCurrentTCB );
    18c4:	8281a783          	lw	a5,-2008(gp) # 20000080 <pxCurrentTCB>
    18c8:	00000073          	ecall
            else
            {
                mtCOVERAGE_TEST_MARKER();
            }
        }
        taskEXIT_CRITICAL();
    18cc:	8081a783          	lw	a5,-2040(gp) # 20000060 <xCriticalNesting>
    18d0:	fff78713          	addi	a4,a5,-1
    18d4:	80e1a423          	sw	a4,-2040(gp) # 20000060 <xCriticalNesting>
    18d8:	8081a783          	lw	a5,-2040(gp) # 20000060 <xCriticalNesting>
    18dc:	e399                	bnez	a5,18e2 <xTaskResumeAll+0x26a>
    18de:	30046073          	csrsi	mstatus,8
    }

    traceRETURN_xTaskResumeAll( xAlreadyYielded );

    return xAlreadyYielded;
    18e2:	fe842783          	lw	a5,-24(s0)
}
    18e6:	853e                	mv	a0,a5
    18e8:	50b2                	lw	ra,44(sp)
    18ea:	5422                	lw	s0,40(sp)
    18ec:	6145                	addi	sp,sp,48
    18ee:	8082                	ret

000018f0 <xTaskGetTickCount>:
/*-----------------------------------------------------------*/

TickType_t xTaskGetTickCount( void )
{
    18f0:	1101                	addi	sp,sp,-32
    18f2:	ce06                	sw	ra,28(sp)
    18f4:	cc22                	sw	s0,24(sp)
    18f6:	1000                	addi	s0,sp,32
    traceENTER_xTaskGetTickCount();

    /* Critical section required if running on a 16 bit processor. */
    portTICK_TYPE_ENTER_CRITICAL();
    {
        xTicks = xTickCount;
    18f8:	b481a783          	lw	a5,-1208(gp) # 200003a0 <xTickCount>
    18fc:	fef42623          	sw	a5,-20(s0)
    }
    portTICK_TYPE_EXIT_CRITICAL();

    traceRETURN_xTaskGetTickCount( xTicks );

    return xTicks;
    1900:	fec42783          	lw	a5,-20(s0)
}
    1904:	853e                	mv	a0,a5
    1906:	40f2                	lw	ra,28(sp)
    1908:	4462                	lw	s0,24(sp)
    190a:	6105                	addi	sp,sp,32
    190c:	8082                	ret

0000190e <xTaskGetTickCountFromISR>:
/*-----------------------------------------------------------*/

TickType_t xTaskGetTickCountFromISR( void )
{
    190e:	1101                	addi	sp,sp,-32
    1910:	ce06                	sw	ra,28(sp)
    1912:	cc22                	sw	s0,24(sp)
    1914:	1000                	addi	s0,sp,32
     * safe API to ensure interrupt entry is as fast and as simple as possible.
     * More information (albeit Cortex-M specific) is provided on the following
     * link: https://www.FreeRTOS.org/RTOS-Cortex-M3-M4.html */
    portASSERT_IF_INTERRUPT_PRIORITY_INVALID();

    uxSavedInterruptStatus = portTICK_TYPE_SET_INTERRUPT_MASK_FROM_ISR();
    1916:	fe042623          	sw	zero,-20(s0)
    {
        xReturn = xTickCount;
    191a:	b481a783          	lw	a5,-1208(gp) # 200003a0 <xTickCount>
    191e:	fef42423          	sw	a5,-24(s0)
    }
    portTICK_TYPE_CLEAR_INTERRUPT_MASK_FROM_ISR( uxSavedInterruptStatus );

    traceRETURN_xTaskGetTickCountFromISR( xReturn );

    return xReturn;
    1922:	fe842783          	lw	a5,-24(s0)
}
    1926:	853e                	mv	a0,a5
    1928:	40f2                	lw	ra,28(sp)
    192a:	4462                	lw	s0,24(sp)
    192c:	6105                	addi	sp,sp,32
    192e:	8082                	ret

00001930 <uxTaskGetNumberOfTasks>:
/*-----------------------------------------------------------*/

UBaseType_t uxTaskGetNumberOfTasks( void )
{
    1930:	1141                	addi	sp,sp,-16
    1932:	c606                	sw	ra,12(sp)
    1934:	c422                	sw	s0,8(sp)
    1936:	0800                	addi	s0,sp,16

    /* A critical section is not required because the variables are of type
     * BaseType_t. */
    traceRETURN_uxTaskGetNumberOfTasks( uxCurrentNumberOfTasks );

    return uxCurrentNumberOfTasks;
    1938:	b441a783          	lw	a5,-1212(gp) # 2000039c <uxCurrentNumberOfTasks>
}
    193c:	853e                	mv	a0,a5
    193e:	40b2                	lw	ra,12(sp)
    1940:	4422                	lw	s0,8(sp)
    1942:	0141                	addi	sp,sp,16
    1944:	8082                	ret

00001946 <pcTaskGetName>:
/*-----------------------------------------------------------*/

char * pcTaskGetName( TaskHandle_t xTaskToQuery )
{
    1946:	7179                	addi	sp,sp,-48
    1948:	d606                	sw	ra,44(sp)
    194a:	d422                	sw	s0,40(sp)
    194c:	1800                	addi	s0,sp,48
    194e:	fca42e23          	sw	a0,-36(s0)

    traceENTER_pcTaskGetName( xTaskToQuery );

    /* If null is passed in here then the name of the calling task is being
     * queried. */
    pxTCB = prvGetTCBFromHandle( xTaskToQuery );
    1952:	fdc42783          	lw	a5,-36(s0)
    1956:	e791                	bnez	a5,1962 <pcTaskGetName+0x1c>
    1958:	8281a783          	lw	a5,-2008(gp) # 20000080 <pxCurrentTCB>
    195c:	fef42623          	sw	a5,-20(s0)
    1960:	a029                	j	196a <pcTaskGetName+0x24>
    1962:	fdc42783          	lw	a5,-36(s0)
    1966:	fef42623          	sw	a5,-20(s0)
    configASSERT( pxTCB != NULL );
    196a:	fec42783          	lw	a5,-20(s0)
    196e:	e781                	bnez	a5,1976 <pcTaskGetName+0x30>
    1970:	30047073          	csrci	mstatus,8
    1974:	a001                	j	1974 <pcTaskGetName+0x2e>

    traceRETURN_pcTaskGetName( &( pxTCB->pcTaskName[ 0 ] ) );

    return &( pxTCB->pcTaskName[ 0 ] );
    1976:	fec42783          	lw	a5,-20(s0)
    197a:	03478793          	addi	a5,a5,52
}
    197e:	853e                	mv	a0,a5
    1980:	50b2                	lw	ra,44(sp)
    1982:	5422                	lw	s0,40(sp)
    1984:	6145                	addi	sp,sp,48
    1986:	8082                	ret

00001988 <xTaskGetStaticBuffers>:
#if ( configSUPPORT_STATIC_ALLOCATION == 1 )

    BaseType_t xTaskGetStaticBuffers( TaskHandle_t xTask,
                                      StackType_t ** ppuxStackBuffer,
                                      StaticTask_t ** ppxTaskBuffer )
    {
    1988:	7179                	addi	sp,sp,-48
    198a:	d606                	sw	ra,44(sp)
    198c:	d422                	sw	s0,40(sp)
    198e:	1800                	addi	s0,sp,48
    1990:	fca42e23          	sw	a0,-36(s0)
    1994:	fcb42c23          	sw	a1,-40(s0)
    1998:	fcc42a23          	sw	a2,-44(s0)
        BaseType_t xReturn;
        TCB_t * pxTCB;

        traceENTER_xTaskGetStaticBuffers( xTask, ppuxStackBuffer, ppxTaskBuffer );

        configASSERT( ppuxStackBuffer != NULL );
    199c:	fd842783          	lw	a5,-40(s0)
    19a0:	e781                	bnez	a5,19a8 <xTaskGetStaticBuffers+0x20>
    19a2:	30047073          	csrci	mstatus,8
    19a6:	a001                	j	19a6 <xTaskGetStaticBuffers+0x1e>
        configASSERT( ppxTaskBuffer != NULL );
    19a8:	fd442783          	lw	a5,-44(s0)
    19ac:	e781                	bnez	a5,19b4 <xTaskGetStaticBuffers+0x2c>
    19ae:	30047073          	csrci	mstatus,8
    19b2:	a001                	j	19b2 <xTaskGetStaticBuffers+0x2a>

        pxTCB = prvGetTCBFromHandle( xTask );
    19b4:	fdc42783          	lw	a5,-36(s0)
    19b8:	e791                	bnez	a5,19c4 <xTaskGetStaticBuffers+0x3c>
    19ba:	8281a783          	lw	a5,-2008(gp) # 20000080 <pxCurrentTCB>
    19be:	fef42423          	sw	a5,-24(s0)
    19c2:	a029                	j	19cc <xTaskGetStaticBuffers+0x44>
    19c4:	fdc42783          	lw	a5,-36(s0)
    19c8:	fef42423          	sw	a5,-24(s0)
        configASSERT( pxTCB != NULL );
    19cc:	fe842783          	lw	a5,-24(s0)
    19d0:	e781                	bnez	a5,19d8 <xTaskGetStaticBuffers+0x50>
    19d2:	30047073          	csrci	mstatus,8
    19d6:	a001                	j	19d6 <xTaskGetStaticBuffers+0x4e>

        #if ( tskSTATIC_AND_DYNAMIC_ALLOCATION_POSSIBLE == 1 )
        {
            if( pxTCB->ucStaticallyAllocated == tskSTATICALLY_ALLOCATED_STACK_AND_TCB )
    19d8:	fe842783          	lw	a5,-24(s0)
    19dc:	0557c703          	lbu	a4,85(a5)
    19e0:	4789                	li	a5,2
    19e2:	02f71163          	bne	a4,a5,1a04 <xTaskGetStaticBuffers+0x7c>
            {
                *ppuxStackBuffer = pxTCB->pxStack;
    19e6:	fe842783          	lw	a5,-24(s0)
    19ea:	5b98                	lw	a4,48(a5)
    19ec:	fd842783          	lw	a5,-40(s0)
    19f0:	c398                	sw	a4,0(a5)
                /* MISRA Ref 11.3.1 [Misaligned access] */
                /* More details at: https://github.com/FreeRTOS/FreeRTOS-Kernel/blob/main/MISRA.md#rule-113 */
                /* coverity[misra_c_2012_rule_11_3_violation] */
                *ppxTaskBuffer = ( StaticTask_t * ) pxTCB;
    19f2:	fd442783          	lw	a5,-44(s0)
    19f6:	fe842703          	lw	a4,-24(s0)
    19fa:	c398                	sw	a4,0(a5)
                xReturn = pdTRUE;
    19fc:	4785                	li	a5,1
    19fe:	fef42623          	sw	a5,-20(s0)
    1a02:	a805                	j	1a32 <xTaskGetStaticBuffers+0xaa>
            }
            else if( pxTCB->ucStaticallyAllocated == tskSTATICALLY_ALLOCATED_STACK_ONLY )
    1a04:	fe842783          	lw	a5,-24(s0)
    1a08:	0557c703          	lbu	a4,85(a5)
    1a0c:	4785                	li	a5,1
    1a0e:	02f71063          	bne	a4,a5,1a2e <xTaskGetStaticBuffers+0xa6>
            {
                *ppuxStackBuffer = pxTCB->pxStack;
    1a12:	fe842783          	lw	a5,-24(s0)
    1a16:	5b98                	lw	a4,48(a5)
    1a18:	fd842783          	lw	a5,-40(s0)
    1a1c:	c398                	sw	a4,0(a5)
                *ppxTaskBuffer = NULL;
    1a1e:	fd442783          	lw	a5,-44(s0)
    1a22:	0007a023          	sw	zero,0(a5)
                xReturn = pdTRUE;
    1a26:	4785                	li	a5,1
    1a28:	fef42623          	sw	a5,-20(s0)
    1a2c:	a019                	j	1a32 <xTaskGetStaticBuffers+0xaa>
            }
            else
            {
                xReturn = pdFALSE;
    1a2e:	fe042623          	sw	zero,-20(s0)
        }
        #endif /* tskSTATIC_AND_DYNAMIC_ALLOCATION_POSSIBLE == 1 */

        traceRETURN_xTaskGetStaticBuffers( xReturn );

        return xReturn;
    1a32:	fec42783          	lw	a5,-20(s0)
    }
    1a36:	853e                	mv	a0,a5
    1a38:	50b2                	lw	ra,44(sp)
    1a3a:	5422                	lw	s0,40(sp)
    1a3c:	6145                	addi	sp,sp,48
    1a3e:	8082                	ret

00001a40 <xTaskCatchUpTicks>:

#endif /* configUSE_TICKLESS_IDLE */
/*----------------------------------------------------------*/

BaseType_t xTaskCatchUpTicks( TickType_t xTicksToCatchUp )
{
    1a40:	7179                	addi	sp,sp,-48
    1a42:	d606                	sw	ra,44(sp)
    1a44:	d422                	sw	s0,40(sp)
    1a46:	1800                	addi	s0,sp,48
    1a48:	fca42e23          	sw	a0,-36(s0)

    traceENTER_xTaskCatchUpTicks( xTicksToCatchUp );

    /* Must not be called with the scheduler suspended as the implementation
     * relies on xPendedTicks being wound down to 0 in xTaskResumeAll(). */
    configASSERT( uxSchedulerSuspended == ( UBaseType_t ) 0U );
    1a4c:	b6c1a783          	lw	a5,-1172(gp) # 200003c4 <uxSchedulerSuspended>
    1a50:	c781                	beqz	a5,1a58 <xTaskCatchUpTicks+0x18>
    1a52:	30047073          	csrci	mstatus,8
    1a56:	a001                	j	1a56 <xTaskCatchUpTicks+0x16>

    /* Use xPendedTicks to mimic xTicksToCatchUp number of ticks occurring when
     * the scheduler is suspended so the ticks are executed in xTaskResumeAll(). */
    vTaskSuspendAll();
    1a58:	3109                	jal	165a <vTaskSuspendAll>

    /* Prevent the tick interrupt modifying xPendedTicks simultaneously. */
    taskENTER_CRITICAL();
    1a5a:	30047073          	csrci	mstatus,8
    1a5e:	8081a783          	lw	a5,-2040(gp) # 20000060 <xCriticalNesting>
    1a62:	00178713          	addi	a4,a5,1
    1a66:	80e1a423          	sw	a4,-2040(gp) # 20000060 <xCriticalNesting>
    {
        xPendedTicks += xTicksToCatchUp;
    1a6a:	b541a703          	lw	a4,-1196(gp) # 200003ac <xPendedTicks>
    1a6e:	fdc42783          	lw	a5,-36(s0)
    1a72:	973e                	add	a4,a4,a5
    1a74:	b4e1aa23          	sw	a4,-1196(gp) # 200003ac <xPendedTicks>
    }
    taskEXIT_CRITICAL();
    1a78:	8081a783          	lw	a5,-2040(gp) # 20000060 <xCriticalNesting>
    1a7c:	fff78713          	addi	a4,a5,-1
    1a80:	80e1a423          	sw	a4,-2040(gp) # 20000060 <xCriticalNesting>
    1a84:	8081a783          	lw	a5,-2040(gp) # 20000060 <xCriticalNesting>
    1a88:	e399                	bnez	a5,1a8e <xTaskCatchUpTicks+0x4e>
    1a8a:	30046073          	csrsi	mstatus,8
    xYieldOccurred = xTaskResumeAll();
    1a8e:	36ed                	jal	1678 <xTaskResumeAll>
    1a90:	fea42623          	sw	a0,-20(s0)

    traceRETURN_xTaskCatchUpTicks( xYieldOccurred );

    return xYieldOccurred;
    1a94:	fec42783          	lw	a5,-20(s0)
}
    1a98:	853e                	mv	a0,a5
    1a9a:	50b2                	lw	ra,44(sp)
    1a9c:	5422                	lw	s0,40(sp)
    1a9e:	6145                	addi	sp,sp,48
    1aa0:	8082                	ret

00001aa2 <xTaskIncrementTick>:

#endif /* INCLUDE_xTaskAbortDelay */
/*----------------------------------------------------------*/

BaseType_t xTaskIncrementTick( void )
{
    1aa2:	7179                	addi	sp,sp,-48
    1aa4:	d606                	sw	ra,44(sp)
    1aa6:	d422                	sw	s0,40(sp)
    1aa8:	1800                	addi	s0,sp,48
    TCB_t * pxTCB;
    TickType_t xItemValue;
    BaseType_t xSwitchRequired = pdFALSE;
    1aaa:	fe042623          	sw	zero,-20(s0)

    /* Tick increment should occur on every kernel timer event. Core 0 has the
     * responsibility to increment the tick, or increment the pended ticks if the
     * scheduler is suspended.  If pended ticks is greater than zero, the core that
     * calls xTaskResumeAll has the responsibility to increment the tick. */
    if( uxSchedulerSuspended == ( UBaseType_t ) 0U )
    1aae:	b6c1a783          	lw	a5,-1172(gp) # 200003c4 <uxSchedulerSuspended>
    1ab2:	24079f63          	bnez	a5,1d10 <xTaskIncrementTick+0x26e>
    {
        /* Minor optimisation.  The tick count cannot change in this
         * block. */
        const TickType_t xConstTickCount = xTickCount + ( TickType_t ) 1;
    1ab6:	b481a783          	lw	a5,-1208(gp) # 200003a0 <xTickCount>
    1aba:	0785                	addi	a5,a5,1
    1abc:	fef42423          	sw	a5,-24(s0)

        /* Increment the RTOS tick, switching the delayed and overflowed
         * delayed lists if it wraps to 0. */
        xTickCount = xConstTickCount;
    1ac0:	fe842703          	lw	a4,-24(s0)
    1ac4:	b4e1a423          	sw	a4,-1208(gp) # 200003a0 <xTickCount>

        if( xConstTickCount == ( TickType_t ) 0U )
    1ac8:	fe842783          	lw	a5,-24(s0)
    1acc:	ef85                	bnez	a5,1b04 <xTaskIncrementTick+0x62>
        {
            taskSWITCH_DELAYED_LISTS();
    1ace:	afc1a783          	lw	a5,-1284(gp) # 20000354 <pxDelayedTaskList>
    1ad2:	439c                	lw	a5,0(a5)
    1ad4:	c781                	beqz	a5,1adc <xTaskIncrementTick+0x3a>
    1ad6:	30047073          	csrci	mstatus,8
    1ada:	a001                	j	1ada <xTaskIncrementTick+0x38>
    1adc:	afc1a783          	lw	a5,-1284(gp) # 20000354 <pxDelayedTaskList>
    1ae0:	fef42223          	sw	a5,-28(s0)
    1ae4:	b001a703          	lw	a4,-1280(gp) # 20000358 <pxOverflowDelayedTaskList>
    1ae8:	aee1ae23          	sw	a4,-1284(gp) # 20000354 <pxDelayedTaskList>
    1aec:	fe442703          	lw	a4,-28(s0)
    1af0:	b0e1a023          	sw	a4,-1280(gp) # 20000358 <pxOverflowDelayedTaskList>
    1af4:	b5c1a783          	lw	a5,-1188(gp) # 200003b4 <xNumOfOverflows>
    1af8:	00178713          	addi	a4,a5,1
    1afc:	b4e1ae23          	sw	a4,-1188(gp) # 200003b4 <xNumOfOverflows>
    1b00:	54b000ef          	jal	284a <prvResetNextTaskUnblockTime>

        /* See if this tick has made a timeout expire.  Tasks are stored in
         * the  queue in the order of their wake time - meaning once one task
         * has been found whose block time has not expired there is no need to
         * look any further down the list. */
        if( xConstTickCount >= xNextTaskUnblockTime )
    1b04:	b641a783          	lw	a5,-1180(gp) # 200003bc <xNextTaskUnblockTime>
    1b08:	fe842703          	lw	a4,-24(s0)
    1b0c:	1cf76863          	bltu	a4,a5,1cdc <xTaskIncrementTick+0x23a>
        {
            for( ; ; )
            {
                if( listLIST_IS_EMPTY( pxDelayedTaskList ) != pdFALSE )
    1b10:	afc1a783          	lw	a5,-1284(gp) # 20000354 <pxDelayedTaskList>
    1b14:	439c                	lw	a5,0(a5)
    1b16:	e789                	bnez	a5,1b20 <xTaskIncrementTick+0x7e>
                    /* The delayed list is empty.  Set xNextTaskUnblockTime
                     * to the maximum possible value so it is extremely
                     * unlikely that the
                     * if( xTickCount >= xNextTaskUnblockTime ) test will pass
                     * next time through. */
                    xNextTaskUnblockTime = portMAX_DELAY;
    1b18:	577d                	li	a4,-1
    1b1a:	b6e1a223          	sw	a4,-1180(gp) # 200003bc <xNextTaskUnblockTime>
                    break;
    1b1e:	aa7d                	j	1cdc <xTaskIncrementTick+0x23a>
                     * at which the task at the head of the delayed list must
                     * be removed from the Blocked state. */
                    /* MISRA Ref 11.5.3 [Void pointer assignment] */
                    /* More details at: https://github.com/FreeRTOS/FreeRTOS-Kernel/blob/main/MISRA.md#rule-115 */
                    /* coverity[misra_c_2012_rule_11_5_violation] */
                    pxTCB = listGET_OWNER_OF_HEAD_ENTRY( pxDelayedTaskList );
    1b20:	afc1a783          	lw	a5,-1284(gp) # 20000354 <pxDelayedTaskList>
    1b24:	47dc                	lw	a5,12(a5)
    1b26:	47dc                	lw	a5,12(a5)
    1b28:	fef42023          	sw	a5,-32(s0)
                    xItemValue = listGET_LIST_ITEM_VALUE( &( pxTCB->xStateListItem ) );
    1b2c:	fe042783          	lw	a5,-32(s0)
    1b30:	43dc                	lw	a5,4(a5)
    1b32:	fcf42e23          	sw	a5,-36(s0)

                    if( xConstTickCount < xItemValue )
    1b36:	fe842703          	lw	a4,-24(s0)
    1b3a:	fdc42783          	lw	a5,-36(s0)
    1b3e:	00f77763          	bgeu	a4,a5,1b4c <xTaskIncrementTick+0xaa>
                        /* It is not time to unblock this item yet, but the
                         * item value is the time at which the task at the head
                         * of the blocked list must be removed from the Blocked
                         * state -  so record the item value in
                         * xNextTaskUnblockTime. */
                        xNextTaskUnblockTime = xItemValue;
    1b42:	fdc42703          	lw	a4,-36(s0)
    1b46:	b6e1a223          	sw	a4,-1180(gp) # 200003bc <xNextTaskUnblockTime>
                        break;
    1b4a:	aa49                	j	1cdc <xTaskIncrementTick+0x23a>
                    {
                        mtCOVERAGE_TEST_MARKER();
                    }

                    /* It is time to remove the item from the Blocked state. */
                    listREMOVE_ITEM( &( pxTCB->xStateListItem ) );
    1b4c:	fe042783          	lw	a5,-32(s0)
    1b50:	4bdc                	lw	a5,20(a5)
    1b52:	fcf42c23          	sw	a5,-40(s0)
    1b56:	fe042783          	lw	a5,-32(s0)
    1b5a:	479c                	lw	a5,8(a5)
    1b5c:	fe042703          	lw	a4,-32(s0)
    1b60:	4758                	lw	a4,12(a4)
    1b62:	c798                	sw	a4,8(a5)
    1b64:	fe042783          	lw	a5,-32(s0)
    1b68:	47dc                	lw	a5,12(a5)
    1b6a:	fe042703          	lw	a4,-32(s0)
    1b6e:	4718                	lw	a4,8(a4)
    1b70:	c3d8                	sw	a4,4(a5)
    1b72:	fd842783          	lw	a5,-40(s0)
    1b76:	43d8                	lw	a4,4(a5)
    1b78:	fe042783          	lw	a5,-32(s0)
    1b7c:	0791                	addi	a5,a5,4
    1b7e:	00f71863          	bne	a4,a5,1b8e <xTaskIncrementTick+0xec>
    1b82:	fe042783          	lw	a5,-32(s0)
    1b86:	47d8                	lw	a4,12(a5)
    1b88:	fd842783          	lw	a5,-40(s0)
    1b8c:	c3d8                	sw	a4,4(a5)
    1b8e:	fe042783          	lw	a5,-32(s0)
    1b92:	0007aa23          	sw	zero,20(a5)
    1b96:	fd842783          	lw	a5,-40(s0)
    1b9a:	439c                	lw	a5,0(a5)
    1b9c:	fff78713          	addi	a4,a5,-1
    1ba0:	fd842783          	lw	a5,-40(s0)
    1ba4:	c398                	sw	a4,0(a5)

                    /* Is the task waiting on an event also?  If so remove
                     * it from the event list. */
                    if( listLIST_ITEM_CONTAINER( &( pxTCB->xEventListItem ) ) != NULL )
    1ba6:	fe042783          	lw	a5,-32(s0)
    1baa:	579c                	lw	a5,40(a5)
    1bac:	cfb1                	beqz	a5,1c08 <xTaskIncrementTick+0x166>
                    {
                        listREMOVE_ITEM( &( pxTCB->xEventListItem ) );
    1bae:	fe042783          	lw	a5,-32(s0)
    1bb2:	579c                	lw	a5,40(a5)
    1bb4:	fcf42a23          	sw	a5,-44(s0)
    1bb8:	fe042783          	lw	a5,-32(s0)
    1bbc:	4fdc                	lw	a5,28(a5)
    1bbe:	fe042703          	lw	a4,-32(s0)
    1bc2:	5318                	lw	a4,32(a4)
    1bc4:	c798                	sw	a4,8(a5)
    1bc6:	fe042783          	lw	a5,-32(s0)
    1bca:	539c                	lw	a5,32(a5)
    1bcc:	fe042703          	lw	a4,-32(s0)
    1bd0:	4f58                	lw	a4,28(a4)
    1bd2:	c3d8                	sw	a4,4(a5)
    1bd4:	fd442783          	lw	a5,-44(s0)
    1bd8:	43d8                	lw	a4,4(a5)
    1bda:	fe042783          	lw	a5,-32(s0)
    1bde:	07e1                	addi	a5,a5,24
    1be0:	00f71863          	bne	a4,a5,1bf0 <xTaskIncrementTick+0x14e>
    1be4:	fe042783          	lw	a5,-32(s0)
    1be8:	5398                	lw	a4,32(a5)
    1bea:	fd442783          	lw	a5,-44(s0)
    1bee:	c3d8                	sw	a4,4(a5)
    1bf0:	fe042783          	lw	a5,-32(s0)
    1bf4:	0207a423          	sw	zero,40(a5)
    1bf8:	fd442783          	lw	a5,-44(s0)
    1bfc:	439c                	lw	a5,0(a5)
    1bfe:	fff78713          	addi	a4,a5,-1
    1c02:	fd442783          	lw	a5,-44(s0)
    1c06:	c398                	sw	a4,0(a5)
                        mtCOVERAGE_TEST_MARKER();
                    }

                    /* Place the unblocked task into the appropriate ready
                     * list. */
                    prvAddTaskToReadyList( pxTCB );
    1c08:	fe042783          	lw	a5,-32(s0)
    1c0c:	57dc                	lw	a5,44(a5)
    1c0e:	4705                	li	a4,1
    1c10:	00f71733          	sll	a4,a4,a5
    1c14:	b4c1a783          	lw	a5,-1204(gp) # 200003a4 <uxTopReadyPriority>
    1c18:	8f5d                	or	a4,a4,a5
    1c1a:	b4e1a623          	sw	a4,-1204(gp) # 200003a4 <uxTopReadyPriority>
    1c1e:	fe042783          	lw	a5,-32(s0)
    1c22:	57d8                	lw	a4,44(a5)
    1c24:	200007b7          	lui	a5,0x20000
    1c28:	0ac78693          	addi	a3,a5,172 # 200000ac <pxReadyTasksLists>
    1c2c:	87ba                	mv	a5,a4
    1c2e:	078a                	slli	a5,a5,0x2
    1c30:	97ba                	add	a5,a5,a4
    1c32:	078a                	slli	a5,a5,0x2
    1c34:	97b6                	add	a5,a5,a3
    1c36:	43dc                	lw	a5,4(a5)
    1c38:	fcf42823          	sw	a5,-48(s0)
    1c3c:	fe042783          	lw	a5,-32(s0)
    1c40:	fd042703          	lw	a4,-48(s0)
    1c44:	c798                	sw	a4,8(a5)
    1c46:	fd042783          	lw	a5,-48(s0)
    1c4a:	4798                	lw	a4,8(a5)
    1c4c:	fe042783          	lw	a5,-32(s0)
    1c50:	c7d8                	sw	a4,12(a5)
    1c52:	fd042783          	lw	a5,-48(s0)
    1c56:	479c                	lw	a5,8(a5)
    1c58:	fe042703          	lw	a4,-32(s0)
    1c5c:	0711                	addi	a4,a4,4
    1c5e:	c3d8                	sw	a4,4(a5)
    1c60:	fe042783          	lw	a5,-32(s0)
    1c64:	00478713          	addi	a4,a5,4
    1c68:	fd042783          	lw	a5,-48(s0)
    1c6c:	c798                	sw	a4,8(a5)
    1c6e:	fe042783          	lw	a5,-32(s0)
    1c72:	57d8                	lw	a4,44(a5)
    1c74:	87ba                	mv	a5,a4
    1c76:	078a                	slli	a5,a5,0x2
    1c78:	97ba                	add	a5,a5,a4
    1c7a:	078a                	slli	a5,a5,0x2
    1c7c:	20000737          	lui	a4,0x20000
    1c80:	0ac70713          	addi	a4,a4,172 # 200000ac <pxReadyTasksLists>
    1c84:	973e                	add	a4,a4,a5
    1c86:	fe042783          	lw	a5,-32(s0)
    1c8a:	cbd8                	sw	a4,20(a5)
    1c8c:	fe042783          	lw	a5,-32(s0)
    1c90:	57d8                	lw	a4,44(a5)
    1c92:	200007b7          	lui	a5,0x20000
    1c96:	0ac78693          	addi	a3,a5,172 # 200000ac <pxReadyTasksLists>
    1c9a:	87ba                	mv	a5,a4
    1c9c:	078a                	slli	a5,a5,0x2
    1c9e:	97ba                	add	a5,a5,a4
    1ca0:	078a                	slli	a5,a5,0x2
    1ca2:	97b6                	add	a5,a5,a3
    1ca4:	439c                	lw	a5,0(a5)
    1ca6:	fe042703          	lw	a4,-32(s0)
    1caa:	5758                	lw	a4,44(a4)
    1cac:	00178693          	addi	a3,a5,1
    1cb0:	200007b7          	lui	a5,0x20000
    1cb4:	0ac78613          	addi	a2,a5,172 # 200000ac <pxReadyTasksLists>
    1cb8:	87ba                	mv	a5,a4
    1cba:	078a                	slli	a5,a5,0x2
    1cbc:	97ba                	add	a5,a5,a4
    1cbe:	078a                	slli	a5,a5,0x2
    1cc0:	97b2                	add	a5,a5,a2
    1cc2:	c394                	sw	a3,0(a5)
                             * task.
                             * The case of equal priority tasks sharing
                             * processing time (which happens when both
                             * preemption and time slicing are on) is
                             * handled below.*/
                            if( pxTCB->uxPriority > pxCurrentTCB->uxPriority )
    1cc4:	fe042783          	lw	a5,-32(s0)
    1cc8:	57d8                	lw	a4,44(a5)
    1cca:	8281a783          	lw	a5,-2008(gp) # 20000080 <pxCurrentTCB>
    1cce:	57dc                	lw	a5,44(a5)
    1cd0:	e4e7f0e3          	bgeu	a5,a4,1b10 <xTaskIncrementTick+0x6e>
                            {
                                xSwitchRequired = pdTRUE;
    1cd4:	4785                	li	a5,1
    1cd6:	fef42623          	sw	a5,-20(s0)
                if( listLIST_IS_EMPTY( pxDelayedTaskList ) != pdFALSE )
    1cda:	bd1d                	j	1b10 <xTaskIncrementTick+0x6e>
         * writer has not explicitly turned time slicing off. */
        #if ( ( configUSE_PREEMPTION == 1 ) && ( configUSE_TIME_SLICING == 1 ) )
        {
            #if ( configNUMBER_OF_CORES == 1 )
            {
                if( listCURRENT_LIST_LENGTH( &( pxReadyTasksLists[ pxCurrentTCB->uxPriority ] ) ) > 1U )
    1cdc:	8281a783          	lw	a5,-2008(gp) # 20000080 <pxCurrentTCB>
    1ce0:	57d8                	lw	a4,44(a5)
    1ce2:	200007b7          	lui	a5,0x20000
    1ce6:	0ac78693          	addi	a3,a5,172 # 200000ac <pxReadyTasksLists>
    1cea:	87ba                	mv	a5,a4
    1cec:	078a                	slli	a5,a5,0x2
    1cee:	97ba                	add	a5,a5,a4
    1cf0:	078a                	slli	a5,a5,0x2
    1cf2:	97b6                	add	a5,a5,a3
    1cf4:	4398                	lw	a4,0(a5)
    1cf6:	4785                	li	a5,1
    1cf8:	00e7f563          	bgeu	a5,a4,1d02 <xTaskIncrementTick+0x260>
                {
                    xSwitchRequired = pdTRUE;
    1cfc:	4785                	li	a5,1
    1cfe:	fef42623          	sw	a5,-20(s0)
        #if ( configUSE_PREEMPTION == 1 )
        {
            #if ( configNUMBER_OF_CORES == 1 )
            {
                /* For single core the core ID is always 0. */
                if( xYieldPendings[ 0 ] != pdFALSE )
    1d02:	b581a783          	lw	a5,-1192(gp) # 200003b0 <xYieldPendings>
    1d06:	cb99                	beqz	a5,1d1c <xTaskIncrementTick+0x27a>
                {
                    xSwitchRequired = pdTRUE;
    1d08:	4785                	li	a5,1
    1d0a:	fef42623          	sw	a5,-20(s0)
    1d0e:	a039                	j	1d1c <xTaskIncrementTick+0x27a>
        }
        #endif /* #if ( configUSE_PREEMPTION == 1 ) */
    }
    else
    {
        xPendedTicks += 1U;
    1d10:	b541a783          	lw	a5,-1196(gp) # 200003ac <xPendedTicks>
    1d14:	00178713          	addi	a4,a5,1
    1d18:	b4e1aa23          	sw	a4,-1196(gp) # 200003ac <xPendedTicks>
        #endif
    }

    traceRETURN_xTaskIncrementTick( xSwitchRequired );

    return xSwitchRequired;
    1d1c:	fec42783          	lw	a5,-20(s0)
}
    1d20:	853e                	mv	a0,a5
    1d22:	50b2                	lw	ra,44(sp)
    1d24:	5422                	lw	s0,40(sp)
    1d26:	6145                	addi	sp,sp,48
    1d28:	8082                	ret

00001d2a <vTaskSetApplicationTaskTag>:

#if ( configUSE_APPLICATION_TASK_TAG == 1 )

    void vTaskSetApplicationTaskTag( TaskHandle_t xTask,
                                     TaskHookFunction_t pxHookFunction )
    {
    1d2a:	7179                	addi	sp,sp,-48
    1d2c:	d606                	sw	ra,44(sp)
    1d2e:	d422                	sw	s0,40(sp)
    1d30:	1800                	addi	s0,sp,48
    1d32:	fca42e23          	sw	a0,-36(s0)
    1d36:	fcb42c23          	sw	a1,-40(s0)

        traceENTER_vTaskSetApplicationTaskTag( xTask, pxHookFunction );

        /* If xTask is NULL then it is the task hook of the calling task that is
         * getting set. */
        if( xTask == NULL )
    1d3a:	fdc42783          	lw	a5,-36(s0)
    1d3e:	e791                	bnez	a5,1d4a <vTaskSetApplicationTaskTag+0x20>
        {
            xTCB = ( TCB_t * ) pxCurrentTCB;
    1d40:	8281a783          	lw	a5,-2008(gp) # 20000080 <pxCurrentTCB>
    1d44:	fef42623          	sw	a5,-20(s0)
    1d48:	a029                	j	1d52 <vTaskSetApplicationTaskTag+0x28>
        }
        else
        {
            xTCB = xTask;
    1d4a:	fdc42783          	lw	a5,-36(s0)
    1d4e:	fef42623          	sw	a5,-20(s0)
        }

        /* Save the hook function in the TCB.  A critical section is required as
         * the value can be accessed from an interrupt. */
        taskENTER_CRITICAL();
    1d52:	30047073          	csrci	mstatus,8
    1d56:	8081a783          	lw	a5,-2040(gp) # 20000060 <xCriticalNesting>
    1d5a:	00178713          	addi	a4,a5,1
    1d5e:	80e1a423          	sw	a4,-2040(gp) # 20000060 <xCriticalNesting>
        {
            xTCB->pxTaskTag = pxHookFunction;
    1d62:	fec42783          	lw	a5,-20(s0)
    1d66:	fd842703          	lw	a4,-40(s0)
    1d6a:	c7f8                	sw	a4,76(a5)
        }
        taskEXIT_CRITICAL();
    1d6c:	8081a783          	lw	a5,-2040(gp) # 20000060 <xCriticalNesting>
    1d70:	fff78713          	addi	a4,a5,-1
    1d74:	80e1a423          	sw	a4,-2040(gp) # 20000060 <xCriticalNesting>
    1d78:	8081a783          	lw	a5,-2040(gp) # 20000060 <xCriticalNesting>
    1d7c:	e399                	bnez	a5,1d82 <vTaskSetApplicationTaskTag+0x58>
    1d7e:	30046073          	csrsi	mstatus,8

        traceRETURN_vTaskSetApplicationTaskTag();
    }
    1d82:	0001                	nop
    1d84:	50b2                	lw	ra,44(sp)
    1d86:	5422                	lw	s0,40(sp)
    1d88:	6145                	addi	sp,sp,48
    1d8a:	8082                	ret

00001d8c <xTaskGetApplicationTaskTag>:
/*-----------------------------------------------------------*/

#if ( configUSE_APPLICATION_TASK_TAG == 1 )

    TaskHookFunction_t xTaskGetApplicationTaskTag( TaskHandle_t xTask )
    {
    1d8c:	7179                	addi	sp,sp,-48
    1d8e:	d606                	sw	ra,44(sp)
    1d90:	d422                	sw	s0,40(sp)
    1d92:	1800                	addi	s0,sp,48
    1d94:	fca42e23          	sw	a0,-36(s0)
        TaskHookFunction_t xReturn;

        traceENTER_xTaskGetApplicationTaskTag( xTask );

        /* If xTask is NULL then set the calling task's hook. */
        pxTCB = prvGetTCBFromHandle( xTask );
    1d98:	fdc42783          	lw	a5,-36(s0)
    1d9c:	e791                	bnez	a5,1da8 <xTaskGetApplicationTaskTag+0x1c>
    1d9e:	8281a783          	lw	a5,-2008(gp) # 20000080 <pxCurrentTCB>
    1da2:	fef42623          	sw	a5,-20(s0)
    1da6:	a029                	j	1db0 <xTaskGetApplicationTaskTag+0x24>
    1da8:	fdc42783          	lw	a5,-36(s0)
    1dac:	fef42623          	sw	a5,-20(s0)
        configASSERT( pxTCB != NULL );
    1db0:	fec42783          	lw	a5,-20(s0)
    1db4:	e781                	bnez	a5,1dbc <xTaskGetApplicationTaskTag+0x30>
    1db6:	30047073          	csrci	mstatus,8
    1dba:	a001                	j	1dba <xTaskGetApplicationTaskTag+0x2e>

        /* Save the hook function in the TCB.  A critical section is required as
         * the value can be accessed from an interrupt. */
        taskENTER_CRITICAL();
    1dbc:	30047073          	csrci	mstatus,8
    1dc0:	8081a783          	lw	a5,-2040(gp) # 20000060 <xCriticalNesting>
    1dc4:	00178713          	addi	a4,a5,1
    1dc8:	80e1a423          	sw	a4,-2040(gp) # 20000060 <xCriticalNesting>
        {
            xReturn = pxTCB->pxTaskTag;
    1dcc:	fec42783          	lw	a5,-20(s0)
    1dd0:	47fc                	lw	a5,76(a5)
    1dd2:	fef42423          	sw	a5,-24(s0)
        }
        taskEXIT_CRITICAL();
    1dd6:	8081a783          	lw	a5,-2040(gp) # 20000060 <xCriticalNesting>
    1dda:	fff78713          	addi	a4,a5,-1
    1dde:	80e1a423          	sw	a4,-2040(gp) # 20000060 <xCriticalNesting>
    1de2:	8081a783          	lw	a5,-2040(gp) # 20000060 <xCriticalNesting>
    1de6:	e399                	bnez	a5,1dec <xTaskGetApplicationTaskTag+0x60>
    1de8:	30046073          	csrsi	mstatus,8

        traceRETURN_xTaskGetApplicationTaskTag( xReturn );

        return xReturn;
    1dec:	fe842783          	lw	a5,-24(s0)
    }
    1df0:	853e                	mv	a0,a5
    1df2:	50b2                	lw	ra,44(sp)
    1df4:	5422                	lw	s0,40(sp)
    1df6:	6145                	addi	sp,sp,48
    1df8:	8082                	ret

00001dfa <xTaskGetApplicationTaskTagFromISR>:
/*-----------------------------------------------------------*/

#if ( configUSE_APPLICATION_TASK_TAG == 1 )

    TaskHookFunction_t xTaskGetApplicationTaskTagFromISR( TaskHandle_t xTask )
    {
    1dfa:	7179                	addi	sp,sp,-48
    1dfc:	d606                	sw	ra,44(sp)
    1dfe:	d422                	sw	s0,40(sp)
    1e00:	1800                	addi	s0,sp,48
    1e02:	fca42e23          	sw	a0,-36(s0)
        UBaseType_t uxSavedInterruptStatus;

        traceENTER_xTaskGetApplicationTaskTagFromISR( xTask );

        /* If xTask is NULL then set the calling task's hook. */
        pxTCB = prvGetTCBFromHandle( xTask );
    1e06:	fdc42783          	lw	a5,-36(s0)
    1e0a:	e791                	bnez	a5,1e16 <xTaskGetApplicationTaskTagFromISR+0x1c>
    1e0c:	8281a783          	lw	a5,-2008(gp) # 20000080 <pxCurrentTCB>
    1e10:	fef42623          	sw	a5,-20(s0)
    1e14:	a029                	j	1e1e <xTaskGetApplicationTaskTagFromISR+0x24>
    1e16:	fdc42783          	lw	a5,-36(s0)
    1e1a:	fef42623          	sw	a5,-20(s0)
        configASSERT( pxTCB != NULL );
    1e1e:	fec42783          	lw	a5,-20(s0)
    1e22:	e781                	bnez	a5,1e2a <xTaskGetApplicationTaskTagFromISR+0x30>
    1e24:	30047073          	csrci	mstatus,8
    1e28:	a001                	j	1e28 <xTaskGetApplicationTaskTagFromISR+0x2e>
        /* Save the hook function in the TCB.  A critical section is required as
         * the value can be accessed from an interrupt. */
        /* MISRA Ref 4.7.1 [Return value shall be checked] */
        /* More details at: https://github.com/FreeRTOS/FreeRTOS-Kernel/blob/main/MISRA.md#dir-47 */
        /* coverity[misra_c_2012_directive_4_7_violation] */
        uxSavedInterruptStatus = taskENTER_CRITICAL_FROM_ISR();
    1e2a:	fe042423          	sw	zero,-24(s0)
        {
            xReturn = pxTCB->pxTaskTag;
    1e2e:	fec42783          	lw	a5,-20(s0)
    1e32:	47fc                	lw	a5,76(a5)
    1e34:	fef42223          	sw	a5,-28(s0)
        }
        taskEXIT_CRITICAL_FROM_ISR( uxSavedInterruptStatus );

        traceRETURN_xTaskGetApplicationTaskTagFromISR( xReturn );

        return xReturn;
    1e38:	fe442783          	lw	a5,-28(s0)
    }
    1e3c:	853e                	mv	a0,a5
    1e3e:	50b2                	lw	ra,44(sp)
    1e40:	5422                	lw	s0,40(sp)
    1e42:	6145                	addi	sp,sp,48
    1e44:	8082                	ret

00001e46 <xTaskCallApplicationTaskHook>:

#if ( configUSE_APPLICATION_TASK_TAG == 1 )

    BaseType_t xTaskCallApplicationTaskHook( TaskHandle_t xTask,
                                             void * pvParameter )
    {
    1e46:	7179                	addi	sp,sp,-48
    1e48:	d606                	sw	ra,44(sp)
    1e4a:	d422                	sw	s0,40(sp)
    1e4c:	1800                	addi	s0,sp,48
    1e4e:	fca42e23          	sw	a0,-36(s0)
    1e52:	fcb42c23          	sw	a1,-40(s0)
        BaseType_t xReturn;

        traceENTER_xTaskCallApplicationTaskHook( xTask, pvParameter );

        /* If xTask is NULL then we are calling our own task hook. */
        if( xTask == NULL )
    1e56:	fdc42783          	lw	a5,-36(s0)
    1e5a:	e791                	bnez	a5,1e66 <xTaskCallApplicationTaskHook+0x20>
        {
            xTCB = pxCurrentTCB;
    1e5c:	8281a783          	lw	a5,-2008(gp) # 20000080 <pxCurrentTCB>
    1e60:	fef42623          	sw	a5,-20(s0)
    1e64:	a029                	j	1e6e <xTaskCallApplicationTaskHook+0x28>
        }
        else
        {
            xTCB = xTask;
    1e66:	fdc42783          	lw	a5,-36(s0)
    1e6a:	fef42623          	sw	a5,-20(s0)
        }

        if( xTCB->pxTaskTag != NULL )
    1e6e:	fec42783          	lw	a5,-20(s0)
    1e72:	47fc                	lw	a5,76(a5)
    1e74:	cb91                	beqz	a5,1e88 <xTaskCallApplicationTaskHook+0x42>
        {
            xReturn = xTCB->pxTaskTag( pvParameter );
    1e76:	fec42783          	lw	a5,-20(s0)
    1e7a:	47fc                	lw	a5,76(a5)
    1e7c:	fd842503          	lw	a0,-40(s0)
    1e80:	9782                	jalr	a5
    1e82:	fea42423          	sw	a0,-24(s0)
    1e86:	a019                	j	1e8c <xTaskCallApplicationTaskHook+0x46>
        }
        else
        {
            xReturn = pdFAIL;
    1e88:	fe042423          	sw	zero,-24(s0)
        }

        traceRETURN_xTaskCallApplicationTaskHook( xReturn );

        return xReturn;
    1e8c:	fe842783          	lw	a5,-24(s0)
    }
    1e90:	853e                	mv	a0,a5
    1e92:	50b2                	lw	ra,44(sp)
    1e94:	5422                	lw	s0,40(sp)
    1e96:	6145                	addi	sp,sp,48
    1e98:	8082                	ret

00001e9a <vTaskSwitchContext>:
#endif /* configUSE_APPLICATION_TASK_TAG */
/*-----------------------------------------------------------*/

#if ( configNUMBER_OF_CORES == 1 )
    void vTaskSwitchContext( void )
    {
    1e9a:	7179                	addi	sp,sp,-48
    1e9c:	d606                	sw	ra,44(sp)
    1e9e:	d422                	sw	s0,40(sp)
    1ea0:	1800                	addi	s0,sp,48
        traceENTER_vTaskSwitchContext();

        if( uxSchedulerSuspended != ( UBaseType_t ) 0U )
    1ea2:	b6c1a783          	lw	a5,-1172(gp) # 200003c4 <uxSchedulerSuspended>
    1ea6:	c789                	beqz	a5,1eb0 <vTaskSwitchContext+0x16>
        {
            /* The scheduler is currently suspended - do not allow a context
             * switch. */
            xYieldPendings[ 0 ] = pdTRUE;
    1ea8:	4705                	li	a4,1
    1eaa:	b4e1ac23          	sw	a4,-1192(gp) # 200003b0 <xYieldPendings>
            }
            #endif
        }

        traceRETURN_vTaskSwitchContext();
    }
    1eae:	a239                	j	1fbc <vTaskSwitchContext+0x122>
            xYieldPendings[ 0 ] = pdFALSE;
    1eb0:	b401ac23          	sw	zero,-1192(gp) # 200003b0 <xYieldPendings>
            taskCHECK_FOR_STACK_OVERFLOW();
    1eb4:	8281a783          	lw	a5,-2008(gp) # 20000080 <pxCurrentTCB>
    1eb8:	5b9c                	lw	a5,48(a5)
    1eba:	fef42623          	sw	a5,-20(s0)
    1ebe:	a5a5a7b7          	lui	a5,0xa5a5a
    1ec2:	5a578793          	addi	a5,a5,1445 # a5a5a5a5 <__freertos_irq_stack_top+0x85a525a5>
    1ec6:	fef42423          	sw	a5,-24(s0)
    1eca:	8281a783          	lw	a5,-2008(gp) # 20000080 <pxCurrentTCB>
    1ece:	4398                	lw	a4,0(a5)
    1ed0:	8281a783          	lw	a5,-2008(gp) # 20000080 <pxCurrentTCB>
    1ed4:	5b9c                	lw	a5,48(a5)
    1ed6:	04e7f163          	bgeu	a5,a4,1f18 <vTaskSwitchContext+0x7e>
    1eda:	fec42783          	lw	a5,-20(s0)
    1ede:	439c                	lw	a5,0(a5)
    1ee0:	fe842703          	lw	a4,-24(s0)
    1ee4:	02f71a63          	bne	a4,a5,1f18 <vTaskSwitchContext+0x7e>
    1ee8:	fec42783          	lw	a5,-20(s0)
    1eec:	0791                	addi	a5,a5,4
    1eee:	439c                	lw	a5,0(a5)
    1ef0:	fe842703          	lw	a4,-24(s0)
    1ef4:	02f71263          	bne	a4,a5,1f18 <vTaskSwitchContext+0x7e>
    1ef8:	fec42783          	lw	a5,-20(s0)
    1efc:	07a1                	addi	a5,a5,8
    1efe:	439c                	lw	a5,0(a5)
    1f00:	fe842703          	lw	a4,-24(s0)
    1f04:	00f71a63          	bne	a4,a5,1f18 <vTaskSwitchContext+0x7e>
    1f08:	fec42783          	lw	a5,-20(s0)
    1f0c:	07b1                	addi	a5,a5,12
    1f0e:	439c                	lw	a5,0(a5)
    1f10:	fe842703          	lw	a4,-24(s0)
    1f14:	00f70f63          	beq	a4,a5,1f32 <vTaskSwitchContext+0x98>
    1f18:	8281a783          	lw	a5,-2008(gp) # 20000080 <pxCurrentTCB>
    1f1c:	03478793          	addi	a5,a5,52
    1f20:	fef42223          	sw	a5,-28(s0)
    1f24:	8281a783          	lw	a5,-2008(gp) # 20000080 <pxCurrentTCB>
    1f28:	fe442583          	lw	a1,-28(s0)
    1f2c:	853e                	mv	a0,a5
    1f2e:	cf2fe0ef          	jal	420 <vApplicationStackOverflowHook>
            taskSELECT_HIGHEST_PRIORITY_TASK();
    1f32:	b4c1a783          	lw	a5,-1204(gp) # 200003a4 <uxTopReadyPriority>
    1f36:	853e                	mv	a0,a5
    1f38:	1e4050ef          	jal	711c <__clzsi2>
    1f3c:	87aa                	mv	a5,a0
    1f3e:	873e                	mv	a4,a5
    1f40:	47fd                	li	a5,31
    1f42:	8f99                	sub	a5,a5,a4
    1f44:	fef42023          	sw	a5,-32(s0)
    1f48:	200007b7          	lui	a5,0x20000
    1f4c:	0ac78693          	addi	a3,a5,172 # 200000ac <pxReadyTasksLists>
    1f50:	fe042703          	lw	a4,-32(s0)
    1f54:	87ba                	mv	a5,a4
    1f56:	078a                	slli	a5,a5,0x2
    1f58:	97ba                	add	a5,a5,a4
    1f5a:	078a                	slli	a5,a5,0x2
    1f5c:	97b6                	add	a5,a5,a3
    1f5e:	439c                	lw	a5,0(a5)
    1f60:	e781                	bnez	a5,1f68 <vTaskSwitchContext+0xce>
    1f62:	30047073          	csrci	mstatus,8
    1f66:	a001                	j	1f66 <vTaskSwitchContext+0xcc>
    1f68:	fe042703          	lw	a4,-32(s0)
    1f6c:	87ba                	mv	a5,a4
    1f6e:	078a                	slli	a5,a5,0x2
    1f70:	97ba                	add	a5,a5,a4
    1f72:	078a                	slli	a5,a5,0x2
    1f74:	20000737          	lui	a4,0x20000
    1f78:	0ac70713          	addi	a4,a4,172 # 200000ac <pxReadyTasksLists>
    1f7c:	97ba                	add	a5,a5,a4
    1f7e:	fcf42e23          	sw	a5,-36(s0)
    1f82:	fdc42783          	lw	a5,-36(s0)
    1f86:	43dc                	lw	a5,4(a5)
    1f88:	43d8                	lw	a4,4(a5)
    1f8a:	fdc42783          	lw	a5,-36(s0)
    1f8e:	c3d8                	sw	a4,4(a5)
    1f90:	fdc42783          	lw	a5,-36(s0)
    1f94:	43d8                	lw	a4,4(a5)
    1f96:	fdc42783          	lw	a5,-36(s0)
    1f9a:	07a1                	addi	a5,a5,8
    1f9c:	00f71863          	bne	a4,a5,1fac <vTaskSwitchContext+0x112>
    1fa0:	fdc42783          	lw	a5,-36(s0)
    1fa4:	47d8                	lw	a4,12(a5)
    1fa6:	fdc42783          	lw	a5,-36(s0)
    1faa:	c3d8                	sw	a4,4(a5)
    1fac:	fdc42783          	lw	a5,-36(s0)
    1fb0:	43dc                	lw	a5,4(a5)
    1fb2:	47d8                	lw	a4,12(a5)
    1fb4:	82e1a423          	sw	a4,-2008(gp) # 20000080 <pxCurrentTCB>
            portTASK_SWITCH_HOOK( pxCurrentTCB );
    1fb8:	8281a783          	lw	a5,-2008(gp) # 20000080 <pxCurrentTCB>
    }
    1fbc:	0001                	nop
    1fbe:	50b2                	lw	ra,44(sp)
    1fc0:	5422                	lw	s0,40(sp)
    1fc2:	6145                	addi	sp,sp,48
    1fc4:	8082                	ret

00001fc6 <vTaskPlaceOnEventList>:
#endif /* if ( configNUMBER_OF_CORES > 1 ) */
/*-----------------------------------------------------------*/

void vTaskPlaceOnEventList( List_t * const pxEventList,
                            const TickType_t xTicksToWait )
{
    1fc6:	1101                	addi	sp,sp,-32
    1fc8:	ce06                	sw	ra,28(sp)
    1fca:	cc22                	sw	s0,24(sp)
    1fcc:	1000                	addi	s0,sp,32
    1fce:	fea42623          	sw	a0,-20(s0)
    1fd2:	feb42423          	sw	a1,-24(s0)
    traceENTER_vTaskPlaceOnEventList( pxEventList, xTicksToWait );

    configASSERT( pxEventList );
    1fd6:	fec42783          	lw	a5,-20(s0)
    1fda:	e781                	bnez	a5,1fe2 <vTaskPlaceOnEventList+0x1c>
    1fdc:	30047073          	csrci	mstatus,8
    1fe0:	a001                	j	1fe0 <vTaskPlaceOnEventList+0x1a>
     *      xItemValue = ( configMAX_PRIORITIES - uxPriority )
     * Therefore, the event list is sorted in descending priority order.
     *
     * The queue that contains the event list is locked, preventing
     * simultaneous access from interrupts. */
    vListInsert( pxEventList, &( pxCurrentTCB->xEventListItem ) );
    1fe2:	8281a783          	lw	a5,-2008(gp) # 20000080 <pxCurrentTCB>
    1fe6:	07e1                	addi	a5,a5,24
    1fe8:	85be                	mv	a1,a5
    1fea:	fec42503          	lw	a0,-20(s0)
    1fee:	541010ef          	jal	3d2e <vListInsert>

    prvAddCurrentTaskToDelayedList( xTicksToWait, pdTRUE );
    1ff2:	4585                	li	a1,1
    1ff4:	fe842503          	lw	a0,-24(s0)
    1ff8:	2df010ef          	jal	3ad6 <prvAddCurrentTaskToDelayedList>

    traceRETURN_vTaskPlaceOnEventList();
}
    1ffc:	0001                	nop
    1ffe:	40f2                	lw	ra,28(sp)
    2000:	4462                	lw	s0,24(sp)
    2002:	6105                	addi	sp,sp,32
    2004:	8082                	ret

00002006 <vTaskPlaceOnUnorderedEventList>:
/*-----------------------------------------------------------*/

void vTaskPlaceOnUnorderedEventList( List_t * pxEventList,
                                     const TickType_t xItemValue,
                                     const TickType_t xTicksToWait )
{
    2006:	7179                	addi	sp,sp,-48
    2008:	d606                	sw	ra,44(sp)
    200a:	d422                	sw	s0,40(sp)
    200c:	1800                	addi	s0,sp,48
    200e:	fca42e23          	sw	a0,-36(s0)
    2012:	fcb42c23          	sw	a1,-40(s0)
    2016:	fcc42a23          	sw	a2,-44(s0)
    traceENTER_vTaskPlaceOnUnorderedEventList( pxEventList, xItemValue, xTicksToWait );

    configASSERT( pxEventList );
    201a:	fdc42783          	lw	a5,-36(s0)
    201e:	e781                	bnez	a5,2026 <vTaskPlaceOnUnorderedEventList+0x20>
    2020:	30047073          	csrci	mstatus,8
    2024:	a001                	j	2024 <vTaskPlaceOnUnorderedEventList+0x1e>

    /* THIS FUNCTION MUST BE CALLED WITH THE SCHEDULER SUSPENDED.  It is used by
     * the event groups implementation. */
    configASSERT( uxSchedulerSuspended != ( UBaseType_t ) 0U );
    2026:	b6c1a783          	lw	a5,-1172(gp) # 200003c4 <uxSchedulerSuspended>
    202a:	e781                	bnez	a5,2032 <vTaskPlaceOnUnorderedEventList+0x2c>
    202c:	30047073          	csrci	mstatus,8
    2030:	a001                	j	2030 <vTaskPlaceOnUnorderedEventList+0x2a>

    /* Store the item value in the event list item.  It is safe to access the
     * event list item here as interrupts won't access the event list item of a
     * task that is not in the Blocked state. */
    listSET_LIST_ITEM_VALUE( &( pxCurrentTCB->xEventListItem ), xItemValue | taskEVENT_LIST_ITEM_VALUE_IN_USE );
    2032:	8281a783          	lw	a5,-2008(gp) # 20000080 <pxCurrentTCB>
    2036:	fd842683          	lw	a3,-40(s0)
    203a:	80000737          	lui	a4,0x80000
    203e:	8f55                	or	a4,a4,a3
    2040:	cf98                	sw	a4,24(a5)
    /* Place the event list item of the TCB at the end of the appropriate event
     * list.  It is safe to access the event list here because it is part of an
     * event group implementation - and interrupts don't access event groups
     * directly (instead they access them indirectly by pending function calls to
     * the task level). */
    listINSERT_END( pxEventList, &( pxCurrentTCB->xEventListItem ) );
    2042:	fdc42783          	lw	a5,-36(s0)
    2046:	43dc                	lw	a5,4(a5)
    2048:	fef42623          	sw	a5,-20(s0)
    204c:	8281a783          	lw	a5,-2008(gp) # 20000080 <pxCurrentTCB>
    2050:	fec42703          	lw	a4,-20(s0)
    2054:	cfd8                	sw	a4,28(a5)
    2056:	8281a783          	lw	a5,-2008(gp) # 20000080 <pxCurrentTCB>
    205a:	fec42703          	lw	a4,-20(s0)
    205e:	4718                	lw	a4,8(a4)
    2060:	d398                	sw	a4,32(a5)
    2062:	8281a703          	lw	a4,-2008(gp) # 20000080 <pxCurrentTCB>
    2066:	fec42783          	lw	a5,-20(s0)
    206a:	479c                	lw	a5,8(a5)
    206c:	0761                	addi	a4,a4,24 # 80000018 <__freertos_irq_stack_top+0x5fff8018>
    206e:	c3d8                	sw	a4,4(a5)
    2070:	8281a783          	lw	a5,-2008(gp) # 20000080 <pxCurrentTCB>
    2074:	01878713          	addi	a4,a5,24
    2078:	fec42783          	lw	a5,-20(s0)
    207c:	c798                	sw	a4,8(a5)
    207e:	8281a783          	lw	a5,-2008(gp) # 20000080 <pxCurrentTCB>
    2082:	fdc42703          	lw	a4,-36(s0)
    2086:	d798                	sw	a4,40(a5)
    2088:	fdc42783          	lw	a5,-36(s0)
    208c:	439c                	lw	a5,0(a5)
    208e:	00178713          	addi	a4,a5,1
    2092:	fdc42783          	lw	a5,-36(s0)
    2096:	c398                	sw	a4,0(a5)

    prvAddCurrentTaskToDelayedList( xTicksToWait, pdTRUE );
    2098:	4585                	li	a1,1
    209a:	fd442503          	lw	a0,-44(s0)
    209e:	239010ef          	jal	3ad6 <prvAddCurrentTaskToDelayedList>

    traceRETURN_vTaskPlaceOnUnorderedEventList();
}
    20a2:	0001                	nop
    20a4:	50b2                	lw	ra,44(sp)
    20a6:	5422                	lw	s0,40(sp)
    20a8:	6145                	addi	sp,sp,48
    20aa:	8082                	ret

000020ac <xTaskRemoveFromEventList>:

#endif /* configUSE_TIMERS */
/*-----------------------------------------------------------*/

BaseType_t xTaskRemoveFromEventList( const List_t * const pxEventList )
{
    20ac:	7139                	addi	sp,sp,-64
    20ae:	de06                	sw	ra,60(sp)
    20b0:	dc22                	sw	s0,56(sp)
    20b2:	0080                	addi	s0,sp,64
    20b4:	fca42623          	sw	a0,-52(s0)
     * This function assumes that a check has already been made to ensure that
     * pxEventList is not empty. */
    /* MISRA Ref 11.5.3 [Void pointer assignment] */
    /* More details at: https://github.com/FreeRTOS/FreeRTOS-Kernel/blob/main/MISRA.md#rule-115 */
    /* coverity[misra_c_2012_rule_11_5_violation] */
    pxUnblockedTCB = listGET_OWNER_OF_HEAD_ENTRY( pxEventList );
    20b8:	fcc42783          	lw	a5,-52(s0)
    20bc:	47dc                	lw	a5,12(a5)
    20be:	47dc                	lw	a5,12(a5)
    20c0:	fef42423          	sw	a5,-24(s0)
    configASSERT( pxUnblockedTCB );
    20c4:	fe842783          	lw	a5,-24(s0)
    20c8:	e781                	bnez	a5,20d0 <xTaskRemoveFromEventList+0x24>
    20ca:	30047073          	csrci	mstatus,8
    20ce:	a001                	j	20ce <xTaskRemoveFromEventList+0x22>
    listREMOVE_ITEM( &( pxUnblockedTCB->xEventListItem ) );
    20d0:	fe842783          	lw	a5,-24(s0)
    20d4:	579c                	lw	a5,40(a5)
    20d6:	fef42223          	sw	a5,-28(s0)
    20da:	fe842783          	lw	a5,-24(s0)
    20de:	4fdc                	lw	a5,28(a5)
    20e0:	fe842703          	lw	a4,-24(s0)
    20e4:	5318                	lw	a4,32(a4)
    20e6:	c798                	sw	a4,8(a5)
    20e8:	fe842783          	lw	a5,-24(s0)
    20ec:	539c                	lw	a5,32(a5)
    20ee:	fe842703          	lw	a4,-24(s0)
    20f2:	4f58                	lw	a4,28(a4)
    20f4:	c3d8                	sw	a4,4(a5)
    20f6:	fe442783          	lw	a5,-28(s0)
    20fa:	43d8                	lw	a4,4(a5)
    20fc:	fe842783          	lw	a5,-24(s0)
    2100:	07e1                	addi	a5,a5,24
    2102:	00f71863          	bne	a4,a5,2112 <xTaskRemoveFromEventList+0x66>
    2106:	fe842783          	lw	a5,-24(s0)
    210a:	5398                	lw	a4,32(a5)
    210c:	fe442783          	lw	a5,-28(s0)
    2110:	c3d8                	sw	a4,4(a5)
    2112:	fe842783          	lw	a5,-24(s0)
    2116:	0207a423          	sw	zero,40(a5)
    211a:	fe442783          	lw	a5,-28(s0)
    211e:	439c                	lw	a5,0(a5)
    2120:	fff78713          	addi	a4,a5,-1
    2124:	fe442783          	lw	a5,-28(s0)
    2128:	c398                	sw	a4,0(a5)

    if( uxSchedulerSuspended == ( UBaseType_t ) 0U )
    212a:	b6c1a783          	lw	a5,-1172(gp) # 200003c4 <uxSchedulerSuspended>
    212e:	10079e63          	bnez	a5,224a <xTaskRemoveFromEventList+0x19e>
    {
        listREMOVE_ITEM( &( pxUnblockedTCB->xStateListItem ) );
    2132:	fe842783          	lw	a5,-24(s0)
    2136:	4bdc                	lw	a5,20(a5)
    2138:	fcf42e23          	sw	a5,-36(s0)
    213c:	fe842783          	lw	a5,-24(s0)
    2140:	479c                	lw	a5,8(a5)
    2142:	fe842703          	lw	a4,-24(s0)
    2146:	4758                	lw	a4,12(a4)
    2148:	c798                	sw	a4,8(a5)
    214a:	fe842783          	lw	a5,-24(s0)
    214e:	47dc                	lw	a5,12(a5)
    2150:	fe842703          	lw	a4,-24(s0)
    2154:	4718                	lw	a4,8(a4)
    2156:	c3d8                	sw	a4,4(a5)
    2158:	fdc42783          	lw	a5,-36(s0)
    215c:	43d8                	lw	a4,4(a5)
    215e:	fe842783          	lw	a5,-24(s0)
    2162:	0791                	addi	a5,a5,4
    2164:	00f71863          	bne	a4,a5,2174 <xTaskRemoveFromEventList+0xc8>
    2168:	fe842783          	lw	a5,-24(s0)
    216c:	47d8                	lw	a4,12(a5)
    216e:	fdc42783          	lw	a5,-36(s0)
    2172:	c3d8                	sw	a4,4(a5)
    2174:	fe842783          	lw	a5,-24(s0)
    2178:	0007aa23          	sw	zero,20(a5)
    217c:	fdc42783          	lw	a5,-36(s0)
    2180:	439c                	lw	a5,0(a5)
    2182:	fff78713          	addi	a4,a5,-1
    2186:	fdc42783          	lw	a5,-36(s0)
    218a:	c398                	sw	a4,0(a5)
        prvAddTaskToReadyList( pxUnblockedTCB );
    218c:	fe842783          	lw	a5,-24(s0)
    2190:	57dc                	lw	a5,44(a5)
    2192:	4705                	li	a4,1
    2194:	00f71733          	sll	a4,a4,a5
    2198:	b4c1a783          	lw	a5,-1204(gp) # 200003a4 <uxTopReadyPriority>
    219c:	8f5d                	or	a4,a4,a5
    219e:	b4e1a623          	sw	a4,-1204(gp) # 200003a4 <uxTopReadyPriority>
    21a2:	fe842783          	lw	a5,-24(s0)
    21a6:	57d8                	lw	a4,44(a5)
    21a8:	200007b7          	lui	a5,0x20000
    21ac:	0ac78693          	addi	a3,a5,172 # 200000ac <pxReadyTasksLists>
    21b0:	87ba                	mv	a5,a4
    21b2:	078a                	slli	a5,a5,0x2
    21b4:	97ba                	add	a5,a5,a4
    21b6:	078a                	slli	a5,a5,0x2
    21b8:	97b6                	add	a5,a5,a3
    21ba:	43dc                	lw	a5,4(a5)
    21bc:	fcf42c23          	sw	a5,-40(s0)
    21c0:	fe842783          	lw	a5,-24(s0)
    21c4:	fd842703          	lw	a4,-40(s0)
    21c8:	c798                	sw	a4,8(a5)
    21ca:	fd842783          	lw	a5,-40(s0)
    21ce:	4798                	lw	a4,8(a5)
    21d0:	fe842783          	lw	a5,-24(s0)
    21d4:	c7d8                	sw	a4,12(a5)
    21d6:	fd842783          	lw	a5,-40(s0)
    21da:	479c                	lw	a5,8(a5)
    21dc:	fe842703          	lw	a4,-24(s0)
    21e0:	0711                	addi	a4,a4,4
    21e2:	c3d8                	sw	a4,4(a5)
    21e4:	fe842783          	lw	a5,-24(s0)
    21e8:	00478713          	addi	a4,a5,4
    21ec:	fd842783          	lw	a5,-40(s0)
    21f0:	c798                	sw	a4,8(a5)
    21f2:	fe842783          	lw	a5,-24(s0)
    21f6:	57d8                	lw	a4,44(a5)
    21f8:	87ba                	mv	a5,a4
    21fa:	078a                	slli	a5,a5,0x2
    21fc:	97ba                	add	a5,a5,a4
    21fe:	078a                	slli	a5,a5,0x2
    2200:	20000737          	lui	a4,0x20000
    2204:	0ac70713          	addi	a4,a4,172 # 200000ac <pxReadyTasksLists>
    2208:	973e                	add	a4,a4,a5
    220a:	fe842783          	lw	a5,-24(s0)
    220e:	cbd8                	sw	a4,20(a5)
    2210:	fe842783          	lw	a5,-24(s0)
    2214:	57d8                	lw	a4,44(a5)
    2216:	200007b7          	lui	a5,0x20000
    221a:	0ac78693          	addi	a3,a5,172 # 200000ac <pxReadyTasksLists>
    221e:	87ba                	mv	a5,a4
    2220:	078a                	slli	a5,a5,0x2
    2222:	97ba                	add	a5,a5,a4
    2224:	078a                	slli	a5,a5,0x2
    2226:	97b6                	add	a5,a5,a3
    2228:	439c                	lw	a5,0(a5)
    222a:	fe842703          	lw	a4,-24(s0)
    222e:	5758                	lw	a4,44(a4)
    2230:	00178693          	addi	a3,a5,1
    2234:	200007b7          	lui	a5,0x20000
    2238:	0ac78613          	addi	a2,a5,172 # 200000ac <pxReadyTasksLists>
    223c:	87ba                	mv	a5,a4
    223e:	078a                	slli	a5,a5,0x2
    2240:	97ba                	add	a5,a5,a4
    2242:	078a                	slli	a5,a5,0x2
    2244:	97b2                	add	a5,a5,a2
    2246:	c394                	sw	a3,0(a5)
    2248:	a8a1                	j	22a0 <xTaskRemoveFromEventList+0x1f4>
    }
    else
    {
        /* The delayed and ready lists cannot be accessed, so hold this task
         * pending until the scheduler is resumed. */
        listINSERT_END( &( xPendingReadyList ), &( pxUnblockedTCB->xEventListItem ) );
    224a:	b0418793          	addi	a5,gp,-1276 # 2000035c <xPendingReadyList>
    224e:	43dc                	lw	a5,4(a5)
    2250:	fef42023          	sw	a5,-32(s0)
    2254:	fe842783          	lw	a5,-24(s0)
    2258:	fe042703          	lw	a4,-32(s0)
    225c:	cfd8                	sw	a4,28(a5)
    225e:	fe042783          	lw	a5,-32(s0)
    2262:	4798                	lw	a4,8(a5)
    2264:	fe842783          	lw	a5,-24(s0)
    2268:	d398                	sw	a4,32(a5)
    226a:	fe042783          	lw	a5,-32(s0)
    226e:	479c                	lw	a5,8(a5)
    2270:	fe842703          	lw	a4,-24(s0)
    2274:	0761                	addi	a4,a4,24
    2276:	c3d8                	sw	a4,4(a5)
    2278:	fe842783          	lw	a5,-24(s0)
    227c:	01878713          	addi	a4,a5,24
    2280:	fe042783          	lw	a5,-32(s0)
    2284:	c798                	sw	a4,8(a5)
    2286:	fe842783          	lw	a5,-24(s0)
    228a:	b0418713          	addi	a4,gp,-1276 # 2000035c <xPendingReadyList>
    228e:	d798                	sw	a4,40(a5)
    2290:	b0418793          	addi	a5,gp,-1276 # 2000035c <xPendingReadyList>
    2294:	439c                	lw	a5,0(a5)
    2296:	00178713          	addi	a4,a5,1
    229a:	b0418793          	addi	a5,gp,-1276 # 2000035c <xPendingReadyList>
    229e:	c398                	sw	a4,0(a5)
    }

    #if ( configNUMBER_OF_CORES == 1 )
    {
        if( pxUnblockedTCB->uxPriority > pxCurrentTCB->uxPriority )
    22a0:	fe842783          	lw	a5,-24(s0)
    22a4:	57d8                	lw	a4,44(a5)
    22a6:	8281a783          	lw	a5,-2008(gp) # 20000080 <pxCurrentTCB>
    22aa:	57dc                	lw	a5,44(a5)
    22ac:	00e7f963          	bgeu	a5,a4,22be <xTaskRemoveFromEventList+0x212>
        {
            /* Return true if the task removed from the event list has a higher
             * priority than the calling task.  This allows the calling task to know if
             * it should force a context switch now. */
            xReturn = pdTRUE;
    22b0:	4785                	li	a5,1
    22b2:	fef42623          	sw	a5,-20(s0)

            /* Mark that a yield is pending in case the user is not using the
             * "xHigherPriorityTaskWoken" parameter to an ISR safe FreeRTOS function. */
            xYieldPendings[ 0 ] = pdTRUE;
    22b6:	4705                	li	a4,1
    22b8:	b4e1ac23          	sw	a4,-1192(gp) # 200003b0 <xYieldPendings>
    22bc:	a019                	j	22c2 <xTaskRemoveFromEventList+0x216>
        }
        else
        {
            xReturn = pdFALSE;
    22be:	fe042623          	sw	zero,-20(s0)
        #endif /* #if ( configUSE_PREEMPTION == 1 ) */
    }
    #endif /* #if ( configNUMBER_OF_CORES == 1 ) */

    traceRETURN_xTaskRemoveFromEventList( xReturn );
    return xReturn;
    22c2:	fec42783          	lw	a5,-20(s0)
}
    22c6:	853e                	mv	a0,a5
    22c8:	50f2                	lw	ra,60(sp)
    22ca:	5462                	lw	s0,56(sp)
    22cc:	6121                	addi	sp,sp,64
    22ce:	8082                	ret

000022d0 <vTaskRemoveFromUnorderedEventList>:
/*-----------------------------------------------------------*/

void vTaskRemoveFromUnorderedEventList( ListItem_t * pxEventListItem,
                                        const TickType_t xItemValue )
{
    22d0:	7179                	addi	sp,sp,-48
    22d2:	d606                	sw	ra,44(sp)
    22d4:	d422                	sw	s0,40(sp)
    22d6:	1800                	addi	s0,sp,48
    22d8:	fca42e23          	sw	a0,-36(s0)
    22dc:	fcb42c23          	sw	a1,-40(s0)

    traceENTER_vTaskRemoveFromUnorderedEventList( pxEventListItem, xItemValue );

    /* THIS FUNCTION MUST BE CALLED WITH THE SCHEDULER SUSPENDED.  It is used by
     * the event flags implementation. */
    configASSERT( uxSchedulerSuspended != ( UBaseType_t ) 0U );
    22e0:	b6c1a783          	lw	a5,-1172(gp) # 200003c4 <uxSchedulerSuspended>
    22e4:	e781                	bnez	a5,22ec <vTaskRemoveFromUnorderedEventList+0x1c>
    22e6:	30047073          	csrci	mstatus,8
    22ea:	a001                	j	22ea <vTaskRemoveFromUnorderedEventList+0x1a>

    /* Store the new item value in the event list. */
    listSET_LIST_ITEM_VALUE( pxEventListItem, xItemValue | taskEVENT_LIST_ITEM_VALUE_IN_USE );
    22ec:	fd842703          	lw	a4,-40(s0)
    22f0:	800007b7          	lui	a5,0x80000
    22f4:	8f5d                	or	a4,a4,a5
    22f6:	fdc42783          	lw	a5,-36(s0)
    22fa:	c398                	sw	a4,0(a5)
    /* Remove the event list form the event flag.  Interrupts do not access
     * event flags. */
    /* MISRA Ref 11.5.3 [Void pointer assignment] */
    /* More details at: https://github.com/FreeRTOS/FreeRTOS-Kernel/blob/main/MISRA.md#rule-115 */
    /* coverity[misra_c_2012_rule_11_5_violation] */
    pxUnblockedTCB = listGET_LIST_ITEM_OWNER( pxEventListItem );
    22fc:	fdc42783          	lw	a5,-36(s0)
    2300:	47dc                	lw	a5,12(a5)
    2302:	fef42623          	sw	a5,-20(s0)
    configASSERT( pxUnblockedTCB );
    2306:	fec42783          	lw	a5,-20(s0)
    230a:	e781                	bnez	a5,2312 <vTaskRemoveFromUnorderedEventList+0x42>
    230c:	30047073          	csrci	mstatus,8
    2310:	a001                	j	2310 <vTaskRemoveFromUnorderedEventList+0x40>
    listREMOVE_ITEM( pxEventListItem );
    2312:	fdc42783          	lw	a5,-36(s0)
    2316:	4b9c                	lw	a5,16(a5)
    2318:	fef42423          	sw	a5,-24(s0)
    231c:	fdc42783          	lw	a5,-36(s0)
    2320:	43dc                	lw	a5,4(a5)
    2322:	fdc42703          	lw	a4,-36(s0)
    2326:	4718                	lw	a4,8(a4)
    2328:	c798                	sw	a4,8(a5)
    232a:	fdc42783          	lw	a5,-36(s0)
    232e:	479c                	lw	a5,8(a5)
    2330:	fdc42703          	lw	a4,-36(s0)
    2334:	4358                	lw	a4,4(a4)
    2336:	c3d8                	sw	a4,4(a5)
    2338:	fe842783          	lw	a5,-24(s0)
    233c:	43dc                	lw	a5,4(a5)
    233e:	fdc42703          	lw	a4,-36(s0)
    2342:	00f71863          	bne	a4,a5,2352 <vTaskRemoveFromUnorderedEventList+0x82>
    2346:	fdc42783          	lw	a5,-36(s0)
    234a:	4798                	lw	a4,8(a5)
    234c:	fe842783          	lw	a5,-24(s0)
    2350:	c3d8                	sw	a4,4(a5)
    2352:	fdc42783          	lw	a5,-36(s0)
    2356:	0007a823          	sw	zero,16(a5) # 80000010 <__freertos_irq_stack_top+0x5fff8010>
    235a:	fe842783          	lw	a5,-24(s0)
    235e:	439c                	lw	a5,0(a5)
    2360:	fff78713          	addi	a4,a5,-1
    2364:	fe842783          	lw	a5,-24(s0)
    2368:	c398                	sw	a4,0(a5)
    #endif

    /* Remove the task from the delayed list and add it to the ready list.  The
     * scheduler is suspended so interrupts will not be accessing the ready
     * lists. */
    listREMOVE_ITEM( &( pxUnblockedTCB->xStateListItem ) );
    236a:	fec42783          	lw	a5,-20(s0)
    236e:	4bdc                	lw	a5,20(a5)
    2370:	fef42223          	sw	a5,-28(s0)
    2374:	fec42783          	lw	a5,-20(s0)
    2378:	479c                	lw	a5,8(a5)
    237a:	fec42703          	lw	a4,-20(s0)
    237e:	4758                	lw	a4,12(a4)
    2380:	c798                	sw	a4,8(a5)
    2382:	fec42783          	lw	a5,-20(s0)
    2386:	47dc                	lw	a5,12(a5)
    2388:	fec42703          	lw	a4,-20(s0)
    238c:	4718                	lw	a4,8(a4)
    238e:	c3d8                	sw	a4,4(a5)
    2390:	fe442783          	lw	a5,-28(s0)
    2394:	43d8                	lw	a4,4(a5)
    2396:	fec42783          	lw	a5,-20(s0)
    239a:	0791                	addi	a5,a5,4
    239c:	00f71863          	bne	a4,a5,23ac <vTaskRemoveFromUnorderedEventList+0xdc>
    23a0:	fec42783          	lw	a5,-20(s0)
    23a4:	47d8                	lw	a4,12(a5)
    23a6:	fe442783          	lw	a5,-28(s0)
    23aa:	c3d8                	sw	a4,4(a5)
    23ac:	fec42783          	lw	a5,-20(s0)
    23b0:	0007aa23          	sw	zero,20(a5)
    23b4:	fe442783          	lw	a5,-28(s0)
    23b8:	439c                	lw	a5,0(a5)
    23ba:	fff78713          	addi	a4,a5,-1
    23be:	fe442783          	lw	a5,-28(s0)
    23c2:	c398                	sw	a4,0(a5)
    prvAddTaskToReadyList( pxUnblockedTCB );
    23c4:	fec42783          	lw	a5,-20(s0)
    23c8:	57dc                	lw	a5,44(a5)
    23ca:	4705                	li	a4,1
    23cc:	00f71733          	sll	a4,a4,a5
    23d0:	b4c1a783          	lw	a5,-1204(gp) # 200003a4 <uxTopReadyPriority>
    23d4:	8f5d                	or	a4,a4,a5
    23d6:	b4e1a623          	sw	a4,-1204(gp) # 200003a4 <uxTopReadyPriority>
    23da:	fec42783          	lw	a5,-20(s0)
    23de:	57d8                	lw	a4,44(a5)
    23e0:	200007b7          	lui	a5,0x20000
    23e4:	0ac78693          	addi	a3,a5,172 # 200000ac <pxReadyTasksLists>
    23e8:	87ba                	mv	a5,a4
    23ea:	078a                	slli	a5,a5,0x2
    23ec:	97ba                	add	a5,a5,a4
    23ee:	078a                	slli	a5,a5,0x2
    23f0:	97b6                	add	a5,a5,a3
    23f2:	43dc                	lw	a5,4(a5)
    23f4:	fef42023          	sw	a5,-32(s0)
    23f8:	fec42783          	lw	a5,-20(s0)
    23fc:	fe042703          	lw	a4,-32(s0)
    2400:	c798                	sw	a4,8(a5)
    2402:	fe042783          	lw	a5,-32(s0)
    2406:	4798                	lw	a4,8(a5)
    2408:	fec42783          	lw	a5,-20(s0)
    240c:	c7d8                	sw	a4,12(a5)
    240e:	fe042783          	lw	a5,-32(s0)
    2412:	479c                	lw	a5,8(a5)
    2414:	fec42703          	lw	a4,-20(s0)
    2418:	0711                	addi	a4,a4,4
    241a:	c3d8                	sw	a4,4(a5)
    241c:	fec42783          	lw	a5,-20(s0)
    2420:	00478713          	addi	a4,a5,4
    2424:	fe042783          	lw	a5,-32(s0)
    2428:	c798                	sw	a4,8(a5)
    242a:	fec42783          	lw	a5,-20(s0)
    242e:	57d8                	lw	a4,44(a5)
    2430:	87ba                	mv	a5,a4
    2432:	078a                	slli	a5,a5,0x2
    2434:	97ba                	add	a5,a5,a4
    2436:	078a                	slli	a5,a5,0x2
    2438:	20000737          	lui	a4,0x20000
    243c:	0ac70713          	addi	a4,a4,172 # 200000ac <pxReadyTasksLists>
    2440:	973e                	add	a4,a4,a5
    2442:	fec42783          	lw	a5,-20(s0)
    2446:	cbd8                	sw	a4,20(a5)
    2448:	fec42783          	lw	a5,-20(s0)
    244c:	57d8                	lw	a4,44(a5)
    244e:	200007b7          	lui	a5,0x20000
    2452:	0ac78693          	addi	a3,a5,172 # 200000ac <pxReadyTasksLists>
    2456:	87ba                	mv	a5,a4
    2458:	078a                	slli	a5,a5,0x2
    245a:	97ba                	add	a5,a5,a4
    245c:	078a                	slli	a5,a5,0x2
    245e:	97b6                	add	a5,a5,a3
    2460:	439c                	lw	a5,0(a5)
    2462:	fec42703          	lw	a4,-20(s0)
    2466:	5758                	lw	a4,44(a4)
    2468:	00178693          	addi	a3,a5,1
    246c:	200007b7          	lui	a5,0x20000
    2470:	0ac78613          	addi	a2,a5,172 # 200000ac <pxReadyTasksLists>
    2474:	87ba                	mv	a5,a4
    2476:	078a                	slli	a5,a5,0x2
    2478:	97ba                	add	a5,a5,a4
    247a:	078a                	slli	a5,a5,0x2
    247c:	97b2                	add	a5,a5,a2
    247e:	c394                	sw	a3,0(a5)

    #if ( configNUMBER_OF_CORES == 1 )
    {
        if( pxUnblockedTCB->uxPriority > pxCurrentTCB->uxPriority )
    2480:	fec42783          	lw	a5,-20(s0)
    2484:	57d8                	lw	a4,44(a5)
    2486:	8281a783          	lw	a5,-2008(gp) # 20000080 <pxCurrentTCB>
    248a:	57dc                	lw	a5,44(a5)
    248c:	00e7f563          	bgeu	a5,a4,2496 <vTaskRemoveFromUnorderedEventList+0x1c6>
        {
            /* The unblocked task has a priority above that of the calling task, so
             * a context switch is required.  This function is called with the
             * scheduler suspended so xYieldPending is set so the context switch
             * occurs immediately that the scheduler is resumed (unsuspended). */
            xYieldPendings[ 0 ] = pdTRUE;
    2490:	4705                	li	a4,1
    2492:	b4e1ac23          	sw	a4,-1192(gp) # 200003b0 <xYieldPendings>
        #endif
    }
    #endif /* #if ( configNUMBER_OF_CORES == 1 ) */

    traceRETURN_vTaskRemoveFromUnorderedEventList();
}
    2496:	0001                	nop
    2498:	50b2                	lw	ra,44(sp)
    249a:	5422                	lw	s0,40(sp)
    249c:	6145                	addi	sp,sp,48
    249e:	8082                	ret

000024a0 <vTaskSetTimeOutState>:
/*-----------------------------------------------------------*/

void vTaskSetTimeOutState( TimeOut_t * const pxTimeOut )
{
    24a0:	1101                	addi	sp,sp,-32
    24a2:	ce06                	sw	ra,28(sp)
    24a4:	cc22                	sw	s0,24(sp)
    24a6:	1000                	addi	s0,sp,32
    24a8:	fea42623          	sw	a0,-20(s0)
    traceENTER_vTaskSetTimeOutState( pxTimeOut );

    configASSERT( pxTimeOut );
    24ac:	fec42783          	lw	a5,-20(s0)
    24b0:	e781                	bnez	a5,24b8 <vTaskSetTimeOutState+0x18>
    24b2:	30047073          	csrci	mstatus,8
    24b6:	a001                	j	24b6 <vTaskSetTimeOutState+0x16>
    taskENTER_CRITICAL();
    24b8:	30047073          	csrci	mstatus,8
    24bc:	8081a783          	lw	a5,-2040(gp) # 20000060 <xCriticalNesting>
    24c0:	00178713          	addi	a4,a5,1
    24c4:	80e1a423          	sw	a4,-2040(gp) # 20000060 <xCriticalNesting>
    {
        pxTimeOut->xOverflowCount = xNumOfOverflows;
    24c8:	b5c1a703          	lw	a4,-1188(gp) # 200003b4 <xNumOfOverflows>
    24cc:	fec42783          	lw	a5,-20(s0)
    24d0:	c398                	sw	a4,0(a5)
        pxTimeOut->xTimeOnEntering = xTickCount;
    24d2:	b481a703          	lw	a4,-1208(gp) # 200003a0 <xTickCount>
    24d6:	fec42783          	lw	a5,-20(s0)
    24da:	c3d8                	sw	a4,4(a5)
    }
    taskEXIT_CRITICAL();
    24dc:	8081a783          	lw	a5,-2040(gp) # 20000060 <xCriticalNesting>
    24e0:	fff78713          	addi	a4,a5,-1
    24e4:	80e1a423          	sw	a4,-2040(gp) # 20000060 <xCriticalNesting>
    24e8:	8081a783          	lw	a5,-2040(gp) # 20000060 <xCriticalNesting>
    24ec:	e399                	bnez	a5,24f2 <vTaskSetTimeOutState+0x52>
    24ee:	30046073          	csrsi	mstatus,8

    traceRETURN_vTaskSetTimeOutState();
}
    24f2:	0001                	nop
    24f4:	40f2                	lw	ra,28(sp)
    24f6:	4462                	lw	s0,24(sp)
    24f8:	6105                	addi	sp,sp,32
    24fa:	8082                	ret

000024fc <vTaskInternalSetTimeOutState>:
/*-----------------------------------------------------------*/

void vTaskInternalSetTimeOutState( TimeOut_t * const pxTimeOut )
{
    24fc:	1101                	addi	sp,sp,-32
    24fe:	ce06                	sw	ra,28(sp)
    2500:	cc22                	sw	s0,24(sp)
    2502:	1000                	addi	s0,sp,32
    2504:	fea42623          	sw	a0,-20(s0)
    traceENTER_vTaskInternalSetTimeOutState( pxTimeOut );

    /* For internal use only as it does not use a critical section. */
    pxTimeOut->xOverflowCount = xNumOfOverflows;
    2508:	b5c1a703          	lw	a4,-1188(gp) # 200003b4 <xNumOfOverflows>
    250c:	fec42783          	lw	a5,-20(s0)
    2510:	c398                	sw	a4,0(a5)
    pxTimeOut->xTimeOnEntering = xTickCount;
    2512:	b481a703          	lw	a4,-1208(gp) # 200003a0 <xTickCount>
    2516:	fec42783          	lw	a5,-20(s0)
    251a:	c3d8                	sw	a4,4(a5)

    traceRETURN_vTaskInternalSetTimeOutState();
}
    251c:	0001                	nop
    251e:	40f2                	lw	ra,28(sp)
    2520:	4462                	lw	s0,24(sp)
    2522:	6105                	addi	sp,sp,32
    2524:	8082                	ret

00002526 <xTaskCheckForTimeOut>:
/*-----------------------------------------------------------*/

BaseType_t xTaskCheckForTimeOut( TimeOut_t * const pxTimeOut,
                                 TickType_t * const pxTicksToWait )
{
    2526:	7179                	addi	sp,sp,-48
    2528:	d606                	sw	ra,44(sp)
    252a:	d422                	sw	s0,40(sp)
    252c:	1800                	addi	s0,sp,48
    252e:	fca42e23          	sw	a0,-36(s0)
    2532:	fcb42c23          	sw	a1,-40(s0)
    BaseType_t xReturn;

    traceENTER_xTaskCheckForTimeOut( pxTimeOut, pxTicksToWait );

    configASSERT( pxTimeOut );
    2536:	fdc42783          	lw	a5,-36(s0)
    253a:	e781                	bnez	a5,2542 <xTaskCheckForTimeOut+0x1c>
    253c:	30047073          	csrci	mstatus,8
    2540:	a001                	j	2540 <xTaskCheckForTimeOut+0x1a>
    configASSERT( pxTicksToWait );
    2542:	fd842783          	lw	a5,-40(s0)
    2546:	e781                	bnez	a5,254e <xTaskCheckForTimeOut+0x28>
    2548:	30047073          	csrci	mstatus,8
    254c:	a001                	j	254c <xTaskCheckForTimeOut+0x26>

    taskENTER_CRITICAL();
    254e:	30047073          	csrci	mstatus,8
    2552:	8081a783          	lw	a5,-2040(gp) # 20000060 <xCriticalNesting>
    2556:	00178713          	addi	a4,a5,1
    255a:	80e1a423          	sw	a4,-2040(gp) # 20000060 <xCriticalNesting>
    {
        /* Minor optimisation.  The tick count cannot change in this block. */
        const TickType_t xConstTickCount = xTickCount;
    255e:	b481a783          	lw	a5,-1208(gp) # 200003a0 <xTickCount>
    2562:	fef42423          	sw	a5,-24(s0)
        const TickType_t xElapsedTime = xConstTickCount - pxTimeOut->xTimeOnEntering;
    2566:	fdc42783          	lw	a5,-36(s0)
    256a:	43dc                	lw	a5,4(a5)
    256c:	fe842703          	lw	a4,-24(s0)
    2570:	40f707b3          	sub	a5,a4,a5
    2574:	fef42223          	sw	a5,-28(s0)
            }
            else
        #endif

        #if ( INCLUDE_vTaskSuspend == 1 )
            if( *pxTicksToWait == portMAX_DELAY )
    2578:	fd842783          	lw	a5,-40(s0)
    257c:	4398                	lw	a4,0(a5)
    257e:	57fd                	li	a5,-1
    2580:	00f71563          	bne	a4,a5,258a <xTaskCheckForTimeOut+0x64>
            {
                /* If INCLUDE_vTaskSuspend is set to 1 and the block time
                 * specified is the maximum block time then the task should block
                 * indefinitely, and therefore never time out. */
                xReturn = pdFALSE;
    2584:	fe042623          	sw	zero,-20(s0)
    2588:	a0a5                	j	25f0 <xTaskCheckForTimeOut+0xca>
            }
            else
        #endif

        if( ( xNumOfOverflows != pxTimeOut->xOverflowCount ) && ( xConstTickCount >= pxTimeOut->xTimeOnEntering ) )
    258a:	fdc42783          	lw	a5,-36(s0)
    258e:	4398                	lw	a4,0(a5)
    2590:	b5c1a783          	lw	a5,-1188(gp) # 200003b4 <xNumOfOverflows>
    2594:	02f70163          	beq	a4,a5,25b6 <xTaskCheckForTimeOut+0x90>
    2598:	fdc42783          	lw	a5,-36(s0)
    259c:	43dc                	lw	a5,4(a5)
    259e:	fe842703          	lw	a4,-24(s0)
    25a2:	00f76a63          	bltu	a4,a5,25b6 <xTaskCheckForTimeOut+0x90>
            /* The tick count is greater than the time at which
             * vTaskSetTimeout() was called, but has also overflowed since
             * vTaskSetTimeOut() was called.  It must have wrapped all the way
             * around and gone past again. This passed since vTaskSetTimeout()
             * was called. */
            xReturn = pdTRUE;
    25a6:	4785                	li	a5,1
    25a8:	fef42623          	sw	a5,-20(s0)
            *pxTicksToWait = ( TickType_t ) 0;
    25ac:	fd842783          	lw	a5,-40(s0)
    25b0:	0007a023          	sw	zero,0(a5)
    25b4:	a835                	j	25f0 <xTaskCheckForTimeOut+0xca>
        }
        else if( xElapsedTime < *pxTicksToWait )
    25b6:	fd842783          	lw	a5,-40(s0)
    25ba:	439c                	lw	a5,0(a5)
    25bc:	fe442703          	lw	a4,-28(s0)
    25c0:	02f77163          	bgeu	a4,a5,25e2 <xTaskCheckForTimeOut+0xbc>
        {
            /* Not a genuine timeout. Adjust parameters for time remaining. */
            *pxTicksToWait -= xElapsedTime;
    25c4:	fd842783          	lw	a5,-40(s0)
    25c8:	4398                	lw	a4,0(a5)
    25ca:	fe442783          	lw	a5,-28(s0)
    25ce:	8f1d                	sub	a4,a4,a5
    25d0:	fd842783          	lw	a5,-40(s0)
    25d4:	c398                	sw	a4,0(a5)
            vTaskInternalSetTimeOutState( pxTimeOut );
    25d6:	fdc42503          	lw	a0,-36(s0)
    25da:	370d                	jal	24fc <vTaskInternalSetTimeOutState>
            xReturn = pdFALSE;
    25dc:	fe042623          	sw	zero,-20(s0)
    25e0:	a801                	j	25f0 <xTaskCheckForTimeOut+0xca>
        }
        else
        {
            *pxTicksToWait = ( TickType_t ) 0;
    25e2:	fd842783          	lw	a5,-40(s0)
    25e6:	0007a023          	sw	zero,0(a5)
            xReturn = pdTRUE;
    25ea:	4785                	li	a5,1
    25ec:	fef42623          	sw	a5,-20(s0)
        }
    }
    taskEXIT_CRITICAL();
    25f0:	8081a783          	lw	a5,-2040(gp) # 20000060 <xCriticalNesting>
    25f4:	fff78713          	addi	a4,a5,-1
    25f8:	80e1a423          	sw	a4,-2040(gp) # 20000060 <xCriticalNesting>
    25fc:	8081a783          	lw	a5,-2040(gp) # 20000060 <xCriticalNesting>
    2600:	e399                	bnez	a5,2606 <xTaskCheckForTimeOut+0xe0>
    2602:	30046073          	csrsi	mstatus,8

    traceRETURN_xTaskCheckForTimeOut( xReturn );

    return xReturn;
    2606:	fec42783          	lw	a5,-20(s0)
}
    260a:	853e                	mv	a0,a5
    260c:	50b2                	lw	ra,44(sp)
    260e:	5422                	lw	s0,40(sp)
    2610:	6145                	addi	sp,sp,48
    2612:	8082                	ret

00002614 <vTaskMissedYield>:
/*-----------------------------------------------------------*/

void vTaskMissedYield( void )
{
    2614:	1141                	addi	sp,sp,-16
    2616:	c606                	sw	ra,12(sp)
    2618:	c422                	sw	s0,8(sp)
    261a:	0800                	addi	s0,sp,16
    traceENTER_vTaskMissedYield();

    /* Must be called from within a critical section. */
    xYieldPendings[ portGET_CORE_ID() ] = pdTRUE;
    261c:	4705                	li	a4,1
    261e:	b4e1ac23          	sw	a4,-1192(gp) # 200003b0 <xYieldPendings>

    traceRETURN_vTaskMissedYield();
}
    2622:	0001                	nop
    2624:	40b2                	lw	ra,12(sp)
    2626:	4422                	lw	s0,8(sp)
    2628:	0141                	addi	sp,sp,16
    262a:	8082                	ret

0000262c <prvIdleTask>:
 * void prvIdleTask( void *pvParameters );
 *
 */

static portTASK_FUNCTION( prvIdleTask, pvParameters )
{
    262c:	1101                	addi	sp,sp,-32
    262e:	ce06                	sw	ra,28(sp)
    2630:	cc22                	sw	s0,24(sp)
    2632:	1000                	addi	s0,sp,32
    2634:	fea42623          	sw	a0,-20(s0)

    for( ; configCONTROL_INFINITE_LOOP(); )
    {
        /* See if any tasks have deleted themselves - if so then the idle task
         * is responsible for freeing the deleted task's TCB and stack. */
        prvCheckTasksWaitingTermination();
    2638:	2861                	jal	26d0 <prvCheckTasksWaitingTermination>
             * A critical region is not required here as we are just reading from
             * the list, and an occasional incorrect value will not matter.  If
             * the ready list at the idle priority contains one more task than the
             * number of idle tasks, which is equal to the configured numbers of cores
             * then a task other than the idle task is ready to execute. */
            if( listCURRENT_LIST_LENGTH( &( pxReadyTasksLists[ tskIDLE_PRIORITY ] ) ) > ( UBaseType_t ) configNUMBER_OF_CORES )
    263a:	200007b7          	lui	a5,0x20000
    263e:	0ac78793          	addi	a5,a5,172 # 200000ac <pxReadyTasksLists>
    2642:	4398                	lw	a4,0(a5)
    2644:	4785                	li	a5,1
    2646:	fee7f9e3          	bgeu	a5,a4,2638 <prvIdleTask+0xc>
            {
                taskYIELD();
    264a:	00000073          	ecall
        prvCheckTasksWaitingTermination();
    264e:	b7ed                	j	2638 <prvIdleTask+0xc>

00002650 <prvInitialiseTaskLists>:

#endif /* portUSING_MPU_WRAPPERS */
/*-----------------------------------------------------------*/

static void prvInitialiseTaskLists( void )
{
    2650:	1101                	addi	sp,sp,-32
    2652:	ce06                	sw	ra,28(sp)
    2654:	cc22                	sw	s0,24(sp)
    2656:	1000                	addi	s0,sp,32
    UBaseType_t uxPriority;

    for( uxPriority = ( UBaseType_t ) 0U; uxPriority < ( UBaseType_t ) configMAX_PRIORITIES; uxPriority++ )
    2658:	fe042623          	sw	zero,-20(s0)
    265c:	a025                	j	2684 <prvInitialiseTaskLists+0x34>
    {
        vListInitialise( &( pxReadyTasksLists[ uxPriority ] ) );
    265e:	fec42703          	lw	a4,-20(s0)
    2662:	87ba                	mv	a5,a4
    2664:	078a                	slli	a5,a5,0x2
    2666:	97ba                	add	a5,a5,a4
    2668:	078a                	slli	a5,a5,0x2
    266a:	20000737          	lui	a4,0x20000
    266e:	0ac70713          	addi	a4,a4,172 # 200000ac <pxReadyTasksLists>
    2672:	97ba                	add	a5,a5,a4
    2674:	853e                	mv	a0,a5
    2676:	5e0010ef          	jal	3c56 <vListInitialise>
    for( uxPriority = ( UBaseType_t ) 0U; uxPriority < ( UBaseType_t ) configMAX_PRIORITIES; uxPriority++ )
    267a:	fec42783          	lw	a5,-20(s0)
    267e:	0785                	addi	a5,a5,1
    2680:	fef42623          	sw	a5,-20(s0)
    2684:	fec42703          	lw	a4,-20(s0)
    2688:	47fd                	li	a5,31
    268a:	fce7fae3          	bgeu	a5,a4,265e <prvInitialiseTaskLists+0xe>
    }

    vListInitialise( &xDelayedTaskList1 );
    268e:	ad418513          	addi	a0,gp,-1324 # 2000032c <xDelayedTaskList1>
    2692:	5c4010ef          	jal	3c56 <vListInitialise>
    vListInitialise( &xDelayedTaskList2 );
    2696:	ae818513          	addi	a0,gp,-1304 # 20000340 <xDelayedTaskList2>
    269a:	5bc010ef          	jal	3c56 <vListInitialise>
    vListInitialise( &xPendingReadyList );
    269e:	b0418513          	addi	a0,gp,-1276 # 2000035c <xPendingReadyList>
    26a2:	5b4010ef          	jal	3c56 <vListInitialise>

    #if ( INCLUDE_vTaskDelete == 1 )
    {
        vListInitialise( &xTasksWaitingTermination );
    26a6:	b1818513          	addi	a0,gp,-1256 # 20000370 <xTasksWaitingTermination>
    26aa:	5ac010ef          	jal	3c56 <vListInitialise>
    }
    #endif /* INCLUDE_vTaskDelete */

    #if ( INCLUDE_vTaskSuspend == 1 )
    {
        vListInitialise( &xSuspendedTaskList );
    26ae:	b3018513          	addi	a0,gp,-1232 # 20000388 <xSuspendedTaskList>
    26b2:	5a4010ef          	jal	3c56 <vListInitialise>
    }
    #endif /* INCLUDE_vTaskSuspend */

    /* Start with pxDelayedTaskList using list1 and the pxOverflowDelayedTaskList
     * using list2. */
    pxDelayedTaskList = &xDelayedTaskList1;
    26b6:	ad418713          	addi	a4,gp,-1324 # 2000032c <xDelayedTaskList1>
    26ba:	aee1ae23          	sw	a4,-1284(gp) # 20000354 <pxDelayedTaskList>
    pxOverflowDelayedTaskList = &xDelayedTaskList2;
    26be:	ae818713          	addi	a4,gp,-1304 # 20000340 <xDelayedTaskList2>
    26c2:	b0e1a023          	sw	a4,-1280(gp) # 20000358 <pxOverflowDelayedTaskList>
}
    26c6:	0001                	nop
    26c8:	40f2                	lw	ra,28(sp)
    26ca:	4462                	lw	s0,24(sp)
    26cc:	6105                	addi	sp,sp,32
    26ce:	8082                	ret

000026d0 <prvCheckTasksWaitingTermination>:
/*-----------------------------------------------------------*/

static void prvCheckTasksWaitingTermination( void )
{
    26d0:	1101                	addi	sp,sp,-32
    26d2:	ce06                	sw	ra,28(sp)
    26d4:	cc22                	sw	s0,24(sp)
    26d6:	1000                	addi	s0,sp,32
    {
        TCB_t * pxTCB;

        /* uxDeletedTasksWaitingCleanUp is used to prevent taskENTER_CRITICAL()
         * being called too often in the idle task. */
        while( uxDeletedTasksWaitingCleanUp > ( UBaseType_t ) 0U )
    26d8:	a8b9                	j	2736 <prvCheckTasksWaitingTermination+0x66>
        {
            #if ( configNUMBER_OF_CORES == 1 )
            {
                taskENTER_CRITICAL();
    26da:	30047073          	csrci	mstatus,8
    26de:	8081a783          	lw	a5,-2040(gp) # 20000060 <xCriticalNesting>
    26e2:	00178713          	addi	a4,a5,1
    26e6:	80e1a423          	sw	a4,-2040(gp) # 20000060 <xCriticalNesting>
                {
                    {
                        /* MISRA Ref 11.5.3 [Void pointer assignment] */
                        /* More details at: https://github.com/FreeRTOS/FreeRTOS-Kernel/blob/main/MISRA.md#rule-115 */
                        /* coverity[misra_c_2012_rule_11_5_violation] */
                        pxTCB = listGET_OWNER_OF_HEAD_ENTRY( ( &xTasksWaitingTermination ) );
    26ea:	b1818793          	addi	a5,gp,-1256 # 20000370 <xTasksWaitingTermination>
    26ee:	47dc                	lw	a5,12(a5)
    26f0:	47dc                	lw	a5,12(a5)
    26f2:	fef42623          	sw	a5,-20(s0)
                        ( void ) uxListRemove( &( pxTCB->xStateListItem ) );
    26f6:	fec42783          	lw	a5,-20(s0)
    26fa:	0791                	addi	a5,a5,4
    26fc:	853e                	mv	a0,a5
    26fe:	6d6010ef          	jal	3dd4 <uxListRemove>
                        --uxCurrentNumberOfTasks;
    2702:	b441a783          	lw	a5,-1212(gp) # 2000039c <uxCurrentNumberOfTasks>
    2706:	fff78713          	addi	a4,a5,-1
    270a:	b4e1a223          	sw	a4,-1212(gp) # 2000039c <uxCurrentNumberOfTasks>
                        --uxDeletedTasksWaitingCleanUp;
    270e:	b2c1a783          	lw	a5,-1236(gp) # 20000384 <uxDeletedTasksWaitingCleanUp>
    2712:	fff78713          	addi	a4,a5,-1
    2716:	b2e1a623          	sw	a4,-1236(gp) # 20000384 <uxDeletedTasksWaitingCleanUp>
                    }
                }
                taskEXIT_CRITICAL();
    271a:	8081a783          	lw	a5,-2040(gp) # 20000060 <xCriticalNesting>
    271e:	fff78713          	addi	a4,a5,-1
    2722:	80e1a423          	sw	a4,-2040(gp) # 20000060 <xCriticalNesting>
    2726:	8081a783          	lw	a5,-2040(gp) # 20000060 <xCriticalNesting>
    272a:	e399                	bnez	a5,2730 <prvCheckTasksWaitingTermination+0x60>
    272c:	30046073          	csrsi	mstatus,8

                prvDeleteTCB( pxTCB );
    2730:	fec42503          	lw	a0,-20(s0)
    2734:	2855                	jal	27e8 <prvDeleteTCB>
        while( uxDeletedTasksWaitingCleanUp > ( UBaseType_t ) 0U )
    2736:	b2c1a783          	lw	a5,-1236(gp) # 20000384 <uxDeletedTasksWaitingCleanUp>
    273a:	f3c5                	bnez	a5,26da <prvCheckTasksWaitingTermination+0xa>
            }
            #endif /* #if( configNUMBER_OF_CORES == 1 ) */
        }
    }
    #endif /* INCLUDE_vTaskDelete */
}
    273c:	0001                	nop
    273e:	0001                	nop
    2740:	40f2                	lw	ra,28(sp)
    2742:	4462                	lw	s0,24(sp)
    2744:	6105                	addi	sp,sp,32
    2746:	8082                	ret

00002748 <prvTaskCheckFreeStackSpace>:
/*-----------------------------------------------------------*/

#if ( ( configUSE_TRACE_FACILITY == 1 ) || ( INCLUDE_uxTaskGetStackHighWaterMark == 1 ) || ( INCLUDE_uxTaskGetStackHighWaterMark2 == 1 ) )

    static configSTACK_DEPTH_TYPE prvTaskCheckFreeStackSpace( const uint8_t * pucStackByte )
    {
    2748:	7179                	addi	sp,sp,-48
    274a:	d606                	sw	ra,44(sp)
    274c:	d422                	sw	s0,40(sp)
    274e:	1800                	addi	s0,sp,48
    2750:	fca42e23          	sw	a0,-36(s0)
        configSTACK_DEPTH_TYPE uxCount = 0U;
    2754:	fe042623          	sw	zero,-20(s0)

        while( *pucStackByte == ( uint8_t ) tskSTACK_FILL_BYTE )
    2758:	a819                	j	276e <prvTaskCheckFreeStackSpace+0x26>
        {
            pucStackByte -= portSTACK_GROWTH;
    275a:	fdc42783          	lw	a5,-36(s0)
    275e:	0785                	addi	a5,a5,1
    2760:	fcf42e23          	sw	a5,-36(s0)
            uxCount++;
    2764:	fec42783          	lw	a5,-20(s0)
    2768:	0785                	addi	a5,a5,1
    276a:	fef42623          	sw	a5,-20(s0)
        while( *pucStackByte == ( uint8_t ) tskSTACK_FILL_BYTE )
    276e:	fdc42783          	lw	a5,-36(s0)
    2772:	0007c703          	lbu	a4,0(a5)
    2776:	0a500793          	li	a5,165
    277a:	fef700e3          	beq	a4,a5,275a <prvTaskCheckFreeStackSpace+0x12>
        }

        uxCount /= ( configSTACK_DEPTH_TYPE ) sizeof( StackType_t );
    277e:	fec42783          	lw	a5,-20(s0)
    2782:	8389                	srli	a5,a5,0x2
    2784:	fef42623          	sw	a5,-20(s0)

        return uxCount;
    2788:	fec42783          	lw	a5,-20(s0)
    }
    278c:	853e                	mv	a0,a5
    278e:	50b2                	lw	ra,44(sp)
    2790:	5422                	lw	s0,40(sp)
    2792:	6145                	addi	sp,sp,48
    2794:	8082                	ret

00002796 <uxTaskGetStackHighWaterMark>:
/*-----------------------------------------------------------*/

#if ( INCLUDE_uxTaskGetStackHighWaterMark == 1 )

    UBaseType_t uxTaskGetStackHighWaterMark( TaskHandle_t xTask )
    {
    2796:	7179                	addi	sp,sp,-48
    2798:	d606                	sw	ra,44(sp)
    279a:	d422                	sw	s0,40(sp)
    279c:	1800                	addi	s0,sp,48
    279e:	fca42e23          	sw	a0,-36(s0)
        uint8_t * pucEndOfStack;
        UBaseType_t uxReturn;

        traceENTER_uxTaskGetStackHighWaterMark( xTask );

        pxTCB = prvGetTCBFromHandle( xTask );
    27a2:	fdc42783          	lw	a5,-36(s0)
    27a6:	e791                	bnez	a5,27b2 <uxTaskGetStackHighWaterMark+0x1c>
    27a8:	8281a783          	lw	a5,-2008(gp) # 20000080 <pxCurrentTCB>
    27ac:	fef42623          	sw	a5,-20(s0)
    27b0:	a029                	j	27ba <uxTaskGetStackHighWaterMark+0x24>
    27b2:	fdc42783          	lw	a5,-36(s0)
    27b6:	fef42623          	sw	a5,-20(s0)
        configASSERT( pxTCB != NULL );
    27ba:	fec42783          	lw	a5,-20(s0)
    27be:	e781                	bnez	a5,27c6 <uxTaskGetStackHighWaterMark+0x30>
    27c0:	30047073          	csrci	mstatus,8
    27c4:	a001                	j	27c4 <uxTaskGetStackHighWaterMark+0x2e>

        #if portSTACK_GROWTH < 0
        {
            pucEndOfStack = ( uint8_t * ) pxTCB->pxStack;
    27c6:	fec42783          	lw	a5,-20(s0)
    27ca:	5b9c                	lw	a5,48(a5)
    27cc:	fef42423          	sw	a5,-24(s0)
        {
            pucEndOfStack = ( uint8_t * ) pxTCB->pxEndOfStack;
        }
        #endif

        uxReturn = ( UBaseType_t ) prvTaskCheckFreeStackSpace( pucEndOfStack );
    27d0:	fe842503          	lw	a0,-24(s0)
    27d4:	3f95                	jal	2748 <prvTaskCheckFreeStackSpace>
    27d6:	fea42223          	sw	a0,-28(s0)

        traceRETURN_uxTaskGetStackHighWaterMark( uxReturn );

        return uxReturn;
    27da:	fe442783          	lw	a5,-28(s0)
    }
    27de:	853e                	mv	a0,a5
    27e0:	50b2                	lw	ra,44(sp)
    27e2:	5422                	lw	s0,40(sp)
    27e4:	6145                	addi	sp,sp,48
    27e6:	8082                	ret

000027e8 <prvDeleteTCB>:
/*-----------------------------------------------------------*/

#if ( INCLUDE_vTaskDelete == 1 )

    static void prvDeleteTCB( TCB_t * pxTCB )
    {
    27e8:	1101                	addi	sp,sp,-32
    27ea:	ce06                	sw	ra,28(sp)
    27ec:	cc22                	sw	s0,24(sp)
    27ee:	1000                	addi	s0,sp,32
    27f0:	fea42623          	sw	a0,-20(s0)
        #elif ( tskSTATIC_AND_DYNAMIC_ALLOCATION_POSSIBLE != 0 )
        {
            /* The task could have been allocated statically or dynamically, so
             * check what was statically allocated before trying to free the
             * memory. */
            if( pxTCB->ucStaticallyAllocated == tskDYNAMICALLY_ALLOCATED_STACK_AND_TCB )
    27f4:	fec42783          	lw	a5,-20(s0)
    27f8:	0557c783          	lbu	a5,85(a5)
    27fc:	ef81                	bnez	a5,2814 <prvDeleteTCB+0x2c>
            {
                /* Both the stack and TCB were allocated dynamically, so both
                 * must be freed. */
                vPortFreeStack( pxTCB->pxStack );
    27fe:	fec42783          	lw	a5,-20(s0)
    2802:	5b9c                	lw	a5,48(a5)
    2804:	853e                	mv	a0,a5
    2806:	0d1010ef          	jal	40d6 <vPortFree>
                vPortFree( pxTCB );
    280a:	fec42503          	lw	a0,-20(s0)
    280e:	0c9010ef          	jal	40d6 <vPortFree>
                configASSERT( pxTCB->ucStaticallyAllocated == tskSTATICALLY_ALLOCATED_STACK_AND_TCB );
                mtCOVERAGE_TEST_MARKER();
            }
        }
        #endif /* configSUPPORT_DYNAMIC_ALLOCATION */
    }
    2812:	a03d                	j	2840 <prvDeleteTCB+0x58>
            else if( pxTCB->ucStaticallyAllocated == tskSTATICALLY_ALLOCATED_STACK_ONLY )
    2814:	fec42783          	lw	a5,-20(s0)
    2818:	0557c703          	lbu	a4,85(a5)
    281c:	4785                	li	a5,1
    281e:	00f71763          	bne	a4,a5,282c <prvDeleteTCB+0x44>
                vPortFree( pxTCB );
    2822:	fec42503          	lw	a0,-20(s0)
    2826:	0b1010ef          	jal	40d6 <vPortFree>
    }
    282a:	a819                	j	2840 <prvDeleteTCB+0x58>
                configASSERT( pxTCB->ucStaticallyAllocated == tskSTATICALLY_ALLOCATED_STACK_AND_TCB );
    282c:	fec42783          	lw	a5,-20(s0)
    2830:	0557c703          	lbu	a4,85(a5)
    2834:	4789                	li	a5,2
    2836:	00f70563          	beq	a4,a5,2840 <prvDeleteTCB+0x58>
    283a:	30047073          	csrci	mstatus,8
    283e:	a001                	j	283e <prvDeleteTCB+0x56>
    }
    2840:	0001                	nop
    2842:	40f2                	lw	ra,28(sp)
    2844:	4462                	lw	s0,24(sp)
    2846:	6105                	addi	sp,sp,32
    2848:	8082                	ret

0000284a <prvResetNextTaskUnblockTime>:

#endif /* INCLUDE_vTaskDelete */
/*-----------------------------------------------------------*/

static void prvResetNextTaskUnblockTime( void )
{
    284a:	1141                	addi	sp,sp,-16
    284c:	c606                	sw	ra,12(sp)
    284e:	c422                	sw	s0,8(sp)
    2850:	0800                	addi	s0,sp,16
    if( listLIST_IS_EMPTY( pxDelayedTaskList ) != pdFALSE )
    2852:	afc1a783          	lw	a5,-1284(gp) # 20000354 <pxDelayedTaskList>
    2856:	439c                	lw	a5,0(a5)
    2858:	e789                	bnez	a5,2862 <prvResetNextTaskUnblockTime+0x18>
    {
        /* The new current delayed list is empty.  Set xNextTaskUnblockTime to
         * the maximum possible value so it is  extremely unlikely that the
         * if( xTickCount >= xNextTaskUnblockTime ) test will pass until
         * there is an item in the delayed list. */
        xNextTaskUnblockTime = portMAX_DELAY;
    285a:	577d                	li	a4,-1
    285c:	b6e1a223          	sw	a4,-1180(gp) # 200003bc <xNextTaskUnblockTime>
         * the item at the head of the delayed list.  This is the time at
         * which the task at the head of the delayed list should be removed
         * from the Blocked state. */
        xNextTaskUnblockTime = listGET_ITEM_VALUE_OF_HEAD_ENTRY( pxDelayedTaskList );
    }
}
    2860:	a039                	j	286e <prvResetNextTaskUnblockTime+0x24>
        xNextTaskUnblockTime = listGET_ITEM_VALUE_OF_HEAD_ENTRY( pxDelayedTaskList );
    2862:	afc1a783          	lw	a5,-1284(gp) # 20000354 <pxDelayedTaskList>
    2866:	47dc                	lw	a5,12(a5)
    2868:	4398                	lw	a4,0(a5)
    286a:	b6e1a223          	sw	a4,-1180(gp) # 200003bc <xNextTaskUnblockTime>
}
    286e:	0001                	nop
    2870:	40b2                	lw	ra,12(sp)
    2872:	4422                	lw	s0,8(sp)
    2874:	0141                	addi	sp,sp,16
    2876:	8082                	ret

00002878 <xTaskGetCurrentTaskHandle>:

#if ( ( INCLUDE_xTaskGetCurrentTaskHandle == 1 ) || ( configUSE_RECURSIVE_MUTEXES == 1 ) ) || ( configNUMBER_OF_CORES > 1 )

    #if ( configNUMBER_OF_CORES == 1 )
        TaskHandle_t xTaskGetCurrentTaskHandle( void )
        {
    2878:	1101                	addi	sp,sp,-32
    287a:	ce06                	sw	ra,28(sp)
    287c:	cc22                	sw	s0,24(sp)
    287e:	1000                	addi	s0,sp,32
            traceENTER_xTaskGetCurrentTaskHandle();

            /* A critical section is not required as this is not called from
             * an interrupt and the current TCB will always be the same for any
             * individual execution thread. */
            xReturn = pxCurrentTCB;
    2880:	8281a783          	lw	a5,-2008(gp) # 20000080 <pxCurrentTCB>
    2884:	fef42623          	sw	a5,-20(s0)

            traceRETURN_xTaskGetCurrentTaskHandle( xReturn );

            return xReturn;
    2888:	fec42783          	lw	a5,-20(s0)
        }
    288c:	853e                	mv	a0,a5
    288e:	40f2                	lw	ra,28(sp)
    2890:	4462                	lw	s0,24(sp)
    2892:	6105                	addi	sp,sp,32
    2894:	8082                	ret

00002896 <xTaskGetCurrentTaskHandleForCore>:
            return xReturn;
        }
    #endif /* #if ( configNUMBER_OF_CORES == 1 ) */

    TaskHandle_t xTaskGetCurrentTaskHandleForCore( BaseType_t xCoreID )
    {
    2896:	7179                	addi	sp,sp,-48
    2898:	d606                	sw	ra,44(sp)
    289a:	d422                	sw	s0,40(sp)
    289c:	1800                	addi	s0,sp,48
    289e:	fca42e23          	sw	a0,-36(s0)
        TaskHandle_t xReturn = NULL;
    28a2:	fe042623          	sw	zero,-20(s0)

        traceENTER_xTaskGetCurrentTaskHandleForCore( xCoreID );

        if( taskVALID_CORE_ID( xCoreID ) != pdFALSE )
    28a6:	fdc42783          	lw	a5,-36(s0)
    28aa:	0007ca63          	bltz	a5,28be <xTaskGetCurrentTaskHandleForCore+0x28>
    28ae:	fdc42783          	lw	a5,-36(s0)
    28b2:	00f04663          	bgtz	a5,28be <xTaskGetCurrentTaskHandleForCore+0x28>
        {
            #if ( configNUMBER_OF_CORES == 1 )
                xReturn = pxCurrentTCB;
    28b6:	8281a783          	lw	a5,-2008(gp) # 20000080 <pxCurrentTCB>
    28ba:	fef42623          	sw	a5,-20(s0)
            #endif /* #if ( configNUMBER_OF_CORES == 1 ) */
        }

        traceRETURN_xTaskGetCurrentTaskHandleForCore( xReturn );

        return xReturn;
    28be:	fec42783          	lw	a5,-20(s0)
    }
    28c2:	853e                	mv	a0,a5
    28c4:	50b2                	lw	ra,44(sp)
    28c6:	5422                	lw	s0,40(sp)
    28c8:	6145                	addi	sp,sp,48
    28ca:	8082                	ret

000028cc <xTaskGetSchedulerState>:
/*-----------------------------------------------------------*/

#if ( ( INCLUDE_xTaskGetSchedulerState == 1 ) || ( configUSE_TIMERS == 1 ) )

    BaseType_t xTaskGetSchedulerState( void )
    {
    28cc:	1101                	addi	sp,sp,-32
    28ce:	ce06                	sw	ra,28(sp)
    28d0:	cc22                	sw	s0,24(sp)
    28d2:	1000                	addi	s0,sp,32
        BaseType_t xReturn;

        traceENTER_xTaskGetSchedulerState();

        if( xSchedulerRunning == pdFALSE )
    28d4:	b501a783          	lw	a5,-1200(gp) # 200003a8 <xSchedulerRunning>
    28d8:	e789                	bnez	a5,28e2 <xTaskGetSchedulerState+0x16>
        {
            xReturn = taskSCHEDULER_NOT_STARTED;
    28da:	4785                	li	a5,1
    28dc:	fef42623          	sw	a5,-20(s0)
    28e0:	a811                	j	28f4 <xTaskGetSchedulerState+0x28>
        {
            #if ( configNUMBER_OF_CORES > 1 )
                taskENTER_CRITICAL();
            #endif
            {
                if( uxSchedulerSuspended == ( UBaseType_t ) 0U )
    28e2:	b6c1a783          	lw	a5,-1172(gp) # 200003c4 <uxSchedulerSuspended>
    28e6:	e789                	bnez	a5,28f0 <xTaskGetSchedulerState+0x24>
                {
                    xReturn = taskSCHEDULER_RUNNING;
    28e8:	4789                	li	a5,2
    28ea:	fef42623          	sw	a5,-20(s0)
    28ee:	a019                	j	28f4 <xTaskGetSchedulerState+0x28>
                }
                else
                {
                    xReturn = taskSCHEDULER_SUSPENDED;
    28f0:	fe042623          	sw	zero,-20(s0)
            #endif
        }

        traceRETURN_xTaskGetSchedulerState( xReturn );

        return xReturn;
    28f4:	fec42783          	lw	a5,-20(s0)
    }
    28f8:	853e                	mv	a0,a5
    28fa:	40f2                	lw	ra,28(sp)
    28fc:	4462                	lw	s0,24(sp)
    28fe:	6105                	addi	sp,sp,32
    2900:	8082                	ret

00002902 <xTaskPriorityInherit>:
/*-----------------------------------------------------------*/

#if ( configUSE_MUTEXES == 1 )

    BaseType_t xTaskPriorityInherit( TaskHandle_t const pxMutexHolder )
    {
    2902:	7179                	addi	sp,sp,-48
    2904:	d606                	sw	ra,44(sp)
    2906:	d422                	sw	s0,40(sp)
    2908:	1800                	addi	s0,sp,48
    290a:	fca42e23          	sw	a0,-36(s0)
        TCB_t * const pxMutexHolderTCB = pxMutexHolder;
    290e:	fdc42783          	lw	a5,-36(s0)
    2912:	fef42423          	sw	a5,-24(s0)
        BaseType_t xReturn = pdFALSE;
    2916:	fe042623          	sw	zero,-20(s0)

        traceENTER_xTaskPriorityInherit( pxMutexHolder );

        /* If the mutex is taken by an interrupt, the mutex holder is NULL. Priority
         * inheritance is not applied in this scenario. */
        if( pxMutexHolder != NULL )
    291a:	fdc42783          	lw	a5,-36(s0)
    291e:	16078863          	beqz	a5,2a8e <xTaskPriorityInherit+0x18c>
        {
            /* If the holder of the mutex has a priority below the priority of
             * the task attempting to obtain the mutex then it will temporarily
             * inherit the priority of the task attempting to obtain the mutex. */
            if( pxMutexHolderTCB->uxPriority < pxCurrentTCB->uxPriority )
    2922:	fe842783          	lw	a5,-24(s0)
    2926:	57d8                	lw	a4,44(a5)
    2928:	8281a783          	lw	a5,-2008(gp) # 20000080 <pxCurrentTCB>
    292c:	57dc                	lw	a5,44(a5)
    292e:	14f77563          	bgeu	a4,a5,2a78 <xTaskPriorityInherit+0x176>
            {
                /* Adjust the mutex holder state to account for its new
                 * priority.  Only reset the event list item value if the value is
                 * not being used for anything else. */
                if( ( listGET_LIST_ITEM_VALUE( &( pxMutexHolderTCB->xEventListItem ) ) & taskEVENT_LIST_ITEM_VALUE_IN_USE ) == ( ( TickType_t ) 0U ) )
    2932:	fe842783          	lw	a5,-24(s0)
    2936:	4f9c                	lw	a5,24(a5)
    2938:	0007cb63          	bltz	a5,294e <xTaskPriorityInherit+0x4c>
                {
                    listSET_LIST_ITEM_VALUE( &( pxMutexHolderTCB->xEventListItem ), ( TickType_t ) configMAX_PRIORITIES - ( TickType_t ) pxCurrentTCB->uxPriority );
    293c:	8281a783          	lw	a5,-2008(gp) # 20000080 <pxCurrentTCB>
    2940:	57dc                	lw	a5,44(a5)
    2942:	02000713          	li	a4,32
    2946:	8f1d                	sub	a4,a4,a5
    2948:	fe842783          	lw	a5,-24(s0)
    294c:	cf98                	sw	a4,24(a5)
                    mtCOVERAGE_TEST_MARKER();
                }

                /* If the task being modified is in the ready state it will need
                 * to be moved into a new list. */
                if( listIS_CONTAINED_WITHIN( &( pxReadyTasksLists[ pxMutexHolderTCB->uxPriority ] ), &( pxMutexHolderTCB->xStateListItem ) ) != pdFALSE )
    294e:	fe842783          	lw	a5,-24(s0)
    2952:	4bd4                	lw	a3,20(a5)
    2954:	fe842783          	lw	a5,-24(s0)
    2958:	57d8                	lw	a4,44(a5)
    295a:	87ba                	mv	a5,a4
    295c:	078a                	slli	a5,a5,0x2
    295e:	97ba                	add	a5,a5,a4
    2960:	078a                	slli	a5,a5,0x2
    2962:	20000737          	lui	a4,0x20000
    2966:	0ac70713          	addi	a4,a4,172 # 200000ac <pxReadyTasksLists>
    296a:	97ba                	add	a5,a5,a4
    296c:	0ef69c63          	bne	a3,a5,2a64 <xTaskPriorityInherit+0x162>
                {
                    if( uxListRemove( &( pxMutexHolderTCB->xStateListItem ) ) == ( UBaseType_t ) 0 )
    2970:	fe842783          	lw	a5,-24(s0)
    2974:	0791                	addi	a5,a5,4
    2976:	853e                	mv	a0,a5
    2978:	45c010ef          	jal	3dd4 <uxListRemove>
    297c:	87aa                	mv	a5,a0
    297e:	ef91                	bnez	a5,299a <xTaskPriorityInherit+0x98>
                    {
                        /* It is known that the task is in its ready list so
                         * there is no need to check again and the port level
                         * reset macro can be called directly. */
                        portRESET_READY_PRIORITY( pxMutexHolderTCB->uxPriority, uxTopReadyPriority );
    2980:	fe842783          	lw	a5,-24(s0)
    2984:	57dc                	lw	a5,44(a5)
    2986:	4705                	li	a4,1
    2988:	00f717b3          	sll	a5,a4,a5
    298c:	fff7c713          	not	a4,a5
    2990:	b4c1a783          	lw	a5,-1204(gp) # 200003a4 <uxTopReadyPriority>
    2994:	8f7d                	and	a4,a4,a5
    2996:	b4e1a623          	sw	a4,-1204(gp) # 200003a4 <uxTopReadyPriority>
                    {
                        mtCOVERAGE_TEST_MARKER();
                    }

                    /* Inherit the priority before being moved into the new list. */
                    pxMutexHolderTCB->uxPriority = pxCurrentTCB->uxPriority;
    299a:	8281a783          	lw	a5,-2008(gp) # 20000080 <pxCurrentTCB>
    299e:	57d8                	lw	a4,44(a5)
    29a0:	fe842783          	lw	a5,-24(s0)
    29a4:	d7d8                	sw	a4,44(a5)
                    prvAddTaskToReadyList( pxMutexHolderTCB );
    29a6:	fe842783          	lw	a5,-24(s0)
    29aa:	57dc                	lw	a5,44(a5)
    29ac:	4705                	li	a4,1
    29ae:	00f71733          	sll	a4,a4,a5
    29b2:	b4c1a783          	lw	a5,-1204(gp) # 200003a4 <uxTopReadyPriority>
    29b6:	8f5d                	or	a4,a4,a5
    29b8:	b4e1a623          	sw	a4,-1204(gp) # 200003a4 <uxTopReadyPriority>
    29bc:	fe842783          	lw	a5,-24(s0)
    29c0:	57d8                	lw	a4,44(a5)
    29c2:	200007b7          	lui	a5,0x20000
    29c6:	0ac78693          	addi	a3,a5,172 # 200000ac <pxReadyTasksLists>
    29ca:	87ba                	mv	a5,a4
    29cc:	078a                	slli	a5,a5,0x2
    29ce:	97ba                	add	a5,a5,a4
    29d0:	078a                	slli	a5,a5,0x2
    29d2:	97b6                	add	a5,a5,a3
    29d4:	43dc                	lw	a5,4(a5)
    29d6:	fef42223          	sw	a5,-28(s0)
    29da:	fe842783          	lw	a5,-24(s0)
    29de:	fe442703          	lw	a4,-28(s0)
    29e2:	c798                	sw	a4,8(a5)
    29e4:	fe442783          	lw	a5,-28(s0)
    29e8:	4798                	lw	a4,8(a5)
    29ea:	fe842783          	lw	a5,-24(s0)
    29ee:	c7d8                	sw	a4,12(a5)
    29f0:	fe442783          	lw	a5,-28(s0)
    29f4:	479c                	lw	a5,8(a5)
    29f6:	fe842703          	lw	a4,-24(s0)
    29fa:	0711                	addi	a4,a4,4
    29fc:	c3d8                	sw	a4,4(a5)
    29fe:	fe842783          	lw	a5,-24(s0)
    2a02:	00478713          	addi	a4,a5,4
    2a06:	fe442783          	lw	a5,-28(s0)
    2a0a:	c798                	sw	a4,8(a5)
    2a0c:	fe842783          	lw	a5,-24(s0)
    2a10:	57d8                	lw	a4,44(a5)
    2a12:	87ba                	mv	a5,a4
    2a14:	078a                	slli	a5,a5,0x2
    2a16:	97ba                	add	a5,a5,a4
    2a18:	078a                	slli	a5,a5,0x2
    2a1a:	20000737          	lui	a4,0x20000
    2a1e:	0ac70713          	addi	a4,a4,172 # 200000ac <pxReadyTasksLists>
    2a22:	973e                	add	a4,a4,a5
    2a24:	fe842783          	lw	a5,-24(s0)
    2a28:	cbd8                	sw	a4,20(a5)
    2a2a:	fe842783          	lw	a5,-24(s0)
    2a2e:	57d8                	lw	a4,44(a5)
    2a30:	200007b7          	lui	a5,0x20000
    2a34:	0ac78693          	addi	a3,a5,172 # 200000ac <pxReadyTasksLists>
    2a38:	87ba                	mv	a5,a4
    2a3a:	078a                	slli	a5,a5,0x2
    2a3c:	97ba                	add	a5,a5,a4
    2a3e:	078a                	slli	a5,a5,0x2
    2a40:	97b6                	add	a5,a5,a3
    2a42:	439c                	lw	a5,0(a5)
    2a44:	fe842703          	lw	a4,-24(s0)
    2a48:	5758                	lw	a4,44(a4)
    2a4a:	00178693          	addi	a3,a5,1
    2a4e:	200007b7          	lui	a5,0x20000
    2a52:	0ac78613          	addi	a2,a5,172 # 200000ac <pxReadyTasksLists>
    2a56:	87ba                	mv	a5,a4
    2a58:	078a                	slli	a5,a5,0x2
    2a5a:	97ba                	add	a5,a5,a4
    2a5c:	078a                	slli	a5,a5,0x2
    2a5e:	97b2                	add	a5,a5,a2
    2a60:	c394                	sw	a3,0(a5)
    2a62:	a039                	j	2a70 <xTaskPriorityInherit+0x16e>
                    #endif /* if ( configNUMBER_OF_CORES > 1 ) */
                }
                else
                {
                    /* Just inherit the priority. */
                    pxMutexHolderTCB->uxPriority = pxCurrentTCB->uxPriority;
    2a64:	8281a783          	lw	a5,-2008(gp) # 20000080 <pxCurrentTCB>
    2a68:	57d8                	lw	a4,44(a5)
    2a6a:	fe842783          	lw	a5,-24(s0)
    2a6e:	d7d8                	sw	a4,44(a5)
                }

                traceTASK_PRIORITY_INHERIT( pxMutexHolderTCB, pxCurrentTCB->uxPriority );

                /* Inheritance occurred. */
                xReturn = pdTRUE;
    2a70:	4785                	li	a5,1
    2a72:	fef42623          	sw	a5,-20(s0)
    2a76:	a821                	j	2a8e <xTaskPriorityInherit+0x18c>
            }
            else
            {
                if( pxMutexHolderTCB->uxBasePriority < pxCurrentTCB->uxPriority )
    2a78:	fe842783          	lw	a5,-24(s0)
    2a7c:	43f8                	lw	a4,68(a5)
    2a7e:	8281a783          	lw	a5,-2008(gp) # 20000080 <pxCurrentTCB>
    2a82:	57dc                	lw	a5,44(a5)
    2a84:	00f77563          	bgeu	a4,a5,2a8e <xTaskPriorityInherit+0x18c>
                     * current priority of the mutex holder is not lower than the
                     * priority of the task attempting to take the mutex.
                     * Therefore the mutex holder must have already inherited a
                     * priority, but inheritance would have occurred if that had
                     * not been the case. */
                    xReturn = pdTRUE;
    2a88:	4785                	li	a5,1
    2a8a:	fef42623          	sw	a5,-20(s0)
            mtCOVERAGE_TEST_MARKER();
        }

        traceRETURN_xTaskPriorityInherit( xReturn );

        return xReturn;
    2a8e:	fec42783          	lw	a5,-20(s0)
    }
    2a92:	853e                	mv	a0,a5
    2a94:	50b2                	lw	ra,44(sp)
    2a96:	5422                	lw	s0,40(sp)
    2a98:	6145                	addi	sp,sp,48
    2a9a:	8082                	ret

00002a9c <xTaskPriorityDisinherit>:
/*-----------------------------------------------------------*/

#if ( configUSE_MUTEXES == 1 )

    BaseType_t xTaskPriorityDisinherit( TaskHandle_t const pxMutexHolder )
    {
    2a9c:	7179                	addi	sp,sp,-48
    2a9e:	d606                	sw	ra,44(sp)
    2aa0:	d422                	sw	s0,40(sp)
    2aa2:	1800                	addi	s0,sp,48
    2aa4:	fca42e23          	sw	a0,-36(s0)
        TCB_t * const pxTCB = pxMutexHolder;
    2aa8:	fdc42783          	lw	a5,-36(s0)
    2aac:	fef42423          	sw	a5,-24(s0)
        BaseType_t xReturn = pdFALSE;
    2ab0:	fe042623          	sw	zero,-20(s0)

        traceENTER_xTaskPriorityDisinherit( pxMutexHolder );

        if( pxMutexHolder != NULL )
    2ab4:	fdc42783          	lw	a5,-36(s0)
    2ab8:	14078c63          	beqz	a5,2c10 <xTaskPriorityDisinherit+0x174>
        {
            /* A task can only have an inherited priority if it holds the mutex.
             * If the mutex is held by a task then it cannot be given from an
             * interrupt, and if a mutex is given by the holding task then it must
             * be the running state task. */
            configASSERT( pxTCB == pxCurrentTCB );
    2abc:	8281a783          	lw	a5,-2008(gp) # 20000080 <pxCurrentTCB>
    2ac0:	fe842703          	lw	a4,-24(s0)
    2ac4:	00f70563          	beq	a4,a5,2ace <xTaskPriorityDisinherit+0x32>
    2ac8:	30047073          	csrci	mstatus,8
    2acc:	a001                	j	2acc <xTaskPriorityDisinherit+0x30>
            configASSERT( pxTCB->uxMutexesHeld );
    2ace:	fe842783          	lw	a5,-24(s0)
    2ad2:	47bc                	lw	a5,72(a5)
    2ad4:	e781                	bnez	a5,2adc <xTaskPriorityDisinherit+0x40>
    2ad6:	30047073          	csrci	mstatus,8
    2ada:	a001                	j	2ada <xTaskPriorityDisinherit+0x3e>
            ( pxTCB->uxMutexesHeld )--;
    2adc:	fe842783          	lw	a5,-24(s0)
    2ae0:	47bc                	lw	a5,72(a5)
    2ae2:	fff78713          	addi	a4,a5,-1
    2ae6:	fe842783          	lw	a5,-24(s0)
    2aea:	c7b8                	sw	a4,72(a5)

            /* Has the holder of the mutex inherited the priority of another
             * task? */
            if( pxTCB->uxPriority != pxTCB->uxBasePriority )
    2aec:	fe842783          	lw	a5,-24(s0)
    2af0:	57d8                	lw	a4,44(a5)
    2af2:	fe842783          	lw	a5,-24(s0)
    2af6:	43fc                	lw	a5,68(a5)
    2af8:	10f70c63          	beq	a4,a5,2c10 <xTaskPriorityDisinherit+0x174>
            {
                /* Only disinherit if no other mutexes are held. */
                if( pxTCB->uxMutexesHeld == ( UBaseType_t ) 0 )
    2afc:	fe842783          	lw	a5,-24(s0)
    2b00:	47bc                	lw	a5,72(a5)
    2b02:	10079763          	bnez	a5,2c10 <xTaskPriorityDisinherit+0x174>
                    /* A task can only have an inherited priority if it holds
                     * the mutex.  If the mutex is held by a task then it cannot be
                     * given from an interrupt, and if a mutex is given by the
                     * holding task then it must be the running state task.  Remove
                     * the holding task from the ready list. */
                    if( uxListRemove( &( pxTCB->xStateListItem ) ) == ( UBaseType_t ) 0 )
    2b06:	fe842783          	lw	a5,-24(s0)
    2b0a:	0791                	addi	a5,a5,4
    2b0c:	853e                	mv	a0,a5
    2b0e:	2c6010ef          	jal	3dd4 <uxListRemove>
    2b12:	87aa                	mv	a5,a0
    2b14:	ef91                	bnez	a5,2b30 <xTaskPriorityDisinherit+0x94>
                    {
                        portRESET_READY_PRIORITY( pxTCB->uxPriority, uxTopReadyPriority );
    2b16:	fe842783          	lw	a5,-24(s0)
    2b1a:	57dc                	lw	a5,44(a5)
    2b1c:	4705                	li	a4,1
    2b1e:	00f717b3          	sll	a5,a4,a5
    2b22:	fff7c713          	not	a4,a5
    2b26:	b4c1a783          	lw	a5,-1204(gp) # 200003a4 <uxTopReadyPriority>
    2b2a:	8f7d                	and	a4,a4,a5
    2b2c:	b4e1a623          	sw	a4,-1204(gp) # 200003a4 <uxTopReadyPriority>
                    }

                    /* Disinherit the priority before adding the task into the
                     * new  ready list. */
                    traceTASK_PRIORITY_DISINHERIT( pxTCB, pxTCB->uxBasePriority );
                    pxTCB->uxPriority = pxTCB->uxBasePriority;
    2b30:	fe842783          	lw	a5,-24(s0)
    2b34:	43f8                	lw	a4,68(a5)
    2b36:	fe842783          	lw	a5,-24(s0)
    2b3a:	d7d8                	sw	a4,44(a5)

                    /* Reset the event list item value.  It cannot be in use for
                     * any other purpose if this task is running, and it must be
                     * running to give back the mutex. */
                    listSET_LIST_ITEM_VALUE( &( pxTCB->xEventListItem ), ( TickType_t ) configMAX_PRIORITIES - ( TickType_t ) pxTCB->uxPriority );
    2b3c:	fe842783          	lw	a5,-24(s0)
    2b40:	57dc                	lw	a5,44(a5)
    2b42:	02000713          	li	a4,32
    2b46:	8f1d                	sub	a4,a4,a5
    2b48:	fe842783          	lw	a5,-24(s0)
    2b4c:	cf98                	sw	a4,24(a5)
                    prvAddTaskToReadyList( pxTCB );
    2b4e:	fe842783          	lw	a5,-24(s0)
    2b52:	57dc                	lw	a5,44(a5)
    2b54:	4705                	li	a4,1
    2b56:	00f71733          	sll	a4,a4,a5
    2b5a:	b4c1a783          	lw	a5,-1204(gp) # 200003a4 <uxTopReadyPriority>
    2b5e:	8f5d                	or	a4,a4,a5
    2b60:	b4e1a623          	sw	a4,-1204(gp) # 200003a4 <uxTopReadyPriority>
    2b64:	fe842783          	lw	a5,-24(s0)
    2b68:	57d8                	lw	a4,44(a5)
    2b6a:	200007b7          	lui	a5,0x20000
    2b6e:	0ac78693          	addi	a3,a5,172 # 200000ac <pxReadyTasksLists>
    2b72:	87ba                	mv	a5,a4
    2b74:	078a                	slli	a5,a5,0x2
    2b76:	97ba                	add	a5,a5,a4
    2b78:	078a                	slli	a5,a5,0x2
    2b7a:	97b6                	add	a5,a5,a3
    2b7c:	43dc                	lw	a5,4(a5)
    2b7e:	fef42223          	sw	a5,-28(s0)
    2b82:	fe842783          	lw	a5,-24(s0)
    2b86:	fe442703          	lw	a4,-28(s0)
    2b8a:	c798                	sw	a4,8(a5)
    2b8c:	fe442783          	lw	a5,-28(s0)
    2b90:	4798                	lw	a4,8(a5)
    2b92:	fe842783          	lw	a5,-24(s0)
    2b96:	c7d8                	sw	a4,12(a5)
    2b98:	fe442783          	lw	a5,-28(s0)
    2b9c:	479c                	lw	a5,8(a5)
    2b9e:	fe842703          	lw	a4,-24(s0)
    2ba2:	0711                	addi	a4,a4,4
    2ba4:	c3d8                	sw	a4,4(a5)
    2ba6:	fe842783          	lw	a5,-24(s0)
    2baa:	00478713          	addi	a4,a5,4
    2bae:	fe442783          	lw	a5,-28(s0)
    2bb2:	c798                	sw	a4,8(a5)
    2bb4:	fe842783          	lw	a5,-24(s0)
    2bb8:	57d8                	lw	a4,44(a5)
    2bba:	87ba                	mv	a5,a4
    2bbc:	078a                	slli	a5,a5,0x2
    2bbe:	97ba                	add	a5,a5,a4
    2bc0:	078a                	slli	a5,a5,0x2
    2bc2:	20000737          	lui	a4,0x20000
    2bc6:	0ac70713          	addi	a4,a4,172 # 200000ac <pxReadyTasksLists>
    2bca:	973e                	add	a4,a4,a5
    2bcc:	fe842783          	lw	a5,-24(s0)
    2bd0:	cbd8                	sw	a4,20(a5)
    2bd2:	fe842783          	lw	a5,-24(s0)
    2bd6:	57d8                	lw	a4,44(a5)
    2bd8:	200007b7          	lui	a5,0x20000
    2bdc:	0ac78693          	addi	a3,a5,172 # 200000ac <pxReadyTasksLists>
    2be0:	87ba                	mv	a5,a4
    2be2:	078a                	slli	a5,a5,0x2
    2be4:	97ba                	add	a5,a5,a4
    2be6:	078a                	slli	a5,a5,0x2
    2be8:	97b6                	add	a5,a5,a3
    2bea:	439c                	lw	a5,0(a5)
    2bec:	fe842703          	lw	a4,-24(s0)
    2bf0:	5758                	lw	a4,44(a4)
    2bf2:	00178693          	addi	a3,a5,1
    2bf6:	200007b7          	lui	a5,0x20000
    2bfa:	0ac78613          	addi	a2,a5,172 # 200000ac <pxReadyTasksLists>
    2bfe:	87ba                	mv	a5,a4
    2c00:	078a                	slli	a5,a5,0x2
    2c02:	97ba                	add	a5,a5,a4
    2c04:	078a                	slli	a5,a5,0x2
    2c06:	97b2                	add	a5,a5,a2
    2c08:	c394                	sw	a3,0(a5)
                     * in an order different to that in which they were taken.
                     * If a context switch did not occur when the first mutex was
                     * returned, even if a task was waiting on it, then a context
                     * switch should occur when the last mutex is returned whether
                     * a task is waiting on it or not. */
                    xReturn = pdTRUE;
    2c0a:	4785                	li	a5,1
    2c0c:	fef42623          	sw	a5,-20(s0)
            mtCOVERAGE_TEST_MARKER();
        }

        traceRETURN_xTaskPriorityDisinherit( xReturn );

        return xReturn;
    2c10:	fec42783          	lw	a5,-20(s0)
    }
    2c14:	853e                	mv	a0,a5
    2c16:	50b2                	lw	ra,44(sp)
    2c18:	5422                	lw	s0,40(sp)
    2c1a:	6145                	addi	sp,sp,48
    2c1c:	8082                	ret

00002c1e <vTaskPriorityDisinheritAfterTimeout>:

#if ( configUSE_MUTEXES == 1 )

    void vTaskPriorityDisinheritAfterTimeout( TaskHandle_t const pxMutexHolder,
                                              UBaseType_t uxHighestPriorityWaitingTask )
    {
    2c1e:	7139                	addi	sp,sp,-64
    2c20:	de06                	sw	ra,60(sp)
    2c22:	dc22                	sw	s0,56(sp)
    2c24:	0080                	addi	s0,sp,64
    2c26:	fca42623          	sw	a0,-52(s0)
    2c2a:	fcb42423          	sw	a1,-56(s0)
        TCB_t * const pxTCB = pxMutexHolder;
    2c2e:	fcc42783          	lw	a5,-52(s0)
    2c32:	fef42423          	sw	a5,-24(s0)
        UBaseType_t uxPriorityUsedOnEntry, uxPriorityToUse;
        const UBaseType_t uxOnlyOneMutexHeld = ( UBaseType_t ) 1;
    2c36:	4785                	li	a5,1
    2c38:	fef42223          	sw	a5,-28(s0)

        traceENTER_vTaskPriorityDisinheritAfterTimeout( pxMutexHolder, uxHighestPriorityWaitingTask );

        if( pxMutexHolder != NULL )
    2c3c:	fcc42783          	lw	a5,-52(s0)
    2c40:	18078a63          	beqz	a5,2dd4 <vTaskPriorityDisinheritAfterTimeout+0x1b6>
        {
            /* If pxMutexHolder is not NULL then the holder must hold at least
             * one mutex. */
            configASSERT( pxTCB->uxMutexesHeld );
    2c44:	fe842783          	lw	a5,-24(s0)
    2c48:	47bc                	lw	a5,72(a5)
    2c4a:	e781                	bnez	a5,2c52 <vTaskPriorityDisinheritAfterTimeout+0x34>
    2c4c:	30047073          	csrci	mstatus,8
    2c50:	a001                	j	2c50 <vTaskPriorityDisinheritAfterTimeout+0x32>

            /* Determine the priority to which the priority of the task that
             * holds the mutex should be set.  This will be the greater of the
             * holding task's base priority and the priority of the highest
             * priority task that is waiting to obtain the mutex. */
            if( pxTCB->uxBasePriority < uxHighestPriorityWaitingTask )
    2c52:	fe842783          	lw	a5,-24(s0)
    2c56:	43fc                	lw	a5,68(a5)
    2c58:	fc842703          	lw	a4,-56(s0)
    2c5c:	00e7f763          	bgeu	a5,a4,2c6a <vTaskPriorityDisinheritAfterTimeout+0x4c>
            {
                uxPriorityToUse = uxHighestPriorityWaitingTask;
    2c60:	fc842783          	lw	a5,-56(s0)
    2c64:	fef42623          	sw	a5,-20(s0)
    2c68:	a031                	j	2c74 <vTaskPriorityDisinheritAfterTimeout+0x56>
            }
            else
            {
                uxPriorityToUse = pxTCB->uxBasePriority;
    2c6a:	fe842783          	lw	a5,-24(s0)
    2c6e:	43fc                	lw	a5,68(a5)
    2c70:	fef42623          	sw	a5,-20(s0)
            }

            /* Does the priority need to change? */
            if( pxTCB->uxPriority != uxPriorityToUse )
    2c74:	fe842783          	lw	a5,-24(s0)
    2c78:	57dc                	lw	a5,44(a5)
    2c7a:	fec42703          	lw	a4,-20(s0)
    2c7e:	14f70b63          	beq	a4,a5,2dd4 <vTaskPriorityDisinheritAfterTimeout+0x1b6>
            {
                /* Only disinherit if no other mutexes are held.  This is a
                 * simplification in the priority inheritance implementation.  If
                 * the task that holds the mutex is also holding other mutexes then
                 * the other mutexes may have caused the priority inheritance. */
                if( pxTCB->uxMutexesHeld == uxOnlyOneMutexHeld )
    2c82:	fe842783          	lw	a5,-24(s0)
    2c86:	47bc                	lw	a5,72(a5)
    2c88:	fe442703          	lw	a4,-28(s0)
    2c8c:	14f71463          	bne	a4,a5,2dd4 <vTaskPriorityDisinheritAfterTimeout+0x1b6>
                {
                    /* If a task has timed out because it already holds the
                     * mutex it was trying to obtain then it cannot of inherited
                     * its own priority. */
                    configASSERT( pxTCB != pxCurrentTCB );
    2c90:	8281a783          	lw	a5,-2008(gp) # 20000080 <pxCurrentTCB>
    2c94:	fe842703          	lw	a4,-24(s0)
    2c98:	00f71563          	bne	a4,a5,2ca2 <vTaskPriorityDisinheritAfterTimeout+0x84>
    2c9c:	30047073          	csrci	mstatus,8
    2ca0:	a001                	j	2ca0 <vTaskPriorityDisinheritAfterTimeout+0x82>

                    /* Disinherit the priority, remembering the previous
                     * priority to facilitate determining the subject task's
                     * state. */
                    traceTASK_PRIORITY_DISINHERIT( pxTCB, uxPriorityToUse );
                    uxPriorityUsedOnEntry = pxTCB->uxPriority;
    2ca2:	fe842783          	lw	a5,-24(s0)
    2ca6:	57dc                	lw	a5,44(a5)
    2ca8:	fef42023          	sw	a5,-32(s0)
                    pxTCB->uxPriority = uxPriorityToUse;
    2cac:	fe842783          	lw	a5,-24(s0)
    2cb0:	fec42703          	lw	a4,-20(s0)
    2cb4:	d7d8                	sw	a4,44(a5)

                    /* Only reset the event list item value if the value is not
                     * being used for anything else. */
                    if( ( listGET_LIST_ITEM_VALUE( &( pxTCB->xEventListItem ) ) & taskEVENT_LIST_ITEM_VALUE_IN_USE ) == ( ( TickType_t ) 0U ) )
    2cb6:	fe842783          	lw	a5,-24(s0)
    2cba:	4f9c                	lw	a5,24(a5)
    2cbc:	0007ca63          	bltz	a5,2cd0 <vTaskPriorityDisinheritAfterTimeout+0xb2>
                    {
                        listSET_LIST_ITEM_VALUE( &( pxTCB->xEventListItem ), ( TickType_t ) configMAX_PRIORITIES - ( TickType_t ) uxPriorityToUse );
    2cc0:	02000713          	li	a4,32
    2cc4:	fec42783          	lw	a5,-20(s0)
    2cc8:	8f1d                	sub	a4,a4,a5
    2cca:	fe842783          	lw	a5,-24(s0)
    2cce:	cf98                	sw	a4,24(a5)
                     * then the task that holds the mutex could be in either the
                     * Ready, Blocked or Suspended states.  Only remove the task
                     * from its current state list if it is in the Ready state as
                     * the task's priority is going to change and there is one
                     * Ready list per priority. */
                    if( listIS_CONTAINED_WITHIN( &( pxReadyTasksLists[ uxPriorityUsedOnEntry ] ), &( pxTCB->xStateListItem ) ) != pdFALSE )
    2cd0:	fe842783          	lw	a5,-24(s0)
    2cd4:	4bd4                	lw	a3,20(a5)
    2cd6:	fe042703          	lw	a4,-32(s0)
    2cda:	87ba                	mv	a5,a4
    2cdc:	078a                	slli	a5,a5,0x2
    2cde:	97ba                	add	a5,a5,a4
    2ce0:	078a                	slli	a5,a5,0x2
    2ce2:	20000737          	lui	a4,0x20000
    2ce6:	0ac70713          	addi	a4,a4,172 # 200000ac <pxReadyTasksLists>
    2cea:	97ba                	add	a5,a5,a4
    2cec:	0ef69463          	bne	a3,a5,2dd4 <vTaskPriorityDisinheritAfterTimeout+0x1b6>
                    {
                        if( uxListRemove( &( pxTCB->xStateListItem ) ) == ( UBaseType_t ) 0 )
    2cf0:	fe842783          	lw	a5,-24(s0)
    2cf4:	0791                	addi	a5,a5,4
    2cf6:	853e                	mv	a0,a5
    2cf8:	0dc010ef          	jal	3dd4 <uxListRemove>
    2cfc:	87aa                	mv	a5,a0
    2cfe:	ef89                	bnez	a5,2d18 <vTaskPriorityDisinheritAfterTimeout+0xfa>
                        {
                            /* It is known that the task is in its ready list so
                             * there is no need to check again and the port level
                             * reset macro can be called directly. */
                            portRESET_READY_PRIORITY( uxPriorityUsedOnEntry, uxTopReadyPriority );
    2d00:	fe042783          	lw	a5,-32(s0)
    2d04:	4705                	li	a4,1
    2d06:	00f717b3          	sll	a5,a4,a5
    2d0a:	fff7c713          	not	a4,a5
    2d0e:	b4c1a783          	lw	a5,-1204(gp) # 200003a4 <uxTopReadyPriority>
    2d12:	8f7d                	and	a4,a4,a5
    2d14:	b4e1a623          	sw	a4,-1204(gp) # 200003a4 <uxTopReadyPriority>
                        else
                        {
                            mtCOVERAGE_TEST_MARKER();
                        }

                        prvAddTaskToReadyList( pxTCB );
    2d18:	fe842783          	lw	a5,-24(s0)
    2d1c:	57dc                	lw	a5,44(a5)
    2d1e:	4705                	li	a4,1
    2d20:	00f71733          	sll	a4,a4,a5
    2d24:	b4c1a783          	lw	a5,-1204(gp) # 200003a4 <uxTopReadyPriority>
    2d28:	8f5d                	or	a4,a4,a5
    2d2a:	b4e1a623          	sw	a4,-1204(gp) # 200003a4 <uxTopReadyPriority>
    2d2e:	fe842783          	lw	a5,-24(s0)
    2d32:	57d8                	lw	a4,44(a5)
    2d34:	200007b7          	lui	a5,0x20000
    2d38:	0ac78693          	addi	a3,a5,172 # 200000ac <pxReadyTasksLists>
    2d3c:	87ba                	mv	a5,a4
    2d3e:	078a                	slli	a5,a5,0x2
    2d40:	97ba                	add	a5,a5,a4
    2d42:	078a                	slli	a5,a5,0x2
    2d44:	97b6                	add	a5,a5,a3
    2d46:	43dc                	lw	a5,4(a5)
    2d48:	fcf42e23          	sw	a5,-36(s0)
    2d4c:	fe842783          	lw	a5,-24(s0)
    2d50:	fdc42703          	lw	a4,-36(s0)
    2d54:	c798                	sw	a4,8(a5)
    2d56:	fdc42783          	lw	a5,-36(s0)
    2d5a:	4798                	lw	a4,8(a5)
    2d5c:	fe842783          	lw	a5,-24(s0)
    2d60:	c7d8                	sw	a4,12(a5)
    2d62:	fdc42783          	lw	a5,-36(s0)
    2d66:	479c                	lw	a5,8(a5)
    2d68:	fe842703          	lw	a4,-24(s0)
    2d6c:	0711                	addi	a4,a4,4
    2d6e:	c3d8                	sw	a4,4(a5)
    2d70:	fe842783          	lw	a5,-24(s0)
    2d74:	00478713          	addi	a4,a5,4
    2d78:	fdc42783          	lw	a5,-36(s0)
    2d7c:	c798                	sw	a4,8(a5)
    2d7e:	fe842783          	lw	a5,-24(s0)
    2d82:	57d8                	lw	a4,44(a5)
    2d84:	87ba                	mv	a5,a4
    2d86:	078a                	slli	a5,a5,0x2
    2d88:	97ba                	add	a5,a5,a4
    2d8a:	078a                	slli	a5,a5,0x2
    2d8c:	20000737          	lui	a4,0x20000
    2d90:	0ac70713          	addi	a4,a4,172 # 200000ac <pxReadyTasksLists>
    2d94:	973e                	add	a4,a4,a5
    2d96:	fe842783          	lw	a5,-24(s0)
    2d9a:	cbd8                	sw	a4,20(a5)
    2d9c:	fe842783          	lw	a5,-24(s0)
    2da0:	57d8                	lw	a4,44(a5)
    2da2:	200007b7          	lui	a5,0x20000
    2da6:	0ac78693          	addi	a3,a5,172 # 200000ac <pxReadyTasksLists>
    2daa:	87ba                	mv	a5,a4
    2dac:	078a                	slli	a5,a5,0x2
    2dae:	97ba                	add	a5,a5,a4
    2db0:	078a                	slli	a5,a5,0x2
    2db2:	97b6                	add	a5,a5,a3
    2db4:	439c                	lw	a5,0(a5)
    2db6:	fe842703          	lw	a4,-24(s0)
    2dba:	5758                	lw	a4,44(a4)
    2dbc:	00178693          	addi	a3,a5,1
    2dc0:	200007b7          	lui	a5,0x20000
    2dc4:	0ac78613          	addi	a2,a5,172 # 200000ac <pxReadyTasksLists>
    2dc8:	87ba                	mv	a5,a4
    2dca:	078a                	slli	a5,a5,0x2
    2dcc:	97ba                	add	a5,a5,a4
    2dce:	078a                	slli	a5,a5,0x2
    2dd0:	97b2                	add	a5,a5,a2
    2dd2:	c394                	sw	a3,0(a5)
        {
            mtCOVERAGE_TEST_MARKER();
        }

        traceRETURN_vTaskPriorityDisinheritAfterTimeout();
    }
    2dd4:	0001                	nop
    2dd6:	50f2                	lw	ra,60(sp)
    2dd8:	5462                	lw	s0,56(sp)
    2dda:	6121                	addi	sp,sp,64
    2ddc:	8082                	ret

00002dde <uxTaskResetEventItemValue>:

#endif /* ( ( configGENERATE_RUN_TIME_STATS == 1 ) && ( configUSE_STATS_FORMATTING_FUNCTIONS > 0 ) ) */
/*-----------------------------------------------------------*/

TickType_t uxTaskResetEventItemValue( void )
{
    2dde:	1101                	addi	sp,sp,-32
    2de0:	ce06                	sw	ra,28(sp)
    2de2:	cc22                	sw	s0,24(sp)
    2de4:	1000                	addi	s0,sp,32
    TickType_t uxReturn;

    traceENTER_uxTaskResetEventItemValue();

    uxReturn = listGET_LIST_ITEM_VALUE( &( pxCurrentTCB->xEventListItem ) );
    2de6:	8281a783          	lw	a5,-2008(gp) # 20000080 <pxCurrentTCB>
    2dea:	4f9c                	lw	a5,24(a5)
    2dec:	fef42623          	sw	a5,-20(s0)

    /* Reset the event list item to its normal value - so it can be used with
     * queues and semaphores. */
    listSET_LIST_ITEM_VALUE( &( pxCurrentTCB->xEventListItem ), ( ( TickType_t ) configMAX_PRIORITIES - ( TickType_t ) pxCurrentTCB->uxPriority ) );
    2df0:	8281a783          	lw	a5,-2008(gp) # 20000080 <pxCurrentTCB>
    2df4:	57d8                	lw	a4,44(a5)
    2df6:	8281a783          	lw	a5,-2008(gp) # 20000080 <pxCurrentTCB>
    2dfa:	02000693          	li	a3,32
    2dfe:	40e68733          	sub	a4,a3,a4
    2e02:	cf98                	sw	a4,24(a5)

    traceRETURN_uxTaskResetEventItemValue( uxReturn );

    return uxReturn;
    2e04:	fec42783          	lw	a5,-20(s0)
}
    2e08:	853e                	mv	a0,a5
    2e0a:	40f2                	lw	ra,28(sp)
    2e0c:	4462                	lw	s0,24(sp)
    2e0e:	6105                	addi	sp,sp,32
    2e10:	8082                	ret

00002e12 <pvTaskIncrementMutexHeldCount>:
/*-----------------------------------------------------------*/

#if ( configUSE_MUTEXES == 1 )

    TaskHandle_t pvTaskIncrementMutexHeldCount( void )
    {
    2e12:	1101                	addi	sp,sp,-32
    2e14:	ce06                	sw	ra,28(sp)
    2e16:	cc22                	sw	s0,24(sp)
    2e18:	1000                	addi	s0,sp,32
        TCB_t * pxTCB;

        traceENTER_pvTaskIncrementMutexHeldCount();

        pxTCB = pxCurrentTCB;
    2e1a:	8281a783          	lw	a5,-2008(gp) # 20000080 <pxCurrentTCB>
    2e1e:	fef42623          	sw	a5,-20(s0)

        /* If xSemaphoreCreateMutex() is called before any tasks have been created
         * then pxCurrentTCB will be NULL. */
        if( pxTCB != NULL )
    2e22:	fec42783          	lw	a5,-20(s0)
    2e26:	cb89                	beqz	a5,2e38 <pvTaskIncrementMutexHeldCount+0x26>
        {
            ( pxTCB->uxMutexesHeld )++;
    2e28:	fec42783          	lw	a5,-20(s0)
    2e2c:	47bc                	lw	a5,72(a5)
    2e2e:	00178713          	addi	a4,a5,1
    2e32:	fec42783          	lw	a5,-20(s0)
    2e36:	c7b8                	sw	a4,72(a5)
        }

        traceRETURN_pvTaskIncrementMutexHeldCount( pxTCB );

        return pxTCB;
    2e38:	fec42783          	lw	a5,-20(s0)
    }
    2e3c:	853e                	mv	a0,a5
    2e3e:	40f2                	lw	ra,28(sp)
    2e40:	4462                	lw	s0,24(sp)
    2e42:	6105                	addi	sp,sp,32
    2e44:	8082                	ret

00002e46 <ulTaskGenericNotifyTake>:
#if ( configUSE_TASK_NOTIFICATIONS == 1 )

    uint32_t ulTaskGenericNotifyTake( UBaseType_t uxIndexToWaitOn,
                                      BaseType_t xClearCountOnExit,
                                      TickType_t xTicksToWait )
    {
    2e46:	7179                	addi	sp,sp,-48
    2e48:	d606                	sw	ra,44(sp)
    2e4a:	d422                	sw	s0,40(sp)
    2e4c:	1800                	addi	s0,sp,48
    2e4e:	fca42e23          	sw	a0,-36(s0)
    2e52:	fcb42c23          	sw	a1,-40(s0)
    2e56:	fcc42a23          	sw	a2,-44(s0)
        uint32_t ulReturn;
        BaseType_t xAlreadyYielded, xShouldBlock = pdFALSE;
    2e5a:	fe042623          	sw	zero,-20(s0)

        traceENTER_ulTaskGenericNotifyTake( uxIndexToWaitOn, xClearCountOnExit, xTicksToWait );

        configASSERT( uxIndexToWaitOn < configTASK_NOTIFICATION_ARRAY_ENTRIES );
    2e5e:	fdc42783          	lw	a5,-36(s0)
    2e62:	c781                	beqz	a5,2e6a <ulTaskGenericNotifyTake+0x24>
    2e64:	30047073          	csrci	mstatus,8
    2e68:	a001                	j	2e68 <ulTaskGenericNotifyTake+0x22>

        /* If the notification count is zero, and if we are willing to wait for a
         * notification, then block the task and wait. */
        if( ( pxCurrentTCB->ulNotifiedValue[ uxIndexToWaitOn ] == 0U ) && ( xTicksToWait > ( TickType_t ) 0 ) )
    2e6a:	8281a703          	lw	a4,-2008(gp) # 20000080 <pxCurrentTCB>
    2e6e:	fdc42783          	lw	a5,-36(s0)
    2e72:	07d1                	addi	a5,a5,20
    2e74:	078a                	slli	a5,a5,0x2
    2e76:	97ba                	add	a5,a5,a4
    2e78:	439c                	lw	a5,0(a5)
    2e7a:	e7c9                	bnez	a5,2f04 <ulTaskGenericNotifyTake+0xbe>
    2e7c:	fd442783          	lw	a5,-44(s0)
    2e80:	c3d1                	beqz	a5,2f04 <ulTaskGenericNotifyTake+0xbe>
        {
            /* We suspend the scheduler here as prvAddCurrentTaskToDelayedList is a
             * non-deterministic operation. */
            vTaskSuspendAll();
    2e82:	fd8fe0ef          	jal	165a <vTaskSuspendAll>
            {
                /* We MUST enter a critical section to atomically check if a notification
                 * has occurred and set the flag to indicate that we are waiting for
                 * a notification. If we do not do so, a notification sent from an ISR
                 * will get lost. */
                taskENTER_CRITICAL();
    2e86:	30047073          	csrci	mstatus,8
    2e8a:	8081a783          	lw	a5,-2040(gp) # 20000060 <xCriticalNesting>
    2e8e:	00178713          	addi	a4,a5,1
    2e92:	80e1a423          	sw	a4,-2040(gp) # 20000060 <xCriticalNesting>
                {
                    /* Only block if the notification count is not already non-zero. */
                    if( pxCurrentTCB->ulNotifiedValue[ uxIndexToWaitOn ] == 0U )
    2e96:	8281a703          	lw	a4,-2008(gp) # 20000080 <pxCurrentTCB>
    2e9a:	fdc42783          	lw	a5,-36(s0)
    2e9e:	07d1                	addi	a5,a5,20
    2ea0:	078a                	slli	a5,a5,0x2
    2ea2:	97ba                	add	a5,a5,a4
    2ea4:	439c                	lw	a5,0(a5)
    2ea6:	ef81                	bnez	a5,2ebe <ulTaskGenericNotifyTake+0x78>
                    {
                        /* Mark this task as waiting for a notification. */
                        pxCurrentTCB->ucNotifyState[ uxIndexToWaitOn ] = taskWAITING_NOTIFICATION;
    2ea8:	8281a703          	lw	a4,-2008(gp) # 20000080 <pxCurrentTCB>
    2eac:	fdc42783          	lw	a5,-36(s0)
    2eb0:	97ba                	add	a5,a5,a4
    2eb2:	4705                	li	a4,1
    2eb4:	04e78a23          	sb	a4,84(a5)

                        /* Arrange to wait for a notification. */
                        xShouldBlock = pdTRUE;
    2eb8:	4785                	li	a5,1
    2eba:	fef42623          	sw	a5,-20(s0)
                    else
                    {
                        mtCOVERAGE_TEST_MARKER();
                    }
                }
                taskEXIT_CRITICAL();
    2ebe:	8081a783          	lw	a5,-2040(gp) # 20000060 <xCriticalNesting>
    2ec2:	fff78713          	addi	a4,a5,-1
    2ec6:	80e1a423          	sw	a4,-2040(gp) # 20000060 <xCriticalNesting>
    2eca:	8081a783          	lw	a5,-2040(gp) # 20000060 <xCriticalNesting>
    2ece:	e399                	bnez	a5,2ed4 <ulTaskGenericNotifyTake+0x8e>
    2ed0:	30046073          	csrsi	mstatus,8

                /* We are now out of the critical section but the scheduler is still
                 * suspended, so we are safe to do non-deterministic operations such
                 * as prvAddCurrentTaskToDelayedList. */
                if( xShouldBlock == pdTRUE )
    2ed4:	fec42703          	lw	a4,-20(s0)
    2ed8:	4785                	li	a5,1
    2eda:	00f71763          	bne	a4,a5,2ee8 <ulTaskGenericNotifyTake+0xa2>
                {
                    traceTASK_NOTIFY_TAKE_BLOCK( uxIndexToWaitOn );
                    prvAddCurrentTaskToDelayedList( xTicksToWait, pdTRUE );
    2ede:	4585                	li	a1,1
    2ee0:	fd442503          	lw	a0,-44(s0)
    2ee4:	3f3000ef          	jal	3ad6 <prvAddCurrentTaskToDelayedList>
                else
                {
                    mtCOVERAGE_TEST_MARKER();
                }
            }
            xAlreadyYielded = xTaskResumeAll();
    2ee8:	f90fe0ef          	jal	1678 <xTaskResumeAll>
    2eec:	fea42423          	sw	a0,-24(s0)

            /* Force a reschedule if xTaskResumeAll has not already done so. */
            if( ( xShouldBlock == pdTRUE ) && ( xAlreadyYielded == pdFALSE ) )
    2ef0:	fec42703          	lw	a4,-20(s0)
    2ef4:	4785                	li	a5,1
    2ef6:	00f71763          	bne	a4,a5,2f04 <ulTaskGenericNotifyTake+0xbe>
    2efa:	fe842783          	lw	a5,-24(s0)
    2efe:	e399                	bnez	a5,2f04 <ulTaskGenericNotifyTake+0xbe>
            {
                taskYIELD_WITHIN_API();
    2f00:	00000073          	ecall
            {
                mtCOVERAGE_TEST_MARKER();
            }
        }

        taskENTER_CRITICAL();
    2f04:	30047073          	csrci	mstatus,8
    2f08:	8081a783          	lw	a5,-2040(gp) # 20000060 <xCriticalNesting>
    2f0c:	00178713          	addi	a4,a5,1
    2f10:	80e1a423          	sw	a4,-2040(gp) # 20000060 <xCriticalNesting>
        {
            traceTASK_NOTIFY_TAKE( uxIndexToWaitOn );
            ulReturn = pxCurrentTCB->ulNotifiedValue[ uxIndexToWaitOn ];
    2f14:	8281a703          	lw	a4,-2008(gp) # 20000080 <pxCurrentTCB>
    2f18:	fdc42783          	lw	a5,-36(s0)
    2f1c:	07d1                	addi	a5,a5,20
    2f1e:	078a                	slli	a5,a5,0x2
    2f20:	97ba                	add	a5,a5,a4
    2f22:	439c                	lw	a5,0(a5)
    2f24:	fef42223          	sw	a5,-28(s0)

            if( ulReturn != 0U )
    2f28:	fe442783          	lw	a5,-28(s0)
    2f2c:	cb95                	beqz	a5,2f60 <ulTaskGenericNotifyTake+0x11a>
            {
                if( xClearCountOnExit != pdFALSE )
    2f2e:	fd842783          	lw	a5,-40(s0)
    2f32:	cb99                	beqz	a5,2f48 <ulTaskGenericNotifyTake+0x102>
                {
                    pxCurrentTCB->ulNotifiedValue[ uxIndexToWaitOn ] = ( uint32_t ) 0U;
    2f34:	8281a703          	lw	a4,-2008(gp) # 20000080 <pxCurrentTCB>
    2f38:	fdc42783          	lw	a5,-36(s0)
    2f3c:	07d1                	addi	a5,a5,20
    2f3e:	078a                	slli	a5,a5,0x2
    2f40:	97ba                	add	a5,a5,a4
    2f42:	0007a023          	sw	zero,0(a5)
    2f46:	a829                	j	2f60 <ulTaskGenericNotifyTake+0x11a>
                }
                else
                {
                    pxCurrentTCB->ulNotifiedValue[ uxIndexToWaitOn ] = ulReturn - ( uint32_t ) 1;
    2f48:	8281a683          	lw	a3,-2008(gp) # 20000080 <pxCurrentTCB>
    2f4c:	fe442783          	lw	a5,-28(s0)
    2f50:	fff78713          	addi	a4,a5,-1
    2f54:	fdc42783          	lw	a5,-36(s0)
    2f58:	07d1                	addi	a5,a5,20
    2f5a:	078a                	slli	a5,a5,0x2
    2f5c:	97b6                	add	a5,a5,a3
    2f5e:	c398                	sw	a4,0(a5)
            else
            {
                mtCOVERAGE_TEST_MARKER();
            }

            pxCurrentTCB->ucNotifyState[ uxIndexToWaitOn ] = taskNOT_WAITING_NOTIFICATION;
    2f60:	8281a703          	lw	a4,-2008(gp) # 20000080 <pxCurrentTCB>
    2f64:	fdc42783          	lw	a5,-36(s0)
    2f68:	97ba                	add	a5,a5,a4
    2f6a:	04078a23          	sb	zero,84(a5)
        }
        taskEXIT_CRITICAL();
    2f6e:	8081a783          	lw	a5,-2040(gp) # 20000060 <xCriticalNesting>
    2f72:	fff78713          	addi	a4,a5,-1
    2f76:	80e1a423          	sw	a4,-2040(gp) # 20000060 <xCriticalNesting>
    2f7a:	8081a783          	lw	a5,-2040(gp) # 20000060 <xCriticalNesting>
    2f7e:	e399                	bnez	a5,2f84 <ulTaskGenericNotifyTake+0x13e>
    2f80:	30046073          	csrsi	mstatus,8

        traceRETURN_ulTaskGenericNotifyTake( ulReturn );

        return ulReturn;
    2f84:	fe442783          	lw	a5,-28(s0)
    }
    2f88:	853e                	mv	a0,a5
    2f8a:	50b2                	lw	ra,44(sp)
    2f8c:	5422                	lw	s0,40(sp)
    2f8e:	6145                	addi	sp,sp,48
    2f90:	8082                	ret

00002f92 <xTaskGenericNotifyWait>:
    BaseType_t xTaskGenericNotifyWait( UBaseType_t uxIndexToWaitOn,
                                       uint32_t ulBitsToClearOnEntry,
                                       uint32_t ulBitsToClearOnExit,
                                       uint32_t * pulNotificationValue,
                                       TickType_t xTicksToWait )
    {
    2f92:	7139                	addi	sp,sp,-64
    2f94:	de06                	sw	ra,60(sp)
    2f96:	dc22                	sw	s0,56(sp)
    2f98:	0080                	addi	s0,sp,64
    2f9a:	fca42e23          	sw	a0,-36(s0)
    2f9e:	fcb42c23          	sw	a1,-40(s0)
    2fa2:	fcc42a23          	sw	a2,-44(s0)
    2fa6:	fcd42823          	sw	a3,-48(s0)
    2faa:	fce42623          	sw	a4,-52(s0)
        BaseType_t xReturn, xAlreadyYielded, xShouldBlock = pdFALSE;
    2fae:	fe042423          	sw	zero,-24(s0)

        traceENTER_xTaskGenericNotifyWait( uxIndexToWaitOn, ulBitsToClearOnEntry, ulBitsToClearOnExit, pulNotificationValue, xTicksToWait );

        configASSERT( uxIndexToWaitOn < configTASK_NOTIFICATION_ARRAY_ENTRIES );
    2fb2:	fdc42783          	lw	a5,-36(s0)
    2fb6:	c781                	beqz	a5,2fbe <xTaskGenericNotifyWait+0x2c>
    2fb8:	30047073          	csrci	mstatus,8
    2fbc:	a001                	j	2fbc <xTaskGenericNotifyWait+0x2a>

        /* If the task hasn't received a notification, and if we are willing to wait
         * for it, then block the task and wait. */
        if( ( pxCurrentTCB->ucNotifyState[ uxIndexToWaitOn ] != taskNOTIFICATION_RECEIVED ) && ( xTicksToWait > ( TickType_t ) 0 ) )
    2fbe:	8281a703          	lw	a4,-2008(gp) # 20000080 <pxCurrentTCB>
    2fc2:	fdc42783          	lw	a5,-36(s0)
    2fc6:	97ba                	add	a5,a5,a4
    2fc8:	0547c783          	lbu	a5,84(a5)
    2fcc:	0ff7f713          	zext.b	a4,a5
    2fd0:	4789                	li	a5,2
    2fd2:	0af70c63          	beq	a4,a5,308a <xTaskGenericNotifyWait+0xf8>
    2fd6:	fcc42783          	lw	a5,-52(s0)
    2fda:	cbc5                	beqz	a5,308a <xTaskGenericNotifyWait+0xf8>
        {
            /* We suspend the scheduler here as prvAddCurrentTaskToDelayedList is a
             * non-deterministic operation. */
            vTaskSuspendAll();
    2fdc:	e7efe0ef          	jal	165a <vTaskSuspendAll>
            {
                /* We MUST enter a critical section to atomically check and update the
                 * task notification value. If we do not do so, a notification from
                 * an ISR will get lost. */
                taskENTER_CRITICAL();
    2fe0:	30047073          	csrci	mstatus,8
    2fe4:	8081a783          	lw	a5,-2040(gp) # 20000060 <xCriticalNesting>
    2fe8:	00178713          	addi	a4,a5,1
    2fec:	80e1a423          	sw	a4,-2040(gp) # 20000060 <xCriticalNesting>
                {
                    /* Only block if a notification is not already pending. */
                    if( pxCurrentTCB->ucNotifyState[ uxIndexToWaitOn ] != taskNOTIFICATION_RECEIVED )
    2ff0:	8281a703          	lw	a4,-2008(gp) # 20000080 <pxCurrentTCB>
    2ff4:	fdc42783          	lw	a5,-36(s0)
    2ff8:	97ba                	add	a5,a5,a4
    2ffa:	0547c783          	lbu	a5,84(a5)
    2ffe:	0ff7f713          	zext.b	a4,a5
    3002:	4789                	li	a5,2
    3004:	04f70063          	beq	a4,a5,3044 <xTaskGenericNotifyWait+0xb2>
                    {
                        /* Clear bits in the task's notification value as bits may get
                         * set by the notifying task or interrupt. This can be used
                         * to clear the value to zero. */
                        pxCurrentTCB->ulNotifiedValue[ uxIndexToWaitOn ] &= ~ulBitsToClearOnEntry;
    3008:	8281a783          	lw	a5,-2008(gp) # 20000080 <pxCurrentTCB>
    300c:	fdc42703          	lw	a4,-36(s0)
    3010:	0751                	addi	a4,a4,20
    3012:	070a                	slli	a4,a4,0x2
    3014:	973e                	add	a4,a4,a5
    3016:	4314                	lw	a3,0(a4)
    3018:	fd842703          	lw	a4,-40(s0)
    301c:	fff74713          	not	a4,a4
    3020:	8f75                	and	a4,a4,a3
    3022:	fdc42683          	lw	a3,-36(s0)
    3026:	06d1                	addi	a3,a3,20 # 10014 <_data_lma+0x7910>
    3028:	068a                	slli	a3,a3,0x2
    302a:	97b6                	add	a5,a5,a3
    302c:	c398                	sw	a4,0(a5)

                        /* Mark this task as waiting for a notification. */
                        pxCurrentTCB->ucNotifyState[ uxIndexToWaitOn ] = taskWAITING_NOTIFICATION;
    302e:	8281a703          	lw	a4,-2008(gp) # 20000080 <pxCurrentTCB>
    3032:	fdc42783          	lw	a5,-36(s0)
    3036:	97ba                	add	a5,a5,a4
    3038:	4705                	li	a4,1
    303a:	04e78a23          	sb	a4,84(a5)

                        /* Arrange to wait for a notification. */
                        xShouldBlock = pdTRUE;
    303e:	4785                	li	a5,1
    3040:	fef42423          	sw	a5,-24(s0)
                    else
                    {
                        mtCOVERAGE_TEST_MARKER();
                    }
                }
                taskEXIT_CRITICAL();
    3044:	8081a783          	lw	a5,-2040(gp) # 20000060 <xCriticalNesting>
    3048:	fff78713          	addi	a4,a5,-1
    304c:	80e1a423          	sw	a4,-2040(gp) # 20000060 <xCriticalNesting>
    3050:	8081a783          	lw	a5,-2040(gp) # 20000060 <xCriticalNesting>
    3054:	e399                	bnez	a5,305a <xTaskGenericNotifyWait+0xc8>
    3056:	30046073          	csrsi	mstatus,8

                /* We are now out of the critical section but the scheduler is still
                 * suspended, so we are safe to do non-deterministic operations such
                 * as prvAddCurrentTaskToDelayedList. */
                if( xShouldBlock == pdTRUE )
    305a:	fe842703          	lw	a4,-24(s0)
    305e:	4785                	li	a5,1
    3060:	00f71763          	bne	a4,a5,306e <xTaskGenericNotifyWait+0xdc>
                {
                    traceTASK_NOTIFY_WAIT_BLOCK( uxIndexToWaitOn );
                    prvAddCurrentTaskToDelayedList( xTicksToWait, pdTRUE );
    3064:	4585                	li	a1,1
    3066:	fcc42503          	lw	a0,-52(s0)
    306a:	26d000ef          	jal	3ad6 <prvAddCurrentTaskToDelayedList>
                else
                {
                    mtCOVERAGE_TEST_MARKER();
                }
            }
            xAlreadyYielded = xTaskResumeAll();
    306e:	e0afe0ef          	jal	1678 <xTaskResumeAll>
    3072:	fea42223          	sw	a0,-28(s0)

            /* Force a reschedule if xTaskResumeAll has not already done so. */
            if( ( xShouldBlock == pdTRUE ) && ( xAlreadyYielded == pdFALSE ) )
    3076:	fe842703          	lw	a4,-24(s0)
    307a:	4785                	li	a5,1
    307c:	00f71763          	bne	a4,a5,308a <xTaskGenericNotifyWait+0xf8>
    3080:	fe442783          	lw	a5,-28(s0)
    3084:	e399                	bnez	a5,308a <xTaskGenericNotifyWait+0xf8>
            {
                taskYIELD_WITHIN_API();
    3086:	00000073          	ecall
            {
                mtCOVERAGE_TEST_MARKER();
            }
        }

        taskENTER_CRITICAL();
    308a:	30047073          	csrci	mstatus,8
    308e:	8081a783          	lw	a5,-2040(gp) # 20000060 <xCriticalNesting>
    3092:	00178713          	addi	a4,a5,1
    3096:	80e1a423          	sw	a4,-2040(gp) # 20000060 <xCriticalNesting>
        {
            traceTASK_NOTIFY_WAIT( uxIndexToWaitOn );

            if( pulNotificationValue != NULL )
    309a:	fd042783          	lw	a5,-48(s0)
    309e:	cf81                	beqz	a5,30b6 <xTaskGenericNotifyWait+0x124>
            {
                /* Output the current notification value, which may or may not
                 * have changed. */
                *pulNotificationValue = pxCurrentTCB->ulNotifiedValue[ uxIndexToWaitOn ];
    30a0:	8281a703          	lw	a4,-2008(gp) # 20000080 <pxCurrentTCB>
    30a4:	fdc42783          	lw	a5,-36(s0)
    30a8:	07d1                	addi	a5,a5,20
    30aa:	078a                	slli	a5,a5,0x2
    30ac:	97ba                	add	a5,a5,a4
    30ae:	4398                	lw	a4,0(a5)
    30b0:	fd042783          	lw	a5,-48(s0)
    30b4:	c398                	sw	a4,0(a5)

            /* If ucNotifyValue is set then either the task never entered the
             * blocked state (because a notification was already pending) or the
             * task unblocked because of a notification.  Otherwise the task
             * unblocked because of a timeout. */
            if( pxCurrentTCB->ucNotifyState[ uxIndexToWaitOn ] != taskNOTIFICATION_RECEIVED )
    30b6:	8281a703          	lw	a4,-2008(gp) # 20000080 <pxCurrentTCB>
    30ba:	fdc42783          	lw	a5,-36(s0)
    30be:	97ba                	add	a5,a5,a4
    30c0:	0547c783          	lbu	a5,84(a5)
    30c4:	0ff7f713          	zext.b	a4,a5
    30c8:	4789                	li	a5,2
    30ca:	00f70563          	beq	a4,a5,30d4 <xTaskGenericNotifyWait+0x142>
            {
                /* A notification was not received. */
                xReturn = pdFALSE;
    30ce:	fe042623          	sw	zero,-20(s0)
    30d2:	a03d                	j	3100 <xTaskGenericNotifyWait+0x16e>
            }
            else
            {
                /* A notification was already pending or a notification was
                 * received while the task was waiting. */
                pxCurrentTCB->ulNotifiedValue[ uxIndexToWaitOn ] &= ~ulBitsToClearOnExit;
    30d4:	8281a783          	lw	a5,-2008(gp) # 20000080 <pxCurrentTCB>
    30d8:	fdc42703          	lw	a4,-36(s0)
    30dc:	0751                	addi	a4,a4,20
    30de:	070a                	slli	a4,a4,0x2
    30e0:	973e                	add	a4,a4,a5
    30e2:	4314                	lw	a3,0(a4)
    30e4:	fd442703          	lw	a4,-44(s0)
    30e8:	fff74713          	not	a4,a4
    30ec:	8f75                	and	a4,a4,a3
    30ee:	fdc42683          	lw	a3,-36(s0)
    30f2:	06d1                	addi	a3,a3,20
    30f4:	068a                	slli	a3,a3,0x2
    30f6:	97b6                	add	a5,a5,a3
    30f8:	c398                	sw	a4,0(a5)
                xReturn = pdTRUE;
    30fa:	4785                	li	a5,1
    30fc:	fef42623          	sw	a5,-20(s0)
            }

            pxCurrentTCB->ucNotifyState[ uxIndexToWaitOn ] = taskNOT_WAITING_NOTIFICATION;
    3100:	8281a703          	lw	a4,-2008(gp) # 20000080 <pxCurrentTCB>
    3104:	fdc42783          	lw	a5,-36(s0)
    3108:	97ba                	add	a5,a5,a4
    310a:	04078a23          	sb	zero,84(a5)
        }
        taskEXIT_CRITICAL();
    310e:	8081a783          	lw	a5,-2040(gp) # 20000060 <xCriticalNesting>
    3112:	fff78713          	addi	a4,a5,-1
    3116:	80e1a423          	sw	a4,-2040(gp) # 20000060 <xCriticalNesting>
    311a:	8081a783          	lw	a5,-2040(gp) # 20000060 <xCriticalNesting>
    311e:	e399                	bnez	a5,3124 <xTaskGenericNotifyWait+0x192>
    3120:	30046073          	csrsi	mstatus,8

        traceRETURN_xTaskGenericNotifyWait( xReturn );

        return xReturn;
    3124:	fec42783          	lw	a5,-20(s0)
    }
    3128:	853e                	mv	a0,a5
    312a:	50f2                	lw	ra,60(sp)
    312c:	5462                	lw	s0,56(sp)
    312e:	6121                	addi	sp,sp,64
    3130:	8082                	ret

00003132 <xTaskGenericNotify>:
    BaseType_t xTaskGenericNotify( TaskHandle_t xTaskToNotify,
                                   UBaseType_t uxIndexToNotify,
                                   uint32_t ulValue,
                                   eNotifyAction eAction,
                                   uint32_t * pulPreviousNotificationValue )
    {
    3132:	715d                	addi	sp,sp,-80
    3134:	c686                	sw	ra,76(sp)
    3136:	c4a2                	sw	s0,72(sp)
    3138:	0880                	addi	s0,sp,80
    313a:	fca42623          	sw	a0,-52(s0)
    313e:	fcb42423          	sw	a1,-56(s0)
    3142:	fcc42223          	sw	a2,-60(s0)
    3146:	fcd42023          	sw	a3,-64(s0)
    314a:	fae42e23          	sw	a4,-68(s0)
        TCB_t * pxTCB;
        BaseType_t xReturn = pdPASS;
    314e:	4785                	li	a5,1
    3150:	fef42623          	sw	a5,-20(s0)
        uint8_t ucOriginalNotifyState;

        traceENTER_xTaskGenericNotify( xTaskToNotify, uxIndexToNotify, ulValue, eAction, pulPreviousNotificationValue );

        configASSERT( uxIndexToNotify < configTASK_NOTIFICATION_ARRAY_ENTRIES );
    3154:	fc842783          	lw	a5,-56(s0)
    3158:	c781                	beqz	a5,3160 <xTaskGenericNotify+0x2e>
    315a:	30047073          	csrci	mstatus,8
    315e:	a001                	j	315e <xTaskGenericNotify+0x2c>
        configASSERT( xTaskToNotify );
    3160:	fcc42783          	lw	a5,-52(s0)
    3164:	e781                	bnez	a5,316c <xTaskGenericNotify+0x3a>
    3166:	30047073          	csrci	mstatus,8
    316a:	a001                	j	316a <xTaskGenericNotify+0x38>
        pxTCB = xTaskToNotify;
    316c:	fcc42783          	lw	a5,-52(s0)
    3170:	fef42423          	sw	a5,-24(s0)

        taskENTER_CRITICAL();
    3174:	30047073          	csrci	mstatus,8
    3178:	8081a783          	lw	a5,-2040(gp) # 20000060 <xCriticalNesting>
    317c:	00178713          	addi	a4,a5,1
    3180:	80e1a423          	sw	a4,-2040(gp) # 20000060 <xCriticalNesting>
        {
            if( pulPreviousNotificationValue != NULL )
    3184:	fbc42783          	lw	a5,-68(s0)
    3188:	cf81                	beqz	a5,31a0 <xTaskGenericNotify+0x6e>
            {
                *pulPreviousNotificationValue = pxTCB->ulNotifiedValue[ uxIndexToNotify ];
    318a:	fe842703          	lw	a4,-24(s0)
    318e:	fc842783          	lw	a5,-56(s0)
    3192:	07d1                	addi	a5,a5,20
    3194:	078a                	slli	a5,a5,0x2
    3196:	97ba                	add	a5,a5,a4
    3198:	4398                	lw	a4,0(a5)
    319a:	fbc42783          	lw	a5,-68(s0)
    319e:	c398                	sw	a4,0(a5)
            }

            ucOriginalNotifyState = pxTCB->ucNotifyState[ uxIndexToNotify ];
    31a0:	fe842703          	lw	a4,-24(s0)
    31a4:	fc842783          	lw	a5,-56(s0)
    31a8:	97ba                	add	a5,a5,a4
    31aa:	0547c783          	lbu	a5,84(a5)
    31ae:	fef403a3          	sb	a5,-25(s0)

            pxTCB->ucNotifyState[ uxIndexToNotify ] = taskNOTIFICATION_RECEIVED;
    31b2:	fe842703          	lw	a4,-24(s0)
    31b6:	fc842783          	lw	a5,-56(s0)
    31ba:	97ba                	add	a5,a5,a4
    31bc:	4709                	li	a4,2
    31be:	04e78a23          	sb	a4,84(a5)

            switch( eAction )
    31c2:	fc042703          	lw	a4,-64(s0)
    31c6:	4791                	li	a5,4
    31c8:	0af70563          	beq	a4,a5,3272 <xTaskGenericNotify+0x140>
    31cc:	fc042703          	lw	a4,-64(s0)
    31d0:	4791                	li	a5,4
    31d2:	0ce7e363          	bltu	a5,a4,3298 <xTaskGenericNotify+0x166>
    31d6:	fc042703          	lw	a4,-64(s0)
    31da:	478d                	li	a5,3
    31dc:	08f70063          	beq	a4,a5,325c <xTaskGenericNotify+0x12a>
    31e0:	fc042703          	lw	a4,-64(s0)
    31e4:	478d                	li	a5,3
    31e6:	0ae7e963          	bltu	a5,a4,3298 <xTaskGenericNotify+0x166>
    31ea:	fc042703          	lw	a4,-64(s0)
    31ee:	4789                	li	a5,2
    31f0:	04f70363          	beq	a4,a5,3236 <xTaskGenericNotify+0x104>
    31f4:	fc042703          	lw	a4,-64(s0)
    31f8:	4789                	li	a5,2
    31fa:	08e7ef63          	bltu	a5,a4,3298 <xTaskGenericNotify+0x166>
    31fe:	fc042783          	lw	a5,-64(s0)
    3202:	c3cd                	beqz	a5,32a4 <xTaskGenericNotify+0x172>
    3204:	fc042703          	lw	a4,-64(s0)
    3208:	4785                	li	a5,1
    320a:	08f71763          	bne	a4,a5,3298 <xTaskGenericNotify+0x166>
            {
                case eSetBits:
                    pxTCB->ulNotifiedValue[ uxIndexToNotify ] |= ulValue;
    320e:	fe842703          	lw	a4,-24(s0)
    3212:	fc842783          	lw	a5,-56(s0)
    3216:	07d1                	addi	a5,a5,20
    3218:	078a                	slli	a5,a5,0x2
    321a:	97ba                	add	a5,a5,a4
    321c:	4398                	lw	a4,0(a5)
    321e:	fc442783          	lw	a5,-60(s0)
    3222:	8f5d                	or	a4,a4,a5
    3224:	fe842683          	lw	a3,-24(s0)
    3228:	fc842783          	lw	a5,-56(s0)
    322c:	07d1                	addi	a5,a5,20
    322e:	078a                	slli	a5,a5,0x2
    3230:	97b6                	add	a5,a5,a3
    3232:	c398                	sw	a4,0(a5)
                    break;
    3234:	a89d                	j	32aa <xTaskGenericNotify+0x178>

                case eIncrement:
                    ( pxTCB->ulNotifiedValue[ uxIndexToNotify ] )++;
    3236:	fe842703          	lw	a4,-24(s0)
    323a:	fc842783          	lw	a5,-56(s0)
    323e:	07d1                	addi	a5,a5,20
    3240:	078a                	slli	a5,a5,0x2
    3242:	97ba                	add	a5,a5,a4
    3244:	439c                	lw	a5,0(a5)
    3246:	00178713          	addi	a4,a5,1
    324a:	fe842683          	lw	a3,-24(s0)
    324e:	fc842783          	lw	a5,-56(s0)
    3252:	07d1                	addi	a5,a5,20
    3254:	078a                	slli	a5,a5,0x2
    3256:	97b6                	add	a5,a5,a3
    3258:	c398                	sw	a4,0(a5)
                    break;
    325a:	a881                	j	32aa <xTaskGenericNotify+0x178>

                case eSetValueWithOverwrite:
                    pxTCB->ulNotifiedValue[ uxIndexToNotify ] = ulValue;
    325c:	fe842703          	lw	a4,-24(s0)
    3260:	fc842783          	lw	a5,-56(s0)
    3264:	07d1                	addi	a5,a5,20
    3266:	078a                	slli	a5,a5,0x2
    3268:	97ba                	add	a5,a5,a4
    326a:	fc442703          	lw	a4,-60(s0)
    326e:	c398                	sw	a4,0(a5)
                    break;
    3270:	a82d                	j	32aa <xTaskGenericNotify+0x178>

                case eSetValueWithoutOverwrite:

                    if( ucOriginalNotifyState != taskNOTIFICATION_RECEIVED )
    3272:	fe744703          	lbu	a4,-25(s0)
    3276:	4789                	li	a5,2
    3278:	00f70d63          	beq	a4,a5,3292 <xTaskGenericNotify+0x160>
                    {
                        pxTCB->ulNotifiedValue[ uxIndexToNotify ] = ulValue;
    327c:	fe842703          	lw	a4,-24(s0)
    3280:	fc842783          	lw	a5,-56(s0)
    3284:	07d1                	addi	a5,a5,20
    3286:	078a                	slli	a5,a5,0x2
    3288:	97ba                	add	a5,a5,a4
    328a:	fc442703          	lw	a4,-60(s0)
    328e:	c398                	sw	a4,0(a5)
                    {
                        /* The value could not be written to the task. */
                        xReturn = pdFAIL;
                    }

                    break;
    3290:	a829                	j	32aa <xTaskGenericNotify+0x178>
                        xReturn = pdFAIL;
    3292:	fe042623          	sw	zero,-20(s0)
                    break;
    3296:	a811                	j	32aa <xTaskGenericNotify+0x178>
                default:

                    /* Should not get here if all enums are handled.
                     * Artificially force an assert by testing a value the
                     * compiler can't assume is const. */
                    configASSERT( xTickCount == ( TickType_t ) 0 );
    3298:	b481a783          	lw	a5,-1208(gp) # 200003a0 <xTickCount>
    329c:	c791                	beqz	a5,32a8 <xTaskGenericNotify+0x176>
    329e:	30047073          	csrci	mstatus,8
    32a2:	a001                	j	32a2 <xTaskGenericNotify+0x170>
                    break;
    32a4:	0001                	nop
    32a6:	a011                	j	32aa <xTaskGenericNotify+0x178>

                    break;
    32a8:	0001                	nop

            traceTASK_NOTIFY( uxIndexToNotify );

            /* If the task is in the blocked state specifically to wait for a
             * notification then unblock it now. */
            if( ucOriginalNotifyState == taskWAITING_NOTIFICATION )
    32aa:	fe744703          	lbu	a4,-25(s0)
    32ae:	4785                	li	a5,1
    32b0:	12f71e63          	bne	a4,a5,33ec <xTaskGenericNotify+0x2ba>
            {
                listREMOVE_ITEM( &( pxTCB->xStateListItem ) );
    32b4:	fe842783          	lw	a5,-24(s0)
    32b8:	4bdc                	lw	a5,20(a5)
    32ba:	fef42023          	sw	a5,-32(s0)
    32be:	fe842783          	lw	a5,-24(s0)
    32c2:	479c                	lw	a5,8(a5)
    32c4:	fe842703          	lw	a4,-24(s0)
    32c8:	4758                	lw	a4,12(a4)
    32ca:	c798                	sw	a4,8(a5)
    32cc:	fe842783          	lw	a5,-24(s0)
    32d0:	47dc                	lw	a5,12(a5)
    32d2:	fe842703          	lw	a4,-24(s0)
    32d6:	4718                	lw	a4,8(a4)
    32d8:	c3d8                	sw	a4,4(a5)
    32da:	fe042783          	lw	a5,-32(s0)
    32de:	43d8                	lw	a4,4(a5)
    32e0:	fe842783          	lw	a5,-24(s0)
    32e4:	0791                	addi	a5,a5,4
    32e6:	00f71863          	bne	a4,a5,32f6 <xTaskGenericNotify+0x1c4>
    32ea:	fe842783          	lw	a5,-24(s0)
    32ee:	47d8                	lw	a4,12(a5)
    32f0:	fe042783          	lw	a5,-32(s0)
    32f4:	c3d8                	sw	a4,4(a5)
    32f6:	fe842783          	lw	a5,-24(s0)
    32fa:	0007aa23          	sw	zero,20(a5)
    32fe:	fe042783          	lw	a5,-32(s0)
    3302:	439c                	lw	a5,0(a5)
    3304:	fff78713          	addi	a4,a5,-1
    3308:	fe042783          	lw	a5,-32(s0)
    330c:	c398                	sw	a4,0(a5)
                prvAddTaskToReadyList( pxTCB );
    330e:	fe842783          	lw	a5,-24(s0)
    3312:	57dc                	lw	a5,44(a5)
    3314:	4705                	li	a4,1
    3316:	00f71733          	sll	a4,a4,a5
    331a:	b4c1a783          	lw	a5,-1204(gp) # 200003a4 <uxTopReadyPriority>
    331e:	8f5d                	or	a4,a4,a5
    3320:	b4e1a623          	sw	a4,-1204(gp) # 200003a4 <uxTopReadyPriority>
    3324:	fe842783          	lw	a5,-24(s0)
    3328:	57d8                	lw	a4,44(a5)
    332a:	200007b7          	lui	a5,0x20000
    332e:	0ac78693          	addi	a3,a5,172 # 200000ac <pxReadyTasksLists>
    3332:	87ba                	mv	a5,a4
    3334:	078a                	slli	a5,a5,0x2
    3336:	97ba                	add	a5,a5,a4
    3338:	078a                	slli	a5,a5,0x2
    333a:	97b6                	add	a5,a5,a3
    333c:	43dc                	lw	a5,4(a5)
    333e:	fcf42e23          	sw	a5,-36(s0)
    3342:	fe842783          	lw	a5,-24(s0)
    3346:	fdc42703          	lw	a4,-36(s0)
    334a:	c798                	sw	a4,8(a5)
    334c:	fdc42783          	lw	a5,-36(s0)
    3350:	4798                	lw	a4,8(a5)
    3352:	fe842783          	lw	a5,-24(s0)
    3356:	c7d8                	sw	a4,12(a5)
    3358:	fdc42783          	lw	a5,-36(s0)
    335c:	479c                	lw	a5,8(a5)
    335e:	fe842703          	lw	a4,-24(s0)
    3362:	0711                	addi	a4,a4,4
    3364:	c3d8                	sw	a4,4(a5)
    3366:	fe842783          	lw	a5,-24(s0)
    336a:	00478713          	addi	a4,a5,4
    336e:	fdc42783          	lw	a5,-36(s0)
    3372:	c798                	sw	a4,8(a5)
    3374:	fe842783          	lw	a5,-24(s0)
    3378:	57d8                	lw	a4,44(a5)
    337a:	87ba                	mv	a5,a4
    337c:	078a                	slli	a5,a5,0x2
    337e:	97ba                	add	a5,a5,a4
    3380:	078a                	slli	a5,a5,0x2
    3382:	20000737          	lui	a4,0x20000
    3386:	0ac70713          	addi	a4,a4,172 # 200000ac <pxReadyTasksLists>
    338a:	973e                	add	a4,a4,a5
    338c:	fe842783          	lw	a5,-24(s0)
    3390:	cbd8                	sw	a4,20(a5)
    3392:	fe842783          	lw	a5,-24(s0)
    3396:	57d8                	lw	a4,44(a5)
    3398:	200007b7          	lui	a5,0x20000
    339c:	0ac78693          	addi	a3,a5,172 # 200000ac <pxReadyTasksLists>
    33a0:	87ba                	mv	a5,a4
    33a2:	078a                	slli	a5,a5,0x2
    33a4:	97ba                	add	a5,a5,a4
    33a6:	078a                	slli	a5,a5,0x2
    33a8:	97b6                	add	a5,a5,a3
    33aa:	439c                	lw	a5,0(a5)
    33ac:	fe842703          	lw	a4,-24(s0)
    33b0:	5758                	lw	a4,44(a4)
    33b2:	00178693          	addi	a3,a5,1
    33b6:	200007b7          	lui	a5,0x20000
    33ba:	0ac78613          	addi	a2,a5,172 # 200000ac <pxReadyTasksLists>
    33be:	87ba                	mv	a5,a4
    33c0:	078a                	slli	a5,a5,0x2
    33c2:	97ba                	add	a5,a5,a4
    33c4:	078a                	slli	a5,a5,0x2
    33c6:	97b2                	add	a5,a5,a2
    33c8:	c394                	sw	a3,0(a5)

                /* The task should not have been on an event list. */
                configASSERT( listLIST_ITEM_CONTAINER( &( pxTCB->xEventListItem ) ) == NULL );
    33ca:	fe842783          	lw	a5,-24(s0)
    33ce:	579c                	lw	a5,40(a5)
    33d0:	c781                	beqz	a5,33d8 <xTaskGenericNotify+0x2a6>
    33d2:	30047073          	csrci	mstatus,8
    33d6:	a001                	j	33d6 <xTaskGenericNotify+0x2a4>
                }
                #endif

                /* Check if the notified task has a priority above the currently
                 * executing task. */
                taskYIELD_ANY_CORE_IF_USING_PREEMPTION( pxTCB );
    33d8:	8281a783          	lw	a5,-2008(gp) # 20000080 <pxCurrentTCB>
    33dc:	57d8                	lw	a4,44(a5)
    33de:	fe842783          	lw	a5,-24(s0)
    33e2:	57dc                	lw	a5,44(a5)
    33e4:	00f77463          	bgeu	a4,a5,33ec <xTaskGenericNotify+0x2ba>
    33e8:	00000073          	ecall
            else
            {
                mtCOVERAGE_TEST_MARKER();
            }
        }
        taskEXIT_CRITICAL();
    33ec:	8081a783          	lw	a5,-2040(gp) # 20000060 <xCriticalNesting>
    33f0:	fff78713          	addi	a4,a5,-1
    33f4:	80e1a423          	sw	a4,-2040(gp) # 20000060 <xCriticalNesting>
    33f8:	8081a783          	lw	a5,-2040(gp) # 20000060 <xCriticalNesting>
    33fc:	e399                	bnez	a5,3402 <xTaskGenericNotify+0x2d0>
    33fe:	30046073          	csrsi	mstatus,8

        traceRETURN_xTaskGenericNotify( xReturn );

        return xReturn;
    3402:	fec42783          	lw	a5,-20(s0)
    }
    3406:	853e                	mv	a0,a5
    3408:	40b6                	lw	ra,76(sp)
    340a:	4426                	lw	s0,72(sp)
    340c:	6161                	addi	sp,sp,80
    340e:	8082                	ret

00003410 <xTaskGenericNotifyFromISR>:
                                          UBaseType_t uxIndexToNotify,
                                          uint32_t ulValue,
                                          eNotifyAction eAction,
                                          uint32_t * pulPreviousNotificationValue,
                                          BaseType_t * pxHigherPriorityTaskWoken )
    {
    3410:	715d                	addi	sp,sp,-80
    3412:	c686                	sw	ra,76(sp)
    3414:	c4a2                	sw	s0,72(sp)
    3416:	0880                	addi	s0,sp,80
    3418:	fca42623          	sw	a0,-52(s0)
    341c:	fcb42423          	sw	a1,-56(s0)
    3420:	fcc42223          	sw	a2,-60(s0)
    3424:	fcd42023          	sw	a3,-64(s0)
    3428:	fae42e23          	sw	a4,-68(s0)
    342c:	faf42c23          	sw	a5,-72(s0)
        TCB_t * pxTCB;
        uint8_t ucOriginalNotifyState;
        BaseType_t xReturn = pdPASS;
    3430:	4785                	li	a5,1
    3432:	fef42623          	sw	a5,-20(s0)
        UBaseType_t uxSavedInterruptStatus;

        traceENTER_xTaskGenericNotifyFromISR( xTaskToNotify, uxIndexToNotify, ulValue, eAction, pulPreviousNotificationValue, pxHigherPriorityTaskWoken );

        configASSERT( xTaskToNotify );
    3436:	fcc42783          	lw	a5,-52(s0)
    343a:	e781                	bnez	a5,3442 <xTaskGenericNotifyFromISR+0x32>
    343c:	30047073          	csrci	mstatus,8
    3440:	a001                	j	3440 <xTaskGenericNotifyFromISR+0x30>
        configASSERT( uxIndexToNotify < configTASK_NOTIFICATION_ARRAY_ENTRIES );
    3442:	fc842783          	lw	a5,-56(s0)
    3446:	c781                	beqz	a5,344e <xTaskGenericNotifyFromISR+0x3e>
    3448:	30047073          	csrci	mstatus,8
    344c:	a001                	j	344c <xTaskGenericNotifyFromISR+0x3c>
         * simple as possible.  More information (albeit Cortex-M specific) is
         * provided on the following link:
         * https://www.FreeRTOS.org/RTOS-Cortex-M3-M4.html */
        portASSERT_IF_INTERRUPT_PRIORITY_INVALID();

        pxTCB = xTaskToNotify;
    344e:	fcc42783          	lw	a5,-52(s0)
    3452:	fef42423          	sw	a5,-24(s0)

        /* MISRA Ref 4.7.1 [Return value shall be checked] */
        /* More details at: https://github.com/FreeRTOS/FreeRTOS-Kernel/blob/main/MISRA.md#dir-47 */
        /* coverity[misra_c_2012_directive_4_7_violation] */
        uxSavedInterruptStatus = ( UBaseType_t ) taskENTER_CRITICAL_FROM_ISR();
    3456:	fe042223          	sw	zero,-28(s0)
        {
            if( pulPreviousNotificationValue != NULL )
    345a:	fbc42783          	lw	a5,-68(s0)
    345e:	cf81                	beqz	a5,3476 <xTaskGenericNotifyFromISR+0x66>
            {
                *pulPreviousNotificationValue = pxTCB->ulNotifiedValue[ uxIndexToNotify ];
    3460:	fe842703          	lw	a4,-24(s0)
    3464:	fc842783          	lw	a5,-56(s0)
    3468:	07d1                	addi	a5,a5,20
    346a:	078a                	slli	a5,a5,0x2
    346c:	97ba                	add	a5,a5,a4
    346e:	4398                	lw	a4,0(a5)
    3470:	fbc42783          	lw	a5,-68(s0)
    3474:	c398                	sw	a4,0(a5)
            }

            ucOriginalNotifyState = pxTCB->ucNotifyState[ uxIndexToNotify ];
    3476:	fe842703          	lw	a4,-24(s0)
    347a:	fc842783          	lw	a5,-56(s0)
    347e:	97ba                	add	a5,a5,a4
    3480:	0547c783          	lbu	a5,84(a5)
    3484:	fef401a3          	sb	a5,-29(s0)
            pxTCB->ucNotifyState[ uxIndexToNotify ] = taskNOTIFICATION_RECEIVED;
    3488:	fe842703          	lw	a4,-24(s0)
    348c:	fc842783          	lw	a5,-56(s0)
    3490:	97ba                	add	a5,a5,a4
    3492:	4709                	li	a4,2
    3494:	04e78a23          	sb	a4,84(a5)

            switch( eAction )
    3498:	fc042703          	lw	a4,-64(s0)
    349c:	4791                	li	a5,4
    349e:	0af70563          	beq	a4,a5,3548 <xTaskGenericNotifyFromISR+0x138>
    34a2:	fc042703          	lw	a4,-64(s0)
    34a6:	4791                	li	a5,4
    34a8:	0ce7e363          	bltu	a5,a4,356e <xTaskGenericNotifyFromISR+0x15e>
    34ac:	fc042703          	lw	a4,-64(s0)
    34b0:	478d                	li	a5,3
    34b2:	08f70063          	beq	a4,a5,3532 <xTaskGenericNotifyFromISR+0x122>
    34b6:	fc042703          	lw	a4,-64(s0)
    34ba:	478d                	li	a5,3
    34bc:	0ae7e963          	bltu	a5,a4,356e <xTaskGenericNotifyFromISR+0x15e>
    34c0:	fc042703          	lw	a4,-64(s0)
    34c4:	4789                	li	a5,2
    34c6:	04f70363          	beq	a4,a5,350c <xTaskGenericNotifyFromISR+0xfc>
    34ca:	fc042703          	lw	a4,-64(s0)
    34ce:	4789                	li	a5,2
    34d0:	08e7ef63          	bltu	a5,a4,356e <xTaskGenericNotifyFromISR+0x15e>
    34d4:	fc042783          	lw	a5,-64(s0)
    34d8:	c3cd                	beqz	a5,357a <xTaskGenericNotifyFromISR+0x16a>
    34da:	fc042703          	lw	a4,-64(s0)
    34de:	4785                	li	a5,1
    34e0:	08f71763          	bne	a4,a5,356e <xTaskGenericNotifyFromISR+0x15e>
            {
                case eSetBits:
                    pxTCB->ulNotifiedValue[ uxIndexToNotify ] |= ulValue;
    34e4:	fe842703          	lw	a4,-24(s0)
    34e8:	fc842783          	lw	a5,-56(s0)
    34ec:	07d1                	addi	a5,a5,20
    34ee:	078a                	slli	a5,a5,0x2
    34f0:	97ba                	add	a5,a5,a4
    34f2:	4398                	lw	a4,0(a5)
    34f4:	fc442783          	lw	a5,-60(s0)
    34f8:	8f5d                	or	a4,a4,a5
    34fa:	fe842683          	lw	a3,-24(s0)
    34fe:	fc842783          	lw	a5,-56(s0)
    3502:	07d1                	addi	a5,a5,20
    3504:	078a                	slli	a5,a5,0x2
    3506:	97b6                	add	a5,a5,a3
    3508:	c398                	sw	a4,0(a5)
                    break;
    350a:	a89d                	j	3580 <xTaskGenericNotifyFromISR+0x170>

                case eIncrement:
                    ( pxTCB->ulNotifiedValue[ uxIndexToNotify ] )++;
    350c:	fe842703          	lw	a4,-24(s0)
    3510:	fc842783          	lw	a5,-56(s0)
    3514:	07d1                	addi	a5,a5,20
    3516:	078a                	slli	a5,a5,0x2
    3518:	97ba                	add	a5,a5,a4
    351a:	439c                	lw	a5,0(a5)
    351c:	00178713          	addi	a4,a5,1
    3520:	fe842683          	lw	a3,-24(s0)
    3524:	fc842783          	lw	a5,-56(s0)
    3528:	07d1                	addi	a5,a5,20
    352a:	078a                	slli	a5,a5,0x2
    352c:	97b6                	add	a5,a5,a3
    352e:	c398                	sw	a4,0(a5)
                    break;
    3530:	a881                	j	3580 <xTaskGenericNotifyFromISR+0x170>

                case eSetValueWithOverwrite:
                    pxTCB->ulNotifiedValue[ uxIndexToNotify ] = ulValue;
    3532:	fe842703          	lw	a4,-24(s0)
    3536:	fc842783          	lw	a5,-56(s0)
    353a:	07d1                	addi	a5,a5,20
    353c:	078a                	slli	a5,a5,0x2
    353e:	97ba                	add	a5,a5,a4
    3540:	fc442703          	lw	a4,-60(s0)
    3544:	c398                	sw	a4,0(a5)
                    break;
    3546:	a82d                	j	3580 <xTaskGenericNotifyFromISR+0x170>

                case eSetValueWithoutOverwrite:

                    if( ucOriginalNotifyState != taskNOTIFICATION_RECEIVED )
    3548:	fe344703          	lbu	a4,-29(s0)
    354c:	4789                	li	a5,2
    354e:	00f70d63          	beq	a4,a5,3568 <xTaskGenericNotifyFromISR+0x158>
                    {
                        pxTCB->ulNotifiedValue[ uxIndexToNotify ] = ulValue;
    3552:	fe842703          	lw	a4,-24(s0)
    3556:	fc842783          	lw	a5,-56(s0)
    355a:	07d1                	addi	a5,a5,20
    355c:	078a                	slli	a5,a5,0x2
    355e:	97ba                	add	a5,a5,a4
    3560:	fc442703          	lw	a4,-60(s0)
    3564:	c398                	sw	a4,0(a5)
                    {
                        /* The value could not be written to the task. */
                        xReturn = pdFAIL;
                    }

                    break;
    3566:	a829                	j	3580 <xTaskGenericNotifyFromISR+0x170>
                        xReturn = pdFAIL;
    3568:	fe042623          	sw	zero,-20(s0)
                    break;
    356c:	a811                	j	3580 <xTaskGenericNotifyFromISR+0x170>
                default:

                    /* Should not get here if all enums are handled.
                     * Artificially force an assert by testing a value the
                     * compiler can't assume is const. */
                    configASSERT( xTickCount == ( TickType_t ) 0 );
    356e:	b481a783          	lw	a5,-1208(gp) # 200003a0 <xTickCount>
    3572:	c791                	beqz	a5,357e <xTaskGenericNotifyFromISR+0x16e>
    3574:	30047073          	csrci	mstatus,8
    3578:	a001                	j	3578 <xTaskGenericNotifyFromISR+0x168>
                    break;
    357a:	0001                	nop
    357c:	a011                	j	3580 <xTaskGenericNotifyFromISR+0x170>
                    break;
    357e:	0001                	nop

            traceTASK_NOTIFY_FROM_ISR( uxIndexToNotify );

            /* If the task is in the blocked state specifically to wait for a
             * notification then unblock it now. */
            if( ucOriginalNotifyState == taskWAITING_NOTIFICATION )
    3580:	fe344703          	lbu	a4,-29(s0)
    3584:	4785                	li	a5,1
    3586:	1af71663          	bne	a4,a5,3732 <xTaskGenericNotifyFromISR+0x322>
            {
                /* The task should not have been on an event list. */
                configASSERT( listLIST_ITEM_CONTAINER( &( pxTCB->xEventListItem ) ) == NULL );
    358a:	fe842783          	lw	a5,-24(s0)
    358e:	579c                	lw	a5,40(a5)
    3590:	c781                	beqz	a5,3598 <xTaskGenericNotifyFromISR+0x188>
    3592:	30047073          	csrci	mstatus,8
    3596:	a001                	j	3596 <xTaskGenericNotifyFromISR+0x186>

                if( uxSchedulerSuspended == ( UBaseType_t ) 0U )
    3598:	b6c1a783          	lw	a5,-1172(gp) # 200003c4 <uxSchedulerSuspended>
    359c:	10079e63          	bnez	a5,36b8 <xTaskGenericNotifyFromISR+0x2a8>
                {
                    listREMOVE_ITEM( &( pxTCB->xStateListItem ) );
    35a0:	fe842783          	lw	a5,-24(s0)
    35a4:	4bdc                	lw	a5,20(a5)
    35a6:	fcf42c23          	sw	a5,-40(s0)
    35aa:	fe842783          	lw	a5,-24(s0)
    35ae:	479c                	lw	a5,8(a5)
    35b0:	fe842703          	lw	a4,-24(s0)
    35b4:	4758                	lw	a4,12(a4)
    35b6:	c798                	sw	a4,8(a5)
    35b8:	fe842783          	lw	a5,-24(s0)
    35bc:	47dc                	lw	a5,12(a5)
    35be:	fe842703          	lw	a4,-24(s0)
    35c2:	4718                	lw	a4,8(a4)
    35c4:	c3d8                	sw	a4,4(a5)
    35c6:	fd842783          	lw	a5,-40(s0)
    35ca:	43d8                	lw	a4,4(a5)
    35cc:	fe842783          	lw	a5,-24(s0)
    35d0:	0791                	addi	a5,a5,4
    35d2:	00f71863          	bne	a4,a5,35e2 <xTaskGenericNotifyFromISR+0x1d2>
    35d6:	fe842783          	lw	a5,-24(s0)
    35da:	47d8                	lw	a4,12(a5)
    35dc:	fd842783          	lw	a5,-40(s0)
    35e0:	c3d8                	sw	a4,4(a5)
    35e2:	fe842783          	lw	a5,-24(s0)
    35e6:	0007aa23          	sw	zero,20(a5)
    35ea:	fd842783          	lw	a5,-40(s0)
    35ee:	439c                	lw	a5,0(a5)
    35f0:	fff78713          	addi	a4,a5,-1
    35f4:	fd842783          	lw	a5,-40(s0)
    35f8:	c398                	sw	a4,0(a5)
                    prvAddTaskToReadyList( pxTCB );
    35fa:	fe842783          	lw	a5,-24(s0)
    35fe:	57dc                	lw	a5,44(a5)
    3600:	4705                	li	a4,1
    3602:	00f71733          	sll	a4,a4,a5
    3606:	b4c1a783          	lw	a5,-1204(gp) # 200003a4 <uxTopReadyPriority>
    360a:	8f5d                	or	a4,a4,a5
    360c:	b4e1a623          	sw	a4,-1204(gp) # 200003a4 <uxTopReadyPriority>
    3610:	fe842783          	lw	a5,-24(s0)
    3614:	57d8                	lw	a4,44(a5)
    3616:	200007b7          	lui	a5,0x20000
    361a:	0ac78693          	addi	a3,a5,172 # 200000ac <pxReadyTasksLists>
    361e:	87ba                	mv	a5,a4
    3620:	078a                	slli	a5,a5,0x2
    3622:	97ba                	add	a5,a5,a4
    3624:	078a                	slli	a5,a5,0x2
    3626:	97b6                	add	a5,a5,a3
    3628:	43dc                	lw	a5,4(a5)
    362a:	fcf42a23          	sw	a5,-44(s0)
    362e:	fe842783          	lw	a5,-24(s0)
    3632:	fd442703          	lw	a4,-44(s0)
    3636:	c798                	sw	a4,8(a5)
    3638:	fd442783          	lw	a5,-44(s0)
    363c:	4798                	lw	a4,8(a5)
    363e:	fe842783          	lw	a5,-24(s0)
    3642:	c7d8                	sw	a4,12(a5)
    3644:	fd442783          	lw	a5,-44(s0)
    3648:	479c                	lw	a5,8(a5)
    364a:	fe842703          	lw	a4,-24(s0)
    364e:	0711                	addi	a4,a4,4
    3650:	c3d8                	sw	a4,4(a5)
    3652:	fe842783          	lw	a5,-24(s0)
    3656:	00478713          	addi	a4,a5,4
    365a:	fd442783          	lw	a5,-44(s0)
    365e:	c798                	sw	a4,8(a5)
    3660:	fe842783          	lw	a5,-24(s0)
    3664:	57d8                	lw	a4,44(a5)
    3666:	87ba                	mv	a5,a4
    3668:	078a                	slli	a5,a5,0x2
    366a:	97ba                	add	a5,a5,a4
    366c:	078a                	slli	a5,a5,0x2
    366e:	20000737          	lui	a4,0x20000
    3672:	0ac70713          	addi	a4,a4,172 # 200000ac <pxReadyTasksLists>
    3676:	973e                	add	a4,a4,a5
    3678:	fe842783          	lw	a5,-24(s0)
    367c:	cbd8                	sw	a4,20(a5)
    367e:	fe842783          	lw	a5,-24(s0)
    3682:	57d8                	lw	a4,44(a5)
    3684:	200007b7          	lui	a5,0x20000
    3688:	0ac78693          	addi	a3,a5,172 # 200000ac <pxReadyTasksLists>
    368c:	87ba                	mv	a5,a4
    368e:	078a                	slli	a5,a5,0x2
    3690:	97ba                	add	a5,a5,a4
    3692:	078a                	slli	a5,a5,0x2
    3694:	97b6                	add	a5,a5,a3
    3696:	439c                	lw	a5,0(a5)
    3698:	fe842703          	lw	a4,-24(s0)
    369c:	5758                	lw	a4,44(a4)
    369e:	00178693          	addi	a3,a5,1
    36a2:	200007b7          	lui	a5,0x20000
    36a6:	0ac78613          	addi	a2,a5,172 # 200000ac <pxReadyTasksLists>
    36aa:	87ba                	mv	a5,a4
    36ac:	078a                	slli	a5,a5,0x2
    36ae:	97ba                	add	a5,a5,a4
    36b0:	078a                	slli	a5,a5,0x2
    36b2:	97b2                	add	a5,a5,a2
    36b4:	c394                	sw	a3,0(a5)
    36b6:	a8a1                	j	370e <xTaskGenericNotifyFromISR+0x2fe>
                }
                else
                {
                    /* The delayed and ready lists cannot be accessed, so hold
                     * this task pending until the scheduler is resumed. */
                    listINSERT_END( &( xPendingReadyList ), &( pxTCB->xEventListItem ) );
    36b8:	b0418793          	addi	a5,gp,-1276 # 2000035c <xPendingReadyList>
    36bc:	43dc                	lw	a5,4(a5)
    36be:	fcf42e23          	sw	a5,-36(s0)
    36c2:	fe842783          	lw	a5,-24(s0)
    36c6:	fdc42703          	lw	a4,-36(s0)
    36ca:	cfd8                	sw	a4,28(a5)
    36cc:	fdc42783          	lw	a5,-36(s0)
    36d0:	4798                	lw	a4,8(a5)
    36d2:	fe842783          	lw	a5,-24(s0)
    36d6:	d398                	sw	a4,32(a5)
    36d8:	fdc42783          	lw	a5,-36(s0)
    36dc:	479c                	lw	a5,8(a5)
    36de:	fe842703          	lw	a4,-24(s0)
    36e2:	0761                	addi	a4,a4,24
    36e4:	c3d8                	sw	a4,4(a5)
    36e6:	fe842783          	lw	a5,-24(s0)
    36ea:	01878713          	addi	a4,a5,24
    36ee:	fdc42783          	lw	a5,-36(s0)
    36f2:	c798                	sw	a4,8(a5)
    36f4:	fe842783          	lw	a5,-24(s0)
    36f8:	b0418713          	addi	a4,gp,-1276 # 2000035c <xPendingReadyList>
    36fc:	d798                	sw	a4,40(a5)
    36fe:	b0418793          	addi	a5,gp,-1276 # 2000035c <xPendingReadyList>
    3702:	439c                	lw	a5,0(a5)
    3704:	00178713          	addi	a4,a5,1
    3708:	b0418793          	addi	a5,gp,-1276 # 2000035c <xPendingReadyList>
    370c:	c398                	sw	a4,0(a5)
                }

                #if ( configNUMBER_OF_CORES == 1 )
                {
                    if( pxTCB->uxPriority > pxCurrentTCB->uxPriority )
    370e:	fe842783          	lw	a5,-24(s0)
    3712:	57d8                	lw	a4,44(a5)
    3714:	8281a783          	lw	a5,-2008(gp) # 20000080 <pxCurrentTCB>
    3718:	57dc                	lw	a5,44(a5)
    371a:	00e7fc63          	bgeu	a5,a4,3732 <xTaskGenericNotifyFromISR+0x322>
                    {
                        /* The notified task has a priority above the currently
                         * executing task so a yield is required. */
                        if( pxHigherPriorityTaskWoken != NULL )
    371e:	fb842783          	lw	a5,-72(s0)
    3722:	c789                	beqz	a5,372c <xTaskGenericNotifyFromISR+0x31c>
                        {
                            *pxHigherPriorityTaskWoken = pdTRUE;
    3724:	fb842783          	lw	a5,-72(s0)
    3728:	4705                	li	a4,1
    372a:	c398                	sw	a4,0(a5)
                        }

                        /* Mark that a yield is pending in case the user is not
                         * using the "xHigherPriorityTaskWoken" parameter to an ISR
                         * safe FreeRTOS function. */
                        xYieldPendings[ 0 ] = pdTRUE;
    372c:	4705                	li	a4,1
    372e:	b4e1ac23          	sw	a4,-1192(gp) # 200003b0 <xYieldPendings>
        }
        taskEXIT_CRITICAL_FROM_ISR( uxSavedInterruptStatus );

        traceRETURN_xTaskGenericNotifyFromISR( xReturn );

        return xReturn;
    3732:	fec42783          	lw	a5,-20(s0)
    }
    3736:	853e                	mv	a0,a5
    3738:	40b6                	lw	ra,76(sp)
    373a:	4426                	lw	s0,72(sp)
    373c:	6161                	addi	sp,sp,80
    373e:	8082                	ret

00003740 <vTaskGenericNotifyGiveFromISR>:
#if ( configUSE_TASK_NOTIFICATIONS == 1 )

    void vTaskGenericNotifyGiveFromISR( TaskHandle_t xTaskToNotify,
                                        UBaseType_t uxIndexToNotify,
                                        BaseType_t * pxHigherPriorityTaskWoken )
    {
    3740:	7139                	addi	sp,sp,-64
    3742:	de06                	sw	ra,60(sp)
    3744:	dc22                	sw	s0,56(sp)
    3746:	0080                	addi	s0,sp,64
    3748:	fca42623          	sw	a0,-52(s0)
    374c:	fcb42423          	sw	a1,-56(s0)
    3750:	fcc42223          	sw	a2,-60(s0)
        uint8_t ucOriginalNotifyState;
        UBaseType_t uxSavedInterruptStatus;

        traceENTER_vTaskGenericNotifyGiveFromISR( xTaskToNotify, uxIndexToNotify, pxHigherPriorityTaskWoken );

        configASSERT( xTaskToNotify );
    3754:	fcc42783          	lw	a5,-52(s0)
    3758:	e781                	bnez	a5,3760 <vTaskGenericNotifyGiveFromISR+0x20>
    375a:	30047073          	csrci	mstatus,8
    375e:	a001                	j	375e <vTaskGenericNotifyGiveFromISR+0x1e>
        configASSERT( uxIndexToNotify < configTASK_NOTIFICATION_ARRAY_ENTRIES );
    3760:	fc842783          	lw	a5,-56(s0)
    3764:	c781                	beqz	a5,376c <vTaskGenericNotifyGiveFromISR+0x2c>
    3766:	30047073          	csrci	mstatus,8
    376a:	a001                	j	376a <vTaskGenericNotifyGiveFromISR+0x2a>
         * simple as possible.  More information (albeit Cortex-M specific) is
         * provided on the following link:
         * https://www.FreeRTOS.org/RTOS-Cortex-M3-M4.html */
        portASSERT_IF_INTERRUPT_PRIORITY_INVALID();

        pxTCB = xTaskToNotify;
    376c:	fcc42783          	lw	a5,-52(s0)
    3770:	fef42623          	sw	a5,-20(s0)

        /* MISRA Ref 4.7.1 [Return value shall be checked] */
        /* More details at: https://github.com/FreeRTOS/FreeRTOS-Kernel/blob/main/MISRA.md#dir-47 */
        /* coverity[misra_c_2012_directive_4_7_violation] */
        uxSavedInterruptStatus = ( UBaseType_t ) taskENTER_CRITICAL_FROM_ISR();
    3774:	fe042423          	sw	zero,-24(s0)
        {
            ucOriginalNotifyState = pxTCB->ucNotifyState[ uxIndexToNotify ];
    3778:	fec42703          	lw	a4,-20(s0)
    377c:	fc842783          	lw	a5,-56(s0)
    3780:	97ba                	add	a5,a5,a4
    3782:	0547c783          	lbu	a5,84(a5)
    3786:	fef403a3          	sb	a5,-25(s0)
            pxTCB->ucNotifyState[ uxIndexToNotify ] = taskNOTIFICATION_RECEIVED;
    378a:	fec42703          	lw	a4,-20(s0)
    378e:	fc842783          	lw	a5,-56(s0)
    3792:	97ba                	add	a5,a5,a4
    3794:	4709                	li	a4,2
    3796:	04e78a23          	sb	a4,84(a5)

            /* 'Giving' is equivalent to incrementing a count in a counting
             * semaphore. */
            ( pxTCB->ulNotifiedValue[ uxIndexToNotify ] )++;
    379a:	fec42703          	lw	a4,-20(s0)
    379e:	fc842783          	lw	a5,-56(s0)
    37a2:	07d1                	addi	a5,a5,20
    37a4:	078a                	slli	a5,a5,0x2
    37a6:	97ba                	add	a5,a5,a4
    37a8:	439c                	lw	a5,0(a5)
    37aa:	00178713          	addi	a4,a5,1
    37ae:	fec42683          	lw	a3,-20(s0)
    37b2:	fc842783          	lw	a5,-56(s0)
    37b6:	07d1                	addi	a5,a5,20
    37b8:	078a                	slli	a5,a5,0x2
    37ba:	97b6                	add	a5,a5,a3
    37bc:	c398                	sw	a4,0(a5)

            traceTASK_NOTIFY_GIVE_FROM_ISR( uxIndexToNotify );

            /* If the task is in the blocked state specifically to wait for a
             * notification then unblock it now. */
            if( ucOriginalNotifyState == taskWAITING_NOTIFICATION )
    37be:	fe744703          	lbu	a4,-25(s0)
    37c2:	4785                	li	a5,1
    37c4:	1af71663          	bne	a4,a5,3970 <vTaskGenericNotifyGiveFromISR+0x230>
            {
                /* The task should not have been on an event list. */
                configASSERT( listLIST_ITEM_CONTAINER( &( pxTCB->xEventListItem ) ) == NULL );
    37c8:	fec42783          	lw	a5,-20(s0)
    37cc:	579c                	lw	a5,40(a5)
    37ce:	c781                	beqz	a5,37d6 <vTaskGenericNotifyGiveFromISR+0x96>
    37d0:	30047073          	csrci	mstatus,8
    37d4:	a001                	j	37d4 <vTaskGenericNotifyGiveFromISR+0x94>

                if( uxSchedulerSuspended == ( UBaseType_t ) 0U )
    37d6:	b6c1a783          	lw	a5,-1172(gp) # 200003c4 <uxSchedulerSuspended>
    37da:	10079e63          	bnez	a5,38f6 <vTaskGenericNotifyGiveFromISR+0x1b6>
                {
                    listREMOVE_ITEM( &( pxTCB->xStateListItem ) );
    37de:	fec42783          	lw	a5,-20(s0)
    37e2:	4bdc                	lw	a5,20(a5)
    37e4:	fcf42e23          	sw	a5,-36(s0)
    37e8:	fec42783          	lw	a5,-20(s0)
    37ec:	479c                	lw	a5,8(a5)
    37ee:	fec42703          	lw	a4,-20(s0)
    37f2:	4758                	lw	a4,12(a4)
    37f4:	c798                	sw	a4,8(a5)
    37f6:	fec42783          	lw	a5,-20(s0)
    37fa:	47dc                	lw	a5,12(a5)
    37fc:	fec42703          	lw	a4,-20(s0)
    3800:	4718                	lw	a4,8(a4)
    3802:	c3d8                	sw	a4,4(a5)
    3804:	fdc42783          	lw	a5,-36(s0)
    3808:	43d8                	lw	a4,4(a5)
    380a:	fec42783          	lw	a5,-20(s0)
    380e:	0791                	addi	a5,a5,4
    3810:	00f71863          	bne	a4,a5,3820 <vTaskGenericNotifyGiveFromISR+0xe0>
    3814:	fec42783          	lw	a5,-20(s0)
    3818:	47d8                	lw	a4,12(a5)
    381a:	fdc42783          	lw	a5,-36(s0)
    381e:	c3d8                	sw	a4,4(a5)
    3820:	fec42783          	lw	a5,-20(s0)
    3824:	0007aa23          	sw	zero,20(a5)
    3828:	fdc42783          	lw	a5,-36(s0)
    382c:	439c                	lw	a5,0(a5)
    382e:	fff78713          	addi	a4,a5,-1
    3832:	fdc42783          	lw	a5,-36(s0)
    3836:	c398                	sw	a4,0(a5)
                    prvAddTaskToReadyList( pxTCB );
    3838:	fec42783          	lw	a5,-20(s0)
    383c:	57dc                	lw	a5,44(a5)
    383e:	4705                	li	a4,1
    3840:	00f71733          	sll	a4,a4,a5
    3844:	b4c1a783          	lw	a5,-1204(gp) # 200003a4 <uxTopReadyPriority>
    3848:	8f5d                	or	a4,a4,a5
    384a:	b4e1a623          	sw	a4,-1204(gp) # 200003a4 <uxTopReadyPriority>
    384e:	fec42783          	lw	a5,-20(s0)
    3852:	57d8                	lw	a4,44(a5)
    3854:	200007b7          	lui	a5,0x20000
    3858:	0ac78693          	addi	a3,a5,172 # 200000ac <pxReadyTasksLists>
    385c:	87ba                	mv	a5,a4
    385e:	078a                	slli	a5,a5,0x2
    3860:	97ba                	add	a5,a5,a4
    3862:	078a                	slli	a5,a5,0x2
    3864:	97b6                	add	a5,a5,a3
    3866:	43dc                	lw	a5,4(a5)
    3868:	fcf42c23          	sw	a5,-40(s0)
    386c:	fec42783          	lw	a5,-20(s0)
    3870:	fd842703          	lw	a4,-40(s0)
    3874:	c798                	sw	a4,8(a5)
    3876:	fd842783          	lw	a5,-40(s0)
    387a:	4798                	lw	a4,8(a5)
    387c:	fec42783          	lw	a5,-20(s0)
    3880:	c7d8                	sw	a4,12(a5)
    3882:	fd842783          	lw	a5,-40(s0)
    3886:	479c                	lw	a5,8(a5)
    3888:	fec42703          	lw	a4,-20(s0)
    388c:	0711                	addi	a4,a4,4
    388e:	c3d8                	sw	a4,4(a5)
    3890:	fec42783          	lw	a5,-20(s0)
    3894:	00478713          	addi	a4,a5,4
    3898:	fd842783          	lw	a5,-40(s0)
    389c:	c798                	sw	a4,8(a5)
    389e:	fec42783          	lw	a5,-20(s0)
    38a2:	57d8                	lw	a4,44(a5)
    38a4:	87ba                	mv	a5,a4
    38a6:	078a                	slli	a5,a5,0x2
    38a8:	97ba                	add	a5,a5,a4
    38aa:	078a                	slli	a5,a5,0x2
    38ac:	20000737          	lui	a4,0x20000
    38b0:	0ac70713          	addi	a4,a4,172 # 200000ac <pxReadyTasksLists>
    38b4:	973e                	add	a4,a4,a5
    38b6:	fec42783          	lw	a5,-20(s0)
    38ba:	cbd8                	sw	a4,20(a5)
    38bc:	fec42783          	lw	a5,-20(s0)
    38c0:	57d8                	lw	a4,44(a5)
    38c2:	200007b7          	lui	a5,0x20000
    38c6:	0ac78693          	addi	a3,a5,172 # 200000ac <pxReadyTasksLists>
    38ca:	87ba                	mv	a5,a4
    38cc:	078a                	slli	a5,a5,0x2
    38ce:	97ba                	add	a5,a5,a4
    38d0:	078a                	slli	a5,a5,0x2
    38d2:	97b6                	add	a5,a5,a3
    38d4:	439c                	lw	a5,0(a5)
    38d6:	fec42703          	lw	a4,-20(s0)
    38da:	5758                	lw	a4,44(a4)
    38dc:	00178693          	addi	a3,a5,1
    38e0:	200007b7          	lui	a5,0x20000
    38e4:	0ac78613          	addi	a2,a5,172 # 200000ac <pxReadyTasksLists>
    38e8:	87ba                	mv	a5,a4
    38ea:	078a                	slli	a5,a5,0x2
    38ec:	97ba                	add	a5,a5,a4
    38ee:	078a                	slli	a5,a5,0x2
    38f0:	97b2                	add	a5,a5,a2
    38f2:	c394                	sw	a3,0(a5)
    38f4:	a8a1                	j	394c <vTaskGenericNotifyGiveFromISR+0x20c>
                }
                else
                {
                    /* The delayed and ready lists cannot be accessed, so hold
                     * this task pending until the scheduler is resumed. */
                    listINSERT_END( &( xPendingReadyList ), &( pxTCB->xEventListItem ) );
    38f6:	b0418793          	addi	a5,gp,-1276 # 2000035c <xPendingReadyList>
    38fa:	43dc                	lw	a5,4(a5)
    38fc:	fef42023          	sw	a5,-32(s0)
    3900:	fec42783          	lw	a5,-20(s0)
    3904:	fe042703          	lw	a4,-32(s0)
    3908:	cfd8                	sw	a4,28(a5)
    390a:	fe042783          	lw	a5,-32(s0)
    390e:	4798                	lw	a4,8(a5)
    3910:	fec42783          	lw	a5,-20(s0)
    3914:	d398                	sw	a4,32(a5)
    3916:	fe042783          	lw	a5,-32(s0)
    391a:	479c                	lw	a5,8(a5)
    391c:	fec42703          	lw	a4,-20(s0)
    3920:	0761                	addi	a4,a4,24
    3922:	c3d8                	sw	a4,4(a5)
    3924:	fec42783          	lw	a5,-20(s0)
    3928:	01878713          	addi	a4,a5,24
    392c:	fe042783          	lw	a5,-32(s0)
    3930:	c798                	sw	a4,8(a5)
    3932:	fec42783          	lw	a5,-20(s0)
    3936:	b0418713          	addi	a4,gp,-1276 # 2000035c <xPendingReadyList>
    393a:	d798                	sw	a4,40(a5)
    393c:	b0418793          	addi	a5,gp,-1276 # 2000035c <xPendingReadyList>
    3940:	439c                	lw	a5,0(a5)
    3942:	00178713          	addi	a4,a5,1
    3946:	b0418793          	addi	a5,gp,-1276 # 2000035c <xPendingReadyList>
    394a:	c398                	sw	a4,0(a5)
                }

                #if ( configNUMBER_OF_CORES == 1 )
                {
                    if( pxTCB->uxPriority > pxCurrentTCB->uxPriority )
    394c:	fec42783          	lw	a5,-20(s0)
    3950:	57d8                	lw	a4,44(a5)
    3952:	8281a783          	lw	a5,-2008(gp) # 20000080 <pxCurrentTCB>
    3956:	57dc                	lw	a5,44(a5)
    3958:	00e7fc63          	bgeu	a5,a4,3970 <vTaskGenericNotifyGiveFromISR+0x230>
                    {
                        /* The notified task has a priority above the currently
                         * executing task so a yield is required. */
                        if( pxHigherPriorityTaskWoken != NULL )
    395c:	fc442783          	lw	a5,-60(s0)
    3960:	c789                	beqz	a5,396a <vTaskGenericNotifyGiveFromISR+0x22a>
                        {
                            *pxHigherPriorityTaskWoken = pdTRUE;
    3962:	fc442783          	lw	a5,-60(s0)
    3966:	4705                	li	a4,1
    3968:	c398                	sw	a4,0(a5)
                        }

                        /* Mark that a yield is pending in case the user is not
                         * using the "xHigherPriorityTaskWoken" parameter in an ISR
                         * safe FreeRTOS function. */
                        xYieldPendings[ 0 ] = pdTRUE;
    396a:	4705                	li	a4,1
    396c:	b4e1ac23          	sw	a4,-1192(gp) # 200003b0 <xYieldPendings>
            }
        }
        taskEXIT_CRITICAL_FROM_ISR( uxSavedInterruptStatus );

        traceRETURN_vTaskGenericNotifyGiveFromISR();
    }
    3970:	0001                	nop
    3972:	50f2                	lw	ra,60(sp)
    3974:	5462                	lw	s0,56(sp)
    3976:	6121                	addi	sp,sp,64
    3978:	8082                	ret

0000397a <xTaskGenericNotifyStateClear>:

#if ( configUSE_TASK_NOTIFICATIONS == 1 )

    BaseType_t xTaskGenericNotifyStateClear( TaskHandle_t xTask,
                                             UBaseType_t uxIndexToClear )
    {
    397a:	7179                	addi	sp,sp,-48
    397c:	d606                	sw	ra,44(sp)
    397e:	d422                	sw	s0,40(sp)
    3980:	1800                	addi	s0,sp,48
    3982:	fca42e23          	sw	a0,-36(s0)
    3986:	fcb42c23          	sw	a1,-40(s0)
        TCB_t * pxTCB;
        BaseType_t xReturn;

        traceENTER_xTaskGenericNotifyStateClear( xTask, uxIndexToClear );

        configASSERT( uxIndexToClear < configTASK_NOTIFICATION_ARRAY_ENTRIES );
    398a:	fd842783          	lw	a5,-40(s0)
    398e:	c781                	beqz	a5,3996 <xTaskGenericNotifyStateClear+0x1c>
    3990:	30047073          	csrci	mstatus,8
    3994:	a001                	j	3994 <xTaskGenericNotifyStateClear+0x1a>

        /* If null is passed in here then it is the calling task that is having
         * its notification state cleared. */
        pxTCB = prvGetTCBFromHandle( xTask );
    3996:	fdc42783          	lw	a5,-36(s0)
    399a:	e791                	bnez	a5,39a6 <xTaskGenericNotifyStateClear+0x2c>
    399c:	8281a783          	lw	a5,-2008(gp) # 20000080 <pxCurrentTCB>
    39a0:	fef42623          	sw	a5,-20(s0)
    39a4:	a029                	j	39ae <xTaskGenericNotifyStateClear+0x34>
    39a6:	fdc42783          	lw	a5,-36(s0)
    39aa:	fef42623          	sw	a5,-20(s0)
        configASSERT( pxTCB != NULL );
    39ae:	fec42783          	lw	a5,-20(s0)
    39b2:	e781                	bnez	a5,39ba <xTaskGenericNotifyStateClear+0x40>
    39b4:	30047073          	csrci	mstatus,8
    39b8:	a001                	j	39b8 <xTaskGenericNotifyStateClear+0x3e>

        taskENTER_CRITICAL();
    39ba:	30047073          	csrci	mstatus,8
    39be:	8081a783          	lw	a5,-2040(gp) # 20000060 <xCriticalNesting>
    39c2:	00178713          	addi	a4,a5,1
    39c6:	80e1a423          	sw	a4,-2040(gp) # 20000060 <xCriticalNesting>
        {
            if( pxTCB->ucNotifyState[ uxIndexToClear ] == taskNOTIFICATION_RECEIVED )
    39ca:	fec42703          	lw	a4,-20(s0)
    39ce:	fd842783          	lw	a5,-40(s0)
    39d2:	97ba                	add	a5,a5,a4
    39d4:	0547c783          	lbu	a5,84(a5)
    39d8:	0ff7f713          	zext.b	a4,a5
    39dc:	4789                	li	a5,2
    39de:	00f71d63          	bne	a4,a5,39f8 <xTaskGenericNotifyStateClear+0x7e>
            {
                pxTCB->ucNotifyState[ uxIndexToClear ] = taskNOT_WAITING_NOTIFICATION;
    39e2:	fec42703          	lw	a4,-20(s0)
    39e6:	fd842783          	lw	a5,-40(s0)
    39ea:	97ba                	add	a5,a5,a4
    39ec:	04078a23          	sb	zero,84(a5)
                xReturn = pdPASS;
    39f0:	4785                	li	a5,1
    39f2:	fef42423          	sw	a5,-24(s0)
    39f6:	a019                	j	39fc <xTaskGenericNotifyStateClear+0x82>
            }
            else
            {
                xReturn = pdFAIL;
    39f8:	fe042423          	sw	zero,-24(s0)
            }
        }
        taskEXIT_CRITICAL();
    39fc:	8081a783          	lw	a5,-2040(gp) # 20000060 <xCriticalNesting>
    3a00:	fff78713          	addi	a4,a5,-1
    3a04:	80e1a423          	sw	a4,-2040(gp) # 20000060 <xCriticalNesting>
    3a08:	8081a783          	lw	a5,-2040(gp) # 20000060 <xCriticalNesting>
    3a0c:	e399                	bnez	a5,3a12 <xTaskGenericNotifyStateClear+0x98>
    3a0e:	30046073          	csrsi	mstatus,8

        traceRETURN_xTaskGenericNotifyStateClear( xReturn );

        return xReturn;
    3a12:	fe842783          	lw	a5,-24(s0)
    }
    3a16:	853e                	mv	a0,a5
    3a18:	50b2                	lw	ra,44(sp)
    3a1a:	5422                	lw	s0,40(sp)
    3a1c:	6145                	addi	sp,sp,48
    3a1e:	8082                	ret

00003a20 <ulTaskGenericNotifyValueClear>:
#if ( configUSE_TASK_NOTIFICATIONS == 1 )

    uint32_t ulTaskGenericNotifyValueClear( TaskHandle_t xTask,
                                            UBaseType_t uxIndexToClear,
                                            uint32_t ulBitsToClear )
    {
    3a20:	7179                	addi	sp,sp,-48
    3a22:	d606                	sw	ra,44(sp)
    3a24:	d422                	sw	s0,40(sp)
    3a26:	1800                	addi	s0,sp,48
    3a28:	fca42e23          	sw	a0,-36(s0)
    3a2c:	fcb42c23          	sw	a1,-40(s0)
    3a30:	fcc42a23          	sw	a2,-44(s0)
        TCB_t * pxTCB;
        uint32_t ulReturn;

        traceENTER_ulTaskGenericNotifyValueClear( xTask, uxIndexToClear, ulBitsToClear );

        configASSERT( uxIndexToClear < configTASK_NOTIFICATION_ARRAY_ENTRIES );
    3a34:	fd842783          	lw	a5,-40(s0)
    3a38:	c781                	beqz	a5,3a40 <ulTaskGenericNotifyValueClear+0x20>
    3a3a:	30047073          	csrci	mstatus,8
    3a3e:	a001                	j	3a3e <ulTaskGenericNotifyValueClear+0x1e>

        /* If null is passed in here then it is the calling task that is having
         * its notification state cleared. */
        pxTCB = prvGetTCBFromHandle( xTask );
    3a40:	fdc42783          	lw	a5,-36(s0)
    3a44:	e791                	bnez	a5,3a50 <ulTaskGenericNotifyValueClear+0x30>
    3a46:	8281a783          	lw	a5,-2008(gp) # 20000080 <pxCurrentTCB>
    3a4a:	fef42623          	sw	a5,-20(s0)
    3a4e:	a029                	j	3a58 <ulTaskGenericNotifyValueClear+0x38>
    3a50:	fdc42783          	lw	a5,-36(s0)
    3a54:	fef42623          	sw	a5,-20(s0)
        configASSERT( pxTCB != NULL );
    3a58:	fec42783          	lw	a5,-20(s0)
    3a5c:	e781                	bnez	a5,3a64 <ulTaskGenericNotifyValueClear+0x44>
    3a5e:	30047073          	csrci	mstatus,8
    3a62:	a001                	j	3a62 <ulTaskGenericNotifyValueClear+0x42>

        taskENTER_CRITICAL();
    3a64:	30047073          	csrci	mstatus,8
    3a68:	8081a783          	lw	a5,-2040(gp) # 20000060 <xCriticalNesting>
    3a6c:	00178713          	addi	a4,a5,1
    3a70:	80e1a423          	sw	a4,-2040(gp) # 20000060 <xCriticalNesting>
        {
            /* Return the notification as it was before the bits were cleared,
             * then clear the bit mask. */
            ulReturn = pxTCB->ulNotifiedValue[ uxIndexToClear ];
    3a74:	fec42703          	lw	a4,-20(s0)
    3a78:	fd842783          	lw	a5,-40(s0)
    3a7c:	07d1                	addi	a5,a5,20
    3a7e:	078a                	slli	a5,a5,0x2
    3a80:	97ba                	add	a5,a5,a4
    3a82:	439c                	lw	a5,0(a5)
    3a84:	fef42423          	sw	a5,-24(s0)
            pxTCB->ulNotifiedValue[ uxIndexToClear ] &= ~ulBitsToClear;
    3a88:	fec42703          	lw	a4,-20(s0)
    3a8c:	fd842783          	lw	a5,-40(s0)
    3a90:	07d1                	addi	a5,a5,20
    3a92:	078a                	slli	a5,a5,0x2
    3a94:	97ba                	add	a5,a5,a4
    3a96:	4398                	lw	a4,0(a5)
    3a98:	fd442783          	lw	a5,-44(s0)
    3a9c:	fff7c793          	not	a5,a5
    3aa0:	8f7d                	and	a4,a4,a5
    3aa2:	fec42683          	lw	a3,-20(s0)
    3aa6:	fd842783          	lw	a5,-40(s0)
    3aaa:	07d1                	addi	a5,a5,20
    3aac:	078a                	slli	a5,a5,0x2
    3aae:	97b6                	add	a5,a5,a3
    3ab0:	c398                	sw	a4,0(a5)
        }
        taskEXIT_CRITICAL();
    3ab2:	8081a783          	lw	a5,-2040(gp) # 20000060 <xCriticalNesting>
    3ab6:	fff78713          	addi	a4,a5,-1
    3aba:	80e1a423          	sw	a4,-2040(gp) # 20000060 <xCriticalNesting>
    3abe:	8081a783          	lw	a5,-2040(gp) # 20000060 <xCriticalNesting>
    3ac2:	e399                	bnez	a5,3ac8 <ulTaskGenericNotifyValueClear+0xa8>
    3ac4:	30046073          	csrsi	mstatus,8

        traceRETURN_ulTaskGenericNotifyValueClear( ulReturn );

        return ulReturn;
    3ac8:	fe842783          	lw	a5,-24(s0)
    }
    3acc:	853e                	mv	a0,a5
    3ace:	50b2                	lw	ra,44(sp)
    3ad0:	5422                	lw	s0,40(sp)
    3ad2:	6145                	addi	sp,sp,48
    3ad4:	8082                	ret

00003ad6 <prvAddCurrentTaskToDelayedList>:
#endif /* if ( ( configGENERATE_RUN_TIME_STATS == 1 ) && ( INCLUDE_xTaskGetIdleTaskHandle == 1 ) ) */
/*-----------------------------------------------------------*/

static void prvAddCurrentTaskToDelayedList( TickType_t xTicksToWait,
                                            const BaseType_t xCanBlockIndefinitely )
{
    3ad6:	7139                	addi	sp,sp,-64
    3ad8:	de06                	sw	ra,60(sp)
    3ada:	dc22                	sw	s0,56(sp)
    3adc:	0080                	addi	s0,sp,64
    3ade:	fca42623          	sw	a0,-52(s0)
    3ae2:	fcb42423          	sw	a1,-56(s0)
    TickType_t xTimeToWake;
    const TickType_t xConstTickCount = xTickCount;
    3ae6:	b481a783          	lw	a5,-1208(gp) # 200003a0 <xTickCount>
    3aea:	fef42623          	sw	a5,-20(s0)
    List_t * const pxDelayedList = pxDelayedTaskList;
    3aee:	afc1a783          	lw	a5,-1284(gp) # 20000354 <pxDelayedTaskList>
    3af2:	fef42423          	sw	a5,-24(s0)
    List_t * const pxOverflowDelayedList = pxOverflowDelayedTaskList;
    3af6:	b001a783          	lw	a5,-1280(gp) # 20000358 <pxOverflowDelayedTaskList>
    3afa:	fef42223          	sw	a5,-28(s0)
    }
    #endif

    /* Remove the task from the ready list before adding it to the blocked list
     * as the same list item is used for both lists. */
    if( uxListRemove( &( pxCurrentTCB->xStateListItem ) ) == ( UBaseType_t ) 0 )
    3afe:	8281a783          	lw	a5,-2008(gp) # 20000080 <pxCurrentTCB>
    3b02:	0791                	addi	a5,a5,4
    3b04:	853e                	mv	a0,a5
    3b06:	24f9                	jal	3dd4 <uxListRemove>
    3b08:	87aa                	mv	a5,a0
    3b0a:	ef91                	bnez	a5,3b26 <prvAddCurrentTaskToDelayedList+0x50>
    {
        /* The current task must be in a ready list, so there is no need to
         * check, and the port reset macro can be called directly. */
        portRESET_READY_PRIORITY( pxCurrentTCB->uxPriority, uxTopReadyPriority );
    3b0c:	8281a783          	lw	a5,-2008(gp) # 20000080 <pxCurrentTCB>
    3b10:	57dc                	lw	a5,44(a5)
    3b12:	4705                	li	a4,1
    3b14:	00f717b3          	sll	a5,a4,a5
    3b18:	fff7c713          	not	a4,a5
    3b1c:	b4c1a783          	lw	a5,-1204(gp) # 200003a4 <uxTopReadyPriority>
    3b20:	8f7d                	and	a4,a4,a5
    3b22:	b4e1a623          	sw	a4,-1204(gp) # 200003a4 <uxTopReadyPriority>
        mtCOVERAGE_TEST_MARKER();
    }

    #if ( INCLUDE_vTaskSuspend == 1 )
    {
        if( ( xTicksToWait == portMAX_DELAY ) && ( xCanBlockIndefinitely != pdFALSE ) )
    3b26:	fcc42703          	lw	a4,-52(s0)
    3b2a:	57fd                	li	a5,-1
    3b2c:	06f71263          	bne	a4,a5,3b90 <prvAddCurrentTaskToDelayedList+0xba>
    3b30:	fc842783          	lw	a5,-56(s0)
    3b34:	cfb1                	beqz	a5,3b90 <prvAddCurrentTaskToDelayedList+0xba>
        {
            /* Add the task to the suspended task list instead of a delayed task
             * list to ensure it is not woken by a timing event.  It will block
             * indefinitely. */
            listINSERT_END( &xSuspendedTaskList, &( pxCurrentTCB->xStateListItem ) );
    3b36:	b3018793          	addi	a5,gp,-1232 # 20000388 <xSuspendedTaskList>
    3b3a:	43dc                	lw	a5,4(a5)
    3b3c:	fef42023          	sw	a5,-32(s0)
    3b40:	8281a783          	lw	a5,-2008(gp) # 20000080 <pxCurrentTCB>
    3b44:	fe042703          	lw	a4,-32(s0)
    3b48:	c798                	sw	a4,8(a5)
    3b4a:	8281a783          	lw	a5,-2008(gp) # 20000080 <pxCurrentTCB>
    3b4e:	fe042703          	lw	a4,-32(s0)
    3b52:	4718                	lw	a4,8(a4)
    3b54:	c7d8                	sw	a4,12(a5)
    3b56:	8281a703          	lw	a4,-2008(gp) # 20000080 <pxCurrentTCB>
    3b5a:	fe042783          	lw	a5,-32(s0)
    3b5e:	479c                	lw	a5,8(a5)
    3b60:	0711                	addi	a4,a4,4
    3b62:	c3d8                	sw	a4,4(a5)
    3b64:	8281a783          	lw	a5,-2008(gp) # 20000080 <pxCurrentTCB>
    3b68:	00478713          	addi	a4,a5,4
    3b6c:	fe042783          	lw	a5,-32(s0)
    3b70:	c798                	sw	a4,8(a5)
    3b72:	8281a783          	lw	a5,-2008(gp) # 20000080 <pxCurrentTCB>
    3b76:	b3018713          	addi	a4,gp,-1232 # 20000388 <xSuspendedTaskList>
    3b7a:	cbd8                	sw	a4,20(a5)
    3b7c:	b3018793          	addi	a5,gp,-1232 # 20000388 <xSuspendedTaskList>
    3b80:	439c                	lw	a5,0(a5)
    3b82:	00178713          	addi	a4,a5,1
    3b86:	b3018793          	addi	a5,gp,-1232 # 20000388 <xSuspendedTaskList>
    3b8a:	c398                	sw	a4,0(a5)
    3b8c:	0001                	nop

        /* Avoid compiler warning when INCLUDE_vTaskSuspend is not 1. */
        ( void ) xCanBlockIndefinitely;
    }
    #endif /* INCLUDE_vTaskSuspend */
}
    3b8e:	a8a1                	j	3be6 <prvAddCurrentTaskToDelayedList+0x110>
            xTimeToWake = xConstTickCount + xTicksToWait;
    3b90:	fec42703          	lw	a4,-20(s0)
    3b94:	fcc42783          	lw	a5,-52(s0)
    3b98:	97ba                	add	a5,a5,a4
    3b9a:	fcf42e23          	sw	a5,-36(s0)
            listSET_LIST_ITEM_VALUE( &( pxCurrentTCB->xStateListItem ), xTimeToWake );
    3b9e:	8281a783          	lw	a5,-2008(gp) # 20000080 <pxCurrentTCB>
    3ba2:	fdc42703          	lw	a4,-36(s0)
    3ba6:	c3d8                	sw	a4,4(a5)
            if( xTimeToWake < xConstTickCount )
    3ba8:	fdc42703          	lw	a4,-36(s0)
    3bac:	fec42783          	lw	a5,-20(s0)
    3bb0:	00f77a63          	bgeu	a4,a5,3bc4 <prvAddCurrentTaskToDelayedList+0xee>
                vListInsert( pxOverflowDelayedList, &( pxCurrentTCB->xStateListItem ) );
    3bb4:	8281a783          	lw	a5,-2008(gp) # 20000080 <pxCurrentTCB>
    3bb8:	0791                	addi	a5,a5,4
    3bba:	85be                	mv	a1,a5
    3bbc:	fe442503          	lw	a0,-28(s0)
    3bc0:	22bd                	jal	3d2e <vListInsert>
}
    3bc2:	a015                	j	3be6 <prvAddCurrentTaskToDelayedList+0x110>
                vListInsert( pxDelayedList, &( pxCurrentTCB->xStateListItem ) );
    3bc4:	8281a783          	lw	a5,-2008(gp) # 20000080 <pxCurrentTCB>
    3bc8:	0791                	addi	a5,a5,4
    3bca:	85be                	mv	a1,a5
    3bcc:	fe842503          	lw	a0,-24(s0)
    3bd0:	2ab9                	jal	3d2e <vListInsert>
                if( xTimeToWake < xNextTaskUnblockTime )
    3bd2:	b641a783          	lw	a5,-1180(gp) # 200003bc <xNextTaskUnblockTime>
    3bd6:	fdc42703          	lw	a4,-36(s0)
    3bda:	00f77663          	bgeu	a4,a5,3be6 <prvAddCurrentTaskToDelayedList+0x110>
                    xNextTaskUnblockTime = xTimeToWake;
    3bde:	fdc42703          	lw	a4,-36(s0)
    3be2:	b6e1a223          	sw	a4,-1180(gp) # 200003bc <xNextTaskUnblockTime>
}
    3be6:	0001                	nop
    3be8:	50f2                	lw	ra,60(sp)
    3bea:	5462                	lw	s0,56(sp)
    3bec:	6121                	addi	sp,sp,64
    3bee:	8082                	ret

00003bf0 <vTaskResetState>:
 * Reset the state in this file. This state is normally initialized at start up.
 * This function must be called by the application before restarting the
 * scheduler.
 */
void vTaskResetState( void )
{
    3bf0:	1101                	addi	sp,sp,-32
    3bf2:	ce06                	sw	ra,28(sp)
    3bf4:	cc22                	sw	s0,24(sp)
    3bf6:	1000                	addi	s0,sp,32
    BaseType_t xCoreID;

    /* Task control block. */
    #if ( configNUMBER_OF_CORES == 1 )
    {
        pxCurrentTCB = NULL;
    3bf8:	8201a423          	sw	zero,-2008(gp) # 20000080 <pxCurrentTCB>
    }
    #endif /* #if ( configNUMBER_OF_CORES == 1 ) */

    #if ( INCLUDE_vTaskDelete == 1 )
    {
        uxDeletedTasksWaitingCleanUp = ( UBaseType_t ) 0U;
    3bfc:	b201a623          	sw	zero,-1236(gp) # 20000384 <uxDeletedTasksWaitingCleanUp>
        FreeRTOS_errno = 0;
    }
    #endif /* #if ( configUSE_POSIX_ERRNO == 1 ) */

    /* Other file private variables. */
    uxCurrentNumberOfTasks = ( UBaseType_t ) 0U;
    3c00:	b401a223          	sw	zero,-1212(gp) # 2000039c <uxCurrentNumberOfTasks>
    xTickCount = ( TickType_t ) configINITIAL_TICK_COUNT;
    3c04:	b401a423          	sw	zero,-1208(gp) # 200003a0 <xTickCount>
    uxTopReadyPriority = tskIDLE_PRIORITY;
    3c08:	b401a623          	sw	zero,-1204(gp) # 200003a4 <uxTopReadyPriority>
    xSchedulerRunning = pdFALSE;
    3c0c:	b401a823          	sw	zero,-1200(gp) # 200003a8 <xSchedulerRunning>
    xPendedTicks = ( TickType_t ) 0U;
    3c10:	b401aa23          	sw	zero,-1196(gp) # 200003ac <xPendedTicks>

    for( xCoreID = 0; xCoreID < configNUMBER_OF_CORES; xCoreID++ )
    3c14:	fe042623          	sw	zero,-20(s0)
    3c18:	a831                	j	3c34 <vTaskResetState+0x44>
    {
        xYieldPendings[ xCoreID ] = pdFALSE;
    3c1a:	fec42703          	lw	a4,-20(s0)
    3c1e:	070a                	slli	a4,a4,0x2
    3c20:	b5818793          	addi	a5,gp,-1192 # 200003b0 <xYieldPendings>
    3c24:	97ba                	add	a5,a5,a4
    3c26:	0007a023          	sw	zero,0(a5)
    for( xCoreID = 0; xCoreID < configNUMBER_OF_CORES; xCoreID++ )
    3c2a:	fec42783          	lw	a5,-20(s0)
    3c2e:	0785                	addi	a5,a5,1
    3c30:	fef42623          	sw	a5,-20(s0)
    3c34:	fec42783          	lw	a5,-20(s0)
    3c38:	fef051e3          	blez	a5,3c1a <vTaskResetState+0x2a>
    }

    xNumOfOverflows = ( BaseType_t ) 0;
    3c3c:	b401ae23          	sw	zero,-1188(gp) # 200003b4 <xNumOfOverflows>
    uxTaskNumber = ( UBaseType_t ) 0U;
    3c40:	b601a023          	sw	zero,-1184(gp) # 200003b8 <uxTaskNumber>
    xNextTaskUnblockTime = ( TickType_t ) 0U;
    3c44:	b601a223          	sw	zero,-1180(gp) # 200003bc <xNextTaskUnblockTime>

    uxSchedulerSuspended = ( UBaseType_t ) 0U;
    3c48:	b601a623          	sw	zero,-1172(gp) # 200003c4 <uxSchedulerSuspended>
            ulTaskSwitchedInTime[ xCoreID ] = 0U;
            ulTotalRunTime[ xCoreID ] = 0U;
        }
    }
    #endif /* #if ( configGENERATE_RUN_TIME_STATS == 1 ) */
}
    3c4c:	0001                	nop
    3c4e:	40f2                	lw	ra,28(sp)
    3c50:	4462                	lw	s0,24(sp)
    3c52:	6105                	addi	sp,sp,32
    3c54:	8082                	ret

00003c56 <vListInitialise>:
/*-----------------------------------------------------------
* PUBLIC LIST API documented in list.h
*----------------------------------------------------------*/

void vListInitialise( List_t * const pxList )
{
    3c56:	1101                	addi	sp,sp,-32
    3c58:	ce06                	sw	ra,28(sp)
    3c5a:	cc22                	sw	s0,24(sp)
    3c5c:	1000                	addi	s0,sp,32
    3c5e:	fea42623          	sw	a0,-20(s0)
    traceENTER_vListInitialise( pxList );

    /* The list structure contains a list item which is used to mark the
     * end of the list.  To initialise the list the list end is inserted
     * as the only list entry. */
    pxList->pxIndex = ( ListItem_t * ) &( pxList->xListEnd );
    3c62:	fec42783          	lw	a5,-20(s0)
    3c66:	00878713          	addi	a4,a5,8
    3c6a:	fec42783          	lw	a5,-20(s0)
    3c6e:	c3d8                	sw	a4,4(a5)

    listSET_FIRST_LIST_ITEM_INTEGRITY_CHECK_VALUE( &( pxList->xListEnd ) );

    /* The list end value is the highest possible value in the list to
     * ensure it remains at the end of the list. */
    pxList->xListEnd.xItemValue = portMAX_DELAY;
    3c70:	fec42783          	lw	a5,-20(s0)
    3c74:	577d                	li	a4,-1
    3c76:	c798                	sw	a4,8(a5)

    /* The list end next and previous pointers point to itself so we know
     * when the list is empty. */
    pxList->xListEnd.pxNext = ( ListItem_t * ) &( pxList->xListEnd );
    3c78:	fec42783          	lw	a5,-20(s0)
    3c7c:	00878713          	addi	a4,a5,8
    3c80:	fec42783          	lw	a5,-20(s0)
    3c84:	c7d8                	sw	a4,12(a5)
    pxList->xListEnd.pxPrevious = ( ListItem_t * ) &( pxList->xListEnd );
    3c86:	fec42783          	lw	a5,-20(s0)
    3c8a:	00878713          	addi	a4,a5,8
    3c8e:	fec42783          	lw	a5,-20(s0)
    3c92:	cb98                	sw	a4,16(a5)
        pxList->xListEnd.pxContainer = NULL;
        listSET_SECOND_LIST_ITEM_INTEGRITY_CHECK_VALUE( &( pxList->xListEnd ) );
    }
    #endif

    pxList->uxNumberOfItems = ( UBaseType_t ) 0U;
    3c94:	fec42783          	lw	a5,-20(s0)
    3c98:	0007a023          	sw	zero,0(a5)
     * configUSE_LIST_DATA_INTEGRITY_CHECK_BYTES is set to 1. */
    listSET_LIST_INTEGRITY_CHECK_1_VALUE( pxList );
    listSET_LIST_INTEGRITY_CHECK_2_VALUE( pxList );

    traceRETURN_vListInitialise();
}
    3c9c:	0001                	nop
    3c9e:	40f2                	lw	ra,28(sp)
    3ca0:	4462                	lw	s0,24(sp)
    3ca2:	6105                	addi	sp,sp,32
    3ca4:	8082                	ret

00003ca6 <vListInitialiseItem>:
/*-----------------------------------------------------------*/

void vListInitialiseItem( ListItem_t * const pxItem )
{
    3ca6:	1101                	addi	sp,sp,-32
    3ca8:	ce06                	sw	ra,28(sp)
    3caa:	cc22                	sw	s0,24(sp)
    3cac:	1000                	addi	s0,sp,32
    3cae:	fea42623          	sw	a0,-20(s0)
    traceENTER_vListInitialiseItem( pxItem );

    /* Make sure the list item is not recorded as being on a list. */
    pxItem->pxContainer = NULL;
    3cb2:	fec42783          	lw	a5,-20(s0)
    3cb6:	0007a823          	sw	zero,16(a5)
     * configUSE_LIST_DATA_INTEGRITY_CHECK_BYTES is set to 1. */
    listSET_FIRST_LIST_ITEM_INTEGRITY_CHECK_VALUE( pxItem );
    listSET_SECOND_LIST_ITEM_INTEGRITY_CHECK_VALUE( pxItem );

    traceRETURN_vListInitialiseItem();
}
    3cba:	0001                	nop
    3cbc:	40f2                	lw	ra,28(sp)
    3cbe:	4462                	lw	s0,24(sp)
    3cc0:	6105                	addi	sp,sp,32
    3cc2:	8082                	ret

00003cc4 <vListInsertEnd>:
/*-----------------------------------------------------------*/

void vListInsertEnd( List_t * const pxList,
                     ListItem_t * const pxNewListItem )
{
    3cc4:	7179                	addi	sp,sp,-48
    3cc6:	d606                	sw	ra,44(sp)
    3cc8:	d422                	sw	s0,40(sp)
    3cca:	1800                	addi	s0,sp,48
    3ccc:	fca42e23          	sw	a0,-36(s0)
    3cd0:	fcb42c23          	sw	a1,-40(s0)
    ListItem_t * const pxIndex = pxList->pxIndex;
    3cd4:	fdc42783          	lw	a5,-36(s0)
    3cd8:	43dc                	lw	a5,4(a5)
    3cda:	fef42623          	sw	a5,-20(s0)
    listTEST_LIST_ITEM_INTEGRITY( pxNewListItem );

    /* Insert a new list item into pxList, but rather than sort the list,
     * makes the new list item the last item to be removed by a call to
     * listGET_OWNER_OF_NEXT_ENTRY(). */
    pxNewListItem->pxNext = pxIndex;
    3cde:	fd842783          	lw	a5,-40(s0)
    3ce2:	fec42703          	lw	a4,-20(s0)
    3ce6:	c3d8                	sw	a4,4(a5)
    pxNewListItem->pxPrevious = pxIndex->pxPrevious;
    3ce8:	fec42783          	lw	a5,-20(s0)
    3cec:	4798                	lw	a4,8(a5)
    3cee:	fd842783          	lw	a5,-40(s0)
    3cf2:	c798                	sw	a4,8(a5)

    /* Only used during decision coverage testing. */
    mtCOVERAGE_TEST_DELAY();

    pxIndex->pxPrevious->pxNext = pxNewListItem;
    3cf4:	fec42783          	lw	a5,-20(s0)
    3cf8:	479c                	lw	a5,8(a5)
    3cfa:	fd842703          	lw	a4,-40(s0)
    3cfe:	c3d8                	sw	a4,4(a5)
    pxIndex->pxPrevious = pxNewListItem;
    3d00:	fec42783          	lw	a5,-20(s0)
    3d04:	fd842703          	lw	a4,-40(s0)
    3d08:	c798                	sw	a4,8(a5)

    /* Remember which list the item is in. */
    pxNewListItem->pxContainer = pxList;
    3d0a:	fd842783          	lw	a5,-40(s0)
    3d0e:	fdc42703          	lw	a4,-36(s0)
    3d12:	cb98                	sw	a4,16(a5)

    ( pxList->uxNumberOfItems ) = ( UBaseType_t ) ( pxList->uxNumberOfItems + 1U );
    3d14:	fdc42783          	lw	a5,-36(s0)
    3d18:	439c                	lw	a5,0(a5)
    3d1a:	00178713          	addi	a4,a5,1
    3d1e:	fdc42783          	lw	a5,-36(s0)
    3d22:	c398                	sw	a4,0(a5)

    traceRETURN_vListInsertEnd();
}
    3d24:	0001                	nop
    3d26:	50b2                	lw	ra,44(sp)
    3d28:	5422                	lw	s0,40(sp)
    3d2a:	6145                	addi	sp,sp,48
    3d2c:	8082                	ret

00003d2e <vListInsert>:
/*-----------------------------------------------------------*/

void vListInsert( List_t * const pxList,
                  ListItem_t * const pxNewListItem )
{
    3d2e:	7179                	addi	sp,sp,-48
    3d30:	d606                	sw	ra,44(sp)
    3d32:	d422                	sw	s0,40(sp)
    3d34:	1800                	addi	s0,sp,48
    3d36:	fca42e23          	sw	a0,-36(s0)
    3d3a:	fcb42c23          	sw	a1,-40(s0)
    ListItem_t * pxIterator;
    const TickType_t xValueOfInsertion = pxNewListItem->xItemValue;
    3d3e:	fd842783          	lw	a5,-40(s0)
    3d42:	439c                	lw	a5,0(a5)
    3d44:	fef42423          	sw	a5,-24(s0)
     * new list item should be placed after it.  This ensures that TCBs which are
     * stored in ready lists (all of which have the same xItemValue value) get a
     * share of the CPU.  However, if the xItemValue is the same as the back marker
     * the iteration loop below will not end.  Therefore the value is checked
     * first, and the algorithm slightly modified if necessary. */
    if( xValueOfInsertion == portMAX_DELAY )
    3d48:	fe842703          	lw	a4,-24(s0)
    3d4c:	57fd                	li	a5,-1
    3d4e:	00f71863          	bne	a4,a5,3d5e <vListInsert+0x30>
    {
        pxIterator = pxList->xListEnd.pxPrevious;
    3d52:	fdc42783          	lw	a5,-36(s0)
    3d56:	4b9c                	lw	a5,16(a5)
    3d58:	fef42623          	sw	a5,-20(s0)
    3d5c:	a025                	j	3d84 <vListInsert+0x56>
        *   5) If the FreeRTOS port supports interrupt nesting then ensure that
        *      the priority of the tick interrupt is at or below
        *      configMAX_SYSCALL_INTERRUPT_PRIORITY.
        **********************************************************************/

        for( pxIterator = ( ListItem_t * ) &( pxList->xListEnd ); pxIterator->pxNext->xItemValue <= xValueOfInsertion; pxIterator = pxIterator->pxNext )
    3d5e:	fdc42783          	lw	a5,-36(s0)
    3d62:	07a1                	addi	a5,a5,8
    3d64:	fef42623          	sw	a5,-20(s0)
    3d68:	a031                	j	3d74 <vListInsert+0x46>
    3d6a:	fec42783          	lw	a5,-20(s0)
    3d6e:	43dc                	lw	a5,4(a5)
    3d70:	fef42623          	sw	a5,-20(s0)
    3d74:	fec42783          	lw	a5,-20(s0)
    3d78:	43dc                	lw	a5,4(a5)
    3d7a:	439c                	lw	a5,0(a5)
    3d7c:	fe842703          	lw	a4,-24(s0)
    3d80:	fef775e3          	bgeu	a4,a5,3d6a <vListInsert+0x3c>
             * IF YOU FIND YOUR CODE STUCK HERE, SEE THE NOTE JUST ABOVE.
             */
        }
    }

    pxNewListItem->pxNext = pxIterator->pxNext;
    3d84:	fec42783          	lw	a5,-20(s0)
    3d88:	43d8                	lw	a4,4(a5)
    3d8a:	fd842783          	lw	a5,-40(s0)
    3d8e:	c3d8                	sw	a4,4(a5)
    pxNewListItem->pxNext->pxPrevious = pxNewListItem;
    3d90:	fd842783          	lw	a5,-40(s0)
    3d94:	43dc                	lw	a5,4(a5)
    3d96:	fd842703          	lw	a4,-40(s0)
    3d9a:	c798                	sw	a4,8(a5)
    pxNewListItem->pxPrevious = pxIterator;
    3d9c:	fd842783          	lw	a5,-40(s0)
    3da0:	fec42703          	lw	a4,-20(s0)
    3da4:	c798                	sw	a4,8(a5)
    pxIterator->pxNext = pxNewListItem;
    3da6:	fec42783          	lw	a5,-20(s0)
    3daa:	fd842703          	lw	a4,-40(s0)
    3dae:	c3d8                	sw	a4,4(a5)

    /* Remember which list the item is in.  This allows fast removal of the
     * item later. */
    pxNewListItem->pxContainer = pxList;
    3db0:	fd842783          	lw	a5,-40(s0)
    3db4:	fdc42703          	lw	a4,-36(s0)
    3db8:	cb98                	sw	a4,16(a5)

    ( pxList->uxNumberOfItems ) = ( UBaseType_t ) ( pxList->uxNumberOfItems + 1U );
    3dba:	fdc42783          	lw	a5,-36(s0)
    3dbe:	439c                	lw	a5,0(a5)
    3dc0:	00178713          	addi	a4,a5,1
    3dc4:	fdc42783          	lw	a5,-36(s0)
    3dc8:	c398                	sw	a4,0(a5)

    traceRETURN_vListInsert();
}
    3dca:	0001                	nop
    3dcc:	50b2                	lw	ra,44(sp)
    3dce:	5422                	lw	s0,40(sp)
    3dd0:	6145                	addi	sp,sp,48
    3dd2:	8082                	ret

00003dd4 <uxListRemove>:
/*-----------------------------------------------------------*/


UBaseType_t uxListRemove( ListItem_t * const pxItemToRemove )
{
    3dd4:	7179                	addi	sp,sp,-48
    3dd6:	d606                	sw	ra,44(sp)
    3dd8:	d422                	sw	s0,40(sp)
    3dda:	1800                	addi	s0,sp,48
    3ddc:	fca42e23          	sw	a0,-36(s0)
    /* The list item knows which list it is in.  Obtain the list from the list
     * item. */
    List_t * const pxList = pxItemToRemove->pxContainer;
    3de0:	fdc42783          	lw	a5,-36(s0)
    3de4:	4b9c                	lw	a5,16(a5)
    3de6:	fef42623          	sw	a5,-20(s0)

    traceENTER_uxListRemove( pxItemToRemove );

    pxItemToRemove->pxNext->pxPrevious = pxItemToRemove->pxPrevious;
    3dea:	fdc42783          	lw	a5,-36(s0)
    3dee:	43dc                	lw	a5,4(a5)
    3df0:	fdc42703          	lw	a4,-36(s0)
    3df4:	4718                	lw	a4,8(a4)
    3df6:	c798                	sw	a4,8(a5)
    pxItemToRemove->pxPrevious->pxNext = pxItemToRemove->pxNext;
    3df8:	fdc42783          	lw	a5,-36(s0)
    3dfc:	479c                	lw	a5,8(a5)
    3dfe:	fdc42703          	lw	a4,-36(s0)
    3e02:	4358                	lw	a4,4(a4)
    3e04:	c3d8                	sw	a4,4(a5)

    /* Only used during decision coverage testing. */
    mtCOVERAGE_TEST_DELAY();

    /* Make sure the index is left pointing to a valid item. */
    if( pxList->pxIndex == pxItemToRemove )
    3e06:	fec42783          	lw	a5,-20(s0)
    3e0a:	43dc                	lw	a5,4(a5)
    3e0c:	fdc42703          	lw	a4,-36(s0)
    3e10:	00f71863          	bne	a4,a5,3e20 <uxListRemove+0x4c>
    {
        pxList->pxIndex = pxItemToRemove->pxPrevious;
    3e14:	fdc42783          	lw	a5,-36(s0)
    3e18:	4798                	lw	a4,8(a5)
    3e1a:	fec42783          	lw	a5,-20(s0)
    3e1e:	c3d8                	sw	a4,4(a5)
    else
    {
        mtCOVERAGE_TEST_MARKER();
    }

    pxItemToRemove->pxContainer = NULL;
    3e20:	fdc42783          	lw	a5,-36(s0)
    3e24:	0007a823          	sw	zero,16(a5)
    ( pxList->uxNumberOfItems ) = ( UBaseType_t ) ( pxList->uxNumberOfItems - 1U );
    3e28:	fec42783          	lw	a5,-20(s0)
    3e2c:	439c                	lw	a5,0(a5)
    3e2e:	fff78713          	addi	a4,a5,-1
    3e32:	fec42783          	lw	a5,-20(s0)
    3e36:	c398                	sw	a4,0(a5)

    traceRETURN_uxListRemove( pxList->uxNumberOfItems );

    return pxList->uxNumberOfItems;
    3e38:	fec42783          	lw	a5,-20(s0)
    3e3c:	439c                	lw	a5,0(a5)
}
    3e3e:	853e                	mv	a0,a5
    3e40:	50b2                	lw	ra,44(sp)
    3e42:	5422                	lw	s0,40(sp)
    3e44:	6145                	addi	sp,sp,48
    3e46:	8082                	ret

00003e48 <pvPortMalloc>:
PRIVILEGED_DATA static size_t xNumberOfSuccessfulFrees = ( size_t ) 0U;

/*-----------------------------------------------------------*/

void * pvPortMalloc( size_t xWantedSize )
{
    3e48:	7139                	addi	sp,sp,-64
    3e4a:	de06                	sw	ra,60(sp)
    3e4c:	dc22                	sw	s0,56(sp)
    3e4e:	0080                	addi	s0,sp,64
    3e50:	fca42623          	sw	a0,-52(s0)
    BlockLink_t * pxBlock;
    BlockLink_t * pxPreviousBlock;
    BlockLink_t * pxNewBlockLink;
    void * pvReturn = NULL;
    3e54:	fe042223          	sw	zero,-28(s0)
    size_t xAdditionalRequiredSize;
    size_t xAllocatedBlockSize = 0;
    3e58:	fe042023          	sw	zero,-32(s0)

    if( xWantedSize > 0 )
    3e5c:	fcc42783          	lw	a5,-52(s0)
    3e60:	cfb9                	beqz	a5,3ebe <pvPortMalloc+0x76>
    {
        /* The wanted size must be increased so it can contain a BlockLink_t
         * structure in addition to the requested amount of bytes. */
        if( heapADD_WILL_OVERFLOW( xWantedSize, xHeapStructSize ) == 0 )
    3e62:	47c1                	li	a5,16
    3e64:	fff7c793          	not	a5,a5
    3e68:	fcc42703          	lw	a4,-52(s0)
    3e6c:	04e7e763          	bltu	a5,a4,3eba <pvPortMalloc+0x72>
        {
            xWantedSize += xHeapStructSize;
    3e70:	47c1                	li	a5,16
    3e72:	fcc42703          	lw	a4,-52(s0)
    3e76:	97ba                	add	a5,a5,a4
    3e78:	fcf42623          	sw	a5,-52(s0)

            /* Ensure that blocks are always aligned to the required number
             * of bytes. */
            if( ( xWantedSize & portBYTE_ALIGNMENT_MASK ) != 0x00 )
    3e7c:	fcc42783          	lw	a5,-52(s0)
    3e80:	8bbd                	andi	a5,a5,15
    3e82:	cf95                	beqz	a5,3ebe <pvPortMalloc+0x76>
            {
                /* Byte alignment required. */
                xAdditionalRequiredSize = portBYTE_ALIGNMENT - ( xWantedSize & portBYTE_ALIGNMENT_MASK );
    3e84:	fcc42783          	lw	a5,-52(s0)
    3e88:	8bbd                	andi	a5,a5,15
    3e8a:	4741                	li	a4,16
    3e8c:	40f707b3          	sub	a5,a4,a5
    3e90:	fcf42e23          	sw	a5,-36(s0)

                if( heapADD_WILL_OVERFLOW( xWantedSize, xAdditionalRequiredSize ) == 0 )
    3e94:	fdc42783          	lw	a5,-36(s0)
    3e98:	fff7c793          	not	a5,a5
    3e9c:	fcc42703          	lw	a4,-52(s0)
    3ea0:	00e7ea63          	bltu	a5,a4,3eb4 <pvPortMalloc+0x6c>
                {
                    xWantedSize += xAdditionalRequiredSize;
    3ea4:	fcc42703          	lw	a4,-52(s0)
    3ea8:	fdc42783          	lw	a5,-36(s0)
    3eac:	97ba                	add	a5,a5,a4
    3eae:	fcf42623          	sw	a5,-52(s0)
    3eb2:	a031                	j	3ebe <pvPortMalloc+0x76>
                }
                else
                {
                    xWantedSize = 0;
    3eb4:	fc042623          	sw	zero,-52(s0)
    3eb8:	a019                	j	3ebe <pvPortMalloc+0x76>
                mtCOVERAGE_TEST_MARKER();
            }
        }
        else
        {
            xWantedSize = 0;
    3eba:	fc042623          	sw	zero,-52(s0)
    else
    {
        mtCOVERAGE_TEST_MARKER();
    }

    vTaskSuspendAll();
    3ebe:	f9cfd0ef          	jal	165a <vTaskSuspendAll>
    {
        /* If this is the first call to malloc then the heap will require
         * initialisation to setup the list of free blocks. */
        if( pxEnd == NULL )
    3ec2:	200027b7          	lui	a5,0x20002
    3ec6:	3d07a783          	lw	a5,976(a5) # 200023d0 <pxEnd>
    3eca:	e391                	bnez	a5,3ece <pvPortMalloc+0x86>
        {
            prvHeapInit();
    3ecc:	26d9                	jal	4292 <prvHeapInit>

        /* Check the block size we are trying to allocate is not so large that the
         * top bit is set.  The top bit of the block size member of the BlockLink_t
         * structure is used to determine who owns the block - the application or
         * the kernel, so it must be free. */
        if( heapBLOCK_SIZE_IS_VALID( xWantedSize ) != 0 )
    3ece:	fcc42783          	lw	a5,-52(s0)
    3ed2:	1e07c263          	bltz	a5,40b6 <pvPortMalloc+0x26e>
        {
            if( ( xWantedSize > 0 ) && ( xWantedSize <= xFreeBytesRemaining ) )
    3ed6:	fcc42783          	lw	a5,-52(s0)
    3eda:	1c078e63          	beqz	a5,40b6 <pvPortMalloc+0x26e>
    3ede:	200027b7          	lui	a5,0x20002
    3ee2:	3d47a783          	lw	a5,980(a5) # 200023d4 <xFreeBytesRemaining>
    3ee6:	fcc42703          	lw	a4,-52(s0)
    3eea:	1ce7e663          	bltu	a5,a4,40b6 <pvPortMalloc+0x26e>
            {
                /* Traverse the list from the start (lowest address) block until
                 * one of adequate size is found. */
                pxPreviousBlock = &xStart;
    3eee:	200027b7          	lui	a5,0x20002
    3ef2:	3c878793          	addi	a5,a5,968 # 200023c8 <xStart>
    3ef6:	fef42423          	sw	a5,-24(s0)
                pxBlock = heapPROTECT_BLOCK_POINTER( xStart.pxNextFreeBlock );
    3efa:	200027b7          	lui	a5,0x20002
    3efe:	3c878793          	addi	a5,a5,968 # 200023c8 <xStart>
    3f02:	439c                	lw	a5,0(a5)
    3f04:	fef42623          	sw	a5,-20(s0)
                heapVALIDATE_BLOCK_POINTER( pxBlock );
    3f08:	fec42703          	lw	a4,-20(s0)
    3f0c:	200007b7          	lui	a5,0x20000
    3f10:	3c878793          	addi	a5,a5,968 # 200003c8 <ucHeap>
    3f14:	00f76a63          	bltu	a4,a5,3f28 <pvPortMalloc+0xe0>
    3f18:	fec42703          	lw	a4,-20(s0)
    3f1c:	200027b7          	lui	a5,0x20002
    3f20:	3c778793          	addi	a5,a5,967 # 200023c7 <__global_pointer$+0x1b6f>
    3f24:	04e7f163          	bgeu	a5,a4,3f66 <pvPortMalloc+0x11e>
    3f28:	30047073          	csrci	mstatus,8
    3f2c:	a001                	j	3f2c <pvPortMalloc+0xe4>

                while( ( pxBlock->xBlockSize < xWantedSize ) && ( pxBlock->pxNextFreeBlock != heapPROTECT_BLOCK_POINTER( NULL ) ) )
                {
                    pxPreviousBlock = pxBlock;
    3f2e:	fec42783          	lw	a5,-20(s0)
    3f32:	fef42423          	sw	a5,-24(s0)
                    pxBlock = heapPROTECT_BLOCK_POINTER( pxBlock->pxNextFreeBlock );
    3f36:	fec42783          	lw	a5,-20(s0)
    3f3a:	439c                	lw	a5,0(a5)
    3f3c:	fef42623          	sw	a5,-20(s0)
                    heapVALIDATE_BLOCK_POINTER( pxBlock );
    3f40:	fec42703          	lw	a4,-20(s0)
    3f44:	200007b7          	lui	a5,0x20000
    3f48:	3c878793          	addi	a5,a5,968 # 200003c8 <ucHeap>
    3f4c:	00f76a63          	bltu	a4,a5,3f60 <pvPortMalloc+0x118>
    3f50:	fec42703          	lw	a4,-20(s0)
    3f54:	200027b7          	lui	a5,0x20002
    3f58:	3c778793          	addi	a5,a5,967 # 200023c7 <__global_pointer$+0x1b6f>
    3f5c:	00e7f563          	bgeu	a5,a4,3f66 <pvPortMalloc+0x11e>
    3f60:	30047073          	csrci	mstatus,8
    3f64:	a001                	j	3f64 <pvPortMalloc+0x11c>
                while( ( pxBlock->xBlockSize < xWantedSize ) && ( pxBlock->pxNextFreeBlock != heapPROTECT_BLOCK_POINTER( NULL ) ) )
    3f66:	fec42783          	lw	a5,-20(s0)
    3f6a:	43dc                	lw	a5,4(a5)
    3f6c:	fcc42703          	lw	a4,-52(s0)
    3f70:	00e7f663          	bgeu	a5,a4,3f7c <pvPortMalloc+0x134>
    3f74:	fec42783          	lw	a5,-20(s0)
    3f78:	439c                	lw	a5,0(a5)
    3f7a:	fbd5                	bnez	a5,3f2e <pvPortMalloc+0xe6>
                }

                /* If the end marker was reached then a block of adequate size
                 * was not found. */
                if( pxBlock != pxEnd )
    3f7c:	200027b7          	lui	a5,0x20002
    3f80:	3d07a783          	lw	a5,976(a5) # 200023d0 <pxEnd>
    3f84:	fec42703          	lw	a4,-20(s0)
    3f88:	12f70763          	beq	a4,a5,40b6 <pvPortMalloc+0x26e>
                {
                    /* Return the memory space pointed to - jumping over the
                     * BlockLink_t structure at its start. */
                    pvReturn = ( void * ) ( ( ( uint8_t * ) heapPROTECT_BLOCK_POINTER( pxPreviousBlock->pxNextFreeBlock ) ) + xHeapStructSize );
    3f8c:	fe842783          	lw	a5,-24(s0)
    3f90:	4398                	lw	a4,0(a5)
    3f92:	47c1                	li	a5,16
    3f94:	97ba                	add	a5,a5,a4
    3f96:	fef42223          	sw	a5,-28(s0)
                    heapVALIDATE_BLOCK_POINTER( pvReturn );
    3f9a:	fe442703          	lw	a4,-28(s0)
    3f9e:	200007b7          	lui	a5,0x20000
    3fa2:	3c878793          	addi	a5,a5,968 # 200003c8 <ucHeap>
    3fa6:	00f76a63          	bltu	a4,a5,3fba <pvPortMalloc+0x172>
    3faa:	fe442703          	lw	a4,-28(s0)
    3fae:	200027b7          	lui	a5,0x20002
    3fb2:	3c778793          	addi	a5,a5,967 # 200023c7 <__global_pointer$+0x1b6f>
    3fb6:	00e7f563          	bgeu	a5,a4,3fc0 <pvPortMalloc+0x178>
    3fba:	30047073          	csrci	mstatus,8
    3fbe:	a001                	j	3fbe <pvPortMalloc+0x176>

                    /* This block is being returned for use so must be taken out
                     * of the list of free blocks. */
                    pxPreviousBlock->pxNextFreeBlock = pxBlock->pxNextFreeBlock;
    3fc0:	fec42783          	lw	a5,-20(s0)
    3fc4:	4398                	lw	a4,0(a5)
    3fc6:	fe842783          	lw	a5,-24(s0)
    3fca:	c398                	sw	a4,0(a5)

                    /* If the block is larger than required it can be split into
                     * two. */
                    configASSERT( heapSUBTRACT_WILL_UNDERFLOW( pxBlock->xBlockSize, xWantedSize ) == 0 );
    3fcc:	fec42783          	lw	a5,-20(s0)
    3fd0:	43dc                	lw	a5,4(a5)
    3fd2:	fcc42703          	lw	a4,-52(s0)
    3fd6:	00e7f563          	bgeu	a5,a4,3fe0 <pvPortMalloc+0x198>
    3fda:	30047073          	csrci	mstatus,8
    3fde:	a001                	j	3fde <pvPortMalloc+0x196>

                    if( ( pxBlock->xBlockSize - xWantedSize ) > heapMINIMUM_BLOCK_SIZE )
    3fe0:	fec42783          	lw	a5,-20(s0)
    3fe4:	43d8                	lw	a4,4(a5)
    3fe6:	fcc42783          	lw	a5,-52(s0)
    3fea:	8f1d                	sub	a4,a4,a5
    3fec:	47c1                	li	a5,16
    3fee:	0786                	slli	a5,a5,0x1
    3ff0:	04e7f963          	bgeu	a5,a4,4042 <pvPortMalloc+0x1fa>
                    {
                        /* This block is to be split into two.  Create a new
                         * block following the number of bytes requested. The void
                         * cast is used to prevent byte alignment warnings from the
                         * compiler. */
                        pxNewBlockLink = ( void * ) ( ( ( uint8_t * ) pxBlock ) + xWantedSize );
    3ff4:	fec42703          	lw	a4,-20(s0)
    3ff8:	fcc42783          	lw	a5,-52(s0)
    3ffc:	97ba                	add	a5,a5,a4
    3ffe:	fcf42c23          	sw	a5,-40(s0)
                        configASSERT( ( ( ( size_t ) pxNewBlockLink ) & portBYTE_ALIGNMENT_MASK ) == 0 );
    4002:	fd842783          	lw	a5,-40(s0)
    4006:	8bbd                	andi	a5,a5,15
    4008:	c781                	beqz	a5,4010 <pvPortMalloc+0x1c8>
    400a:	30047073          	csrci	mstatus,8
    400e:	a001                	j	400e <pvPortMalloc+0x1c6>

                        /* Calculate the sizes of two blocks split from the
                         * single block. */
                        pxNewBlockLink->xBlockSize = pxBlock->xBlockSize - xWantedSize;
    4010:	fec42783          	lw	a5,-20(s0)
    4014:	43d8                	lw	a4,4(a5)
    4016:	fcc42783          	lw	a5,-52(s0)
    401a:	8f1d                	sub	a4,a4,a5
    401c:	fd842783          	lw	a5,-40(s0)
    4020:	c3d8                	sw	a4,4(a5)
                        pxBlock->xBlockSize = xWantedSize;
    4022:	fec42783          	lw	a5,-20(s0)
    4026:	fcc42703          	lw	a4,-52(s0)
    402a:	c3d8                	sw	a4,4(a5)

                        /* Insert the new block into the list of free blocks. */
                        pxNewBlockLink->pxNextFreeBlock = pxPreviousBlock->pxNextFreeBlock;
    402c:	fe842783          	lw	a5,-24(s0)
    4030:	4398                	lw	a4,0(a5)
    4032:	fd842783          	lw	a5,-40(s0)
    4036:	c398                	sw	a4,0(a5)
                        pxPreviousBlock->pxNextFreeBlock = heapPROTECT_BLOCK_POINTER( pxNewBlockLink );
    4038:	fe842783          	lw	a5,-24(s0)
    403c:	fd842703          	lw	a4,-40(s0)
    4040:	c398                	sw	a4,0(a5)
                    else
                    {
                        mtCOVERAGE_TEST_MARKER();
                    }

                    xFreeBytesRemaining -= pxBlock->xBlockSize;
    4042:	200027b7          	lui	a5,0x20002
    4046:	3d47a703          	lw	a4,980(a5) # 200023d4 <xFreeBytesRemaining>
    404a:	fec42783          	lw	a5,-20(s0)
    404e:	43dc                	lw	a5,4(a5)
    4050:	8f1d                	sub	a4,a4,a5
    4052:	200027b7          	lui	a5,0x20002
    4056:	3ce7aa23          	sw	a4,980(a5) # 200023d4 <xFreeBytesRemaining>

                    if( xFreeBytesRemaining < xMinimumEverFreeBytesRemaining )
    405a:	200027b7          	lui	a5,0x20002
    405e:	3d47a703          	lw	a4,980(a5) # 200023d4 <xFreeBytesRemaining>
    4062:	200027b7          	lui	a5,0x20002
    4066:	3d87a783          	lw	a5,984(a5) # 200023d8 <xMinimumEverFreeBytesRemaining>
    406a:	00f77a63          	bgeu	a4,a5,407e <pvPortMalloc+0x236>
                    {
                        xMinimumEverFreeBytesRemaining = xFreeBytesRemaining;
    406e:	200027b7          	lui	a5,0x20002
    4072:	3d47a703          	lw	a4,980(a5) # 200023d4 <xFreeBytesRemaining>
    4076:	200027b7          	lui	a5,0x20002
    407a:	3ce7ac23          	sw	a4,984(a5) # 200023d8 <xMinimumEverFreeBytesRemaining>
                    else
                    {
                        mtCOVERAGE_TEST_MARKER();
                    }

                    xAllocatedBlockSize = pxBlock->xBlockSize;
    407e:	fec42783          	lw	a5,-20(s0)
    4082:	43dc                	lw	a5,4(a5)
    4084:	fef42023          	sw	a5,-32(s0)

                    /* The block is being returned - it is allocated and owned
                     * by the application and has no "next" block. */
                    heapALLOCATE_BLOCK( pxBlock );
    4088:	fec42783          	lw	a5,-20(s0)
    408c:	43d8                	lw	a4,4(a5)
    408e:	800007b7          	lui	a5,0x80000
    4092:	8f5d                	or	a4,a4,a5
    4094:	fec42783          	lw	a5,-20(s0)
    4098:	c3d8                	sw	a4,4(a5)
                    pxBlock->pxNextFreeBlock = heapPROTECT_BLOCK_POINTER( NULL );
    409a:	fec42783          	lw	a5,-20(s0)
    409e:	0007a023          	sw	zero,0(a5) # 80000000 <__freertos_irq_stack_top+0x5fff8000>
                    xNumberOfSuccessfulAllocations++;
    40a2:	200027b7          	lui	a5,0x20002
    40a6:	3dc7a783          	lw	a5,988(a5) # 200023dc <xNumberOfSuccessfulAllocations>
    40aa:	00178713          	addi	a4,a5,1
    40ae:	200027b7          	lui	a5,0x20002
    40b2:	3ce7ae23          	sw	a4,988(a5) # 200023dc <xNumberOfSuccessfulAllocations>
        traceMALLOC( pvReturn, xAllocatedBlockSize );

        /* Prevent compiler warnings when trace macros are not used. */
        ( void ) xAllocatedBlockSize;
    }
    ( void ) xTaskResumeAll();
    40b6:	dc2fd0ef          	jal	1678 <xTaskResumeAll>
            mtCOVERAGE_TEST_MARKER();
        }
    }
    #endif /* if ( configUSE_MALLOC_FAILED_HOOK == 1 ) */

    configASSERT( ( ( ( size_t ) pvReturn ) & ( size_t ) portBYTE_ALIGNMENT_MASK ) == 0 );
    40ba:	fe442783          	lw	a5,-28(s0)
    40be:	8bbd                	andi	a5,a5,15
    40c0:	c781                	beqz	a5,40c8 <pvPortMalloc+0x280>
    40c2:	30047073          	csrci	mstatus,8
    40c6:	a001                	j	40c6 <pvPortMalloc+0x27e>
    return pvReturn;
    40c8:	fe442783          	lw	a5,-28(s0)
}
    40cc:	853e                	mv	a0,a5
    40ce:	50f2                	lw	ra,60(sp)
    40d0:	5462                	lw	s0,56(sp)
    40d2:	6121                	addi	sp,sp,64
    40d4:	8082                	ret

000040d6 <vPortFree>:
/*-----------------------------------------------------------*/

void vPortFree( void * pv )
{
    40d6:	7179                	addi	sp,sp,-48
    40d8:	d606                	sw	ra,44(sp)
    40da:	d422                	sw	s0,40(sp)
    40dc:	1800                	addi	s0,sp,48
    40de:	fca42e23          	sw	a0,-36(s0)
    uint8_t * puc = ( uint8_t * ) pv;
    40e2:	fdc42783          	lw	a5,-36(s0)
    40e6:	fef42623          	sw	a5,-20(s0)
    BlockLink_t * pxLink;

    if( pv != NULL )
    40ea:	fdc42783          	lw	a5,-36(s0)
    40ee:	cfdd                	beqz	a5,41ac <vPortFree+0xd6>
    {
        /* The memory being freed will have an BlockLink_t structure immediately
         * before it. */
        puc -= xHeapStructSize;
    40f0:	47c1                	li	a5,16
    40f2:	40f007b3          	neg	a5,a5
    40f6:	fec42703          	lw	a4,-20(s0)
    40fa:	97ba                	add	a5,a5,a4
    40fc:	fef42623          	sw	a5,-20(s0)

        /* This casting is to keep the compiler from issuing warnings. */
        pxLink = ( void * ) puc;
    4100:	fec42783          	lw	a5,-20(s0)
    4104:	fef42423          	sw	a5,-24(s0)

        heapVALIDATE_BLOCK_POINTER( pxLink );
    4108:	fe842703          	lw	a4,-24(s0)
    410c:	200007b7          	lui	a5,0x20000
    4110:	3c878793          	addi	a5,a5,968 # 200003c8 <ucHeap>
    4114:	00f76a63          	bltu	a4,a5,4128 <vPortFree+0x52>
    4118:	fe842703          	lw	a4,-24(s0)
    411c:	200027b7          	lui	a5,0x20002
    4120:	3c778793          	addi	a5,a5,967 # 200023c7 <__global_pointer$+0x1b6f>
    4124:	00e7f563          	bgeu	a5,a4,412e <vPortFree+0x58>
    4128:	30047073          	csrci	mstatus,8
    412c:	a001                	j	412c <vPortFree+0x56>
        configASSERT( heapBLOCK_IS_ALLOCATED( pxLink ) != 0 );
    412e:	fe842783          	lw	a5,-24(s0)
    4132:	43dc                	lw	a5,4(a5)
    4134:	0007c563          	bltz	a5,413e <vPortFree+0x68>
    4138:	30047073          	csrci	mstatus,8
    413c:	a001                	j	413c <vPortFree+0x66>
        configASSERT( pxLink->pxNextFreeBlock == heapPROTECT_BLOCK_POINTER( NULL ) );
    413e:	fe842783          	lw	a5,-24(s0)
    4142:	439c                	lw	a5,0(a5)
    4144:	c781                	beqz	a5,414c <vPortFree+0x76>
    4146:	30047073          	csrci	mstatus,8
    414a:	a001                	j	414a <vPortFree+0x74>

        if( heapBLOCK_IS_ALLOCATED( pxLink ) != 0 )
    414c:	fe842783          	lw	a5,-24(s0)
    4150:	43dc                	lw	a5,4(a5)
    4152:	0407dd63          	bgez	a5,41ac <vPortFree+0xd6>
        {
            if( pxLink->pxNextFreeBlock == heapPROTECT_BLOCK_POINTER( NULL ) )
    4156:	fe842783          	lw	a5,-24(s0)
    415a:	439c                	lw	a5,0(a5)
    415c:	eba1                	bnez	a5,41ac <vPortFree+0xd6>
            {
                /* The block is being returned to the heap - it is no longer
                 * allocated. */
                heapFREE_BLOCK( pxLink );
    415e:	fe842783          	lw	a5,-24(s0)
    4162:	43d8                	lw	a4,4(a5)
    4164:	800007b7          	lui	a5,0x80000
    4168:	17fd                	addi	a5,a5,-1 # 7fffffff <__freertos_irq_stack_top+0x5fff7fff>
    416a:	8f7d                	and	a4,a4,a5
    416c:	fe842783          	lw	a5,-24(s0)
    4170:	c3d8                	sw	a4,4(a5)
                        ( void ) memset( puc + xHeapStructSize, 0, pxLink->xBlockSize - xHeapStructSize );
                    }
                }
                #endif

                vTaskSuspendAll();
    4172:	ce8fd0ef          	jal	165a <vTaskSuspendAll>
                {
                    /* Add this block to the list of free blocks. */
                    xFreeBytesRemaining += pxLink->xBlockSize;
    4176:	fe842783          	lw	a5,-24(s0)
    417a:	43d8                	lw	a4,4(a5)
    417c:	200027b7          	lui	a5,0x20002
    4180:	3d47a783          	lw	a5,980(a5) # 200023d4 <xFreeBytesRemaining>
    4184:	973e                	add	a4,a4,a5
    4186:	200027b7          	lui	a5,0x20002
    418a:	3ce7aa23          	sw	a4,980(a5) # 200023d4 <xFreeBytesRemaining>
                    traceFREE( pv, pxLink->xBlockSize );
                    prvInsertBlockIntoFreeList( ( ( BlockLink_t * ) pxLink ) );
    418e:	fe842503          	lw	a0,-24(s0)
    4192:	2afd                	jal	4390 <prvInsertBlockIntoFreeList>
                    xNumberOfSuccessfulFrees++;
    4194:	200027b7          	lui	a5,0x20002
    4198:	3e07a783          	lw	a5,992(a5) # 200023e0 <xNumberOfSuccessfulFrees>
    419c:	00178713          	addi	a4,a5,1
    41a0:	200027b7          	lui	a5,0x20002
    41a4:	3ee7a023          	sw	a4,992(a5) # 200023e0 <xNumberOfSuccessfulFrees>
                }
                ( void ) xTaskResumeAll();
    41a8:	cd0fd0ef          	jal	1678 <xTaskResumeAll>
        else
        {
            mtCOVERAGE_TEST_MARKER();
        }
    }
}
    41ac:	0001                	nop
    41ae:	50b2                	lw	ra,44(sp)
    41b0:	5422                	lw	s0,40(sp)
    41b2:	6145                	addi	sp,sp,48
    41b4:	8082                	ret

000041b6 <xPortGetFreeHeapSize>:
/*-----------------------------------------------------------*/

size_t xPortGetFreeHeapSize( void )
{
    41b6:	1141                	addi	sp,sp,-16
    41b8:	c606                	sw	ra,12(sp)
    41ba:	c422                	sw	s0,8(sp)
    41bc:	0800                	addi	s0,sp,16
    return xFreeBytesRemaining;
    41be:	200027b7          	lui	a5,0x20002
    41c2:	3d47a783          	lw	a5,980(a5) # 200023d4 <xFreeBytesRemaining>
}
    41c6:	853e                	mv	a0,a5
    41c8:	40b2                	lw	ra,12(sp)
    41ca:	4422                	lw	s0,8(sp)
    41cc:	0141                	addi	sp,sp,16
    41ce:	8082                	ret

000041d0 <xPortGetMinimumEverFreeHeapSize>:
/*-----------------------------------------------------------*/

size_t xPortGetMinimumEverFreeHeapSize( void )
{
    41d0:	1141                	addi	sp,sp,-16
    41d2:	c606                	sw	ra,12(sp)
    41d4:	c422                	sw	s0,8(sp)
    41d6:	0800                	addi	s0,sp,16
    return xMinimumEverFreeBytesRemaining;
    41d8:	200027b7          	lui	a5,0x20002
    41dc:	3d87a783          	lw	a5,984(a5) # 200023d8 <xMinimumEverFreeBytesRemaining>
}
    41e0:	853e                	mv	a0,a5
    41e2:	40b2                	lw	ra,12(sp)
    41e4:	4422                	lw	s0,8(sp)
    41e6:	0141                	addi	sp,sp,16
    41e8:	8082                	ret

000041ea <xPortResetHeapMinimumEverFreeHeapSize>:
/*-----------------------------------------------------------*/

void xPortResetHeapMinimumEverFreeHeapSize( void )
{
    41ea:	1141                	addi	sp,sp,-16
    41ec:	c606                	sw	ra,12(sp)
    41ee:	c422                	sw	s0,8(sp)
    41f0:	0800                	addi	s0,sp,16
    xMinimumEverFreeBytesRemaining = xFreeBytesRemaining;
    41f2:	200027b7          	lui	a5,0x20002
    41f6:	3d47a703          	lw	a4,980(a5) # 200023d4 <xFreeBytesRemaining>
    41fa:	200027b7          	lui	a5,0x20002
    41fe:	3ce7ac23          	sw	a4,984(a5) # 200023d8 <xMinimumEverFreeBytesRemaining>
}
    4202:	0001                	nop
    4204:	40b2                	lw	ra,12(sp)
    4206:	4422                	lw	s0,8(sp)
    4208:	0141                	addi	sp,sp,16
    420a:	8082                	ret

0000420c <vPortInitialiseBlocks>:
/*-----------------------------------------------------------*/

void vPortInitialiseBlocks( void )
{
    420c:	1141                	addi	sp,sp,-16
    420e:	c606                	sw	ra,12(sp)
    4210:	c422                	sw	s0,8(sp)
    4212:	0800                	addi	s0,sp,16
    /* This just exists to keep the linker quiet. */
}
    4214:	0001                	nop
    4216:	40b2                	lw	ra,12(sp)
    4218:	4422                	lw	s0,8(sp)
    421a:	0141                	addi	sp,sp,16
    421c:	8082                	ret

0000421e <pvPortCalloc>:
/*-----------------------------------------------------------*/

void * pvPortCalloc( size_t xNum,
                     size_t xSize )
{
    421e:	7179                	addi	sp,sp,-48
    4220:	d606                	sw	ra,44(sp)
    4222:	d422                	sw	s0,40(sp)
    4224:	1800                	addi	s0,sp,48
    4226:	fca42e23          	sw	a0,-36(s0)
    422a:	fcb42c23          	sw	a1,-40(s0)
    void * pv = NULL;
    422e:	fe042623          	sw	zero,-20(s0)

    if( heapMULTIPLY_WILL_OVERFLOW( xNum, xSize ) == 0 )
    4232:	fdc42783          	lw	a5,-36(s0)
    4236:	cf81                	beqz	a5,424e <pvPortCalloc+0x30>
    4238:	577d                	li	a4,-1
    423a:	fdc42783          	lw	a5,-36(s0)
    423e:	02f757b3          	divu	a5,a4,a5
    4242:	fd842703          	lw	a4,-40(s0)
    4246:	00e7f463          	bgeu	a5,a4,424e <pvPortCalloc+0x30>
    424a:	4785                	li	a5,1
    424c:	a011                	j	4250 <pvPortCalloc+0x32>
    424e:	4781                	li	a5,0
    4250:	eb95                	bnez	a5,4284 <pvPortCalloc+0x66>
    {
        pv = pvPortMalloc( xNum * xSize );
    4252:	fdc42703          	lw	a4,-36(s0)
    4256:	fd842783          	lw	a5,-40(s0)
    425a:	02f707b3          	mul	a5,a4,a5
    425e:	853e                	mv	a0,a5
    4260:	36e5                	jal	3e48 <pvPortMalloc>
    4262:	fea42623          	sw	a0,-20(s0)

        if( pv != NULL )
    4266:	fec42783          	lw	a5,-20(s0)
    426a:	cf89                	beqz	a5,4284 <pvPortCalloc+0x66>
        {
            ( void ) memset( pv, 0, xNum * xSize );
    426c:	fdc42703          	lw	a4,-36(s0)
    4270:	fd842783          	lw	a5,-40(s0)
    4274:	02f707b3          	mul	a5,a4,a5
    4278:	863e                	mv	a2,a5
    427a:	4581                	li	a1,0
    427c:	fec42503          	lw	a0,-20(s0)
    4280:	5e5020ef          	jal	7064 <memset>
        }
    }

    return pv;
    4284:	fec42783          	lw	a5,-20(s0)
}
    4288:	853e                	mv	a0,a5
    428a:	50b2                	lw	ra,44(sp)
    428c:	5422                	lw	s0,40(sp)
    428e:	6145                	addi	sp,sp,48
    4290:	8082                	ret

00004292 <prvHeapInit>:
/*-----------------------------------------------------------*/

static void prvHeapInit( void ) /* PRIVILEGED_FUNCTION */
{
    4292:	1101                	addi	sp,sp,-32
    4294:	ce06                	sw	ra,28(sp)
    4296:	cc22                	sw	s0,24(sp)
    4298:	1000                	addi	s0,sp,32
    BlockLink_t * pxFirstFreeBlock;
    portPOINTER_SIZE_TYPE uxStartAddress, uxEndAddress;
    size_t xTotalHeapSize = configTOTAL_HEAP_SIZE;
    429a:	6789                	lui	a5,0x2
    429c:	fef42423          	sw	a5,-24(s0)

    /* Ensure the heap starts on a correctly aligned boundary. */
    uxStartAddress = ( portPOINTER_SIZE_TYPE ) ucHeap;
    42a0:	200007b7          	lui	a5,0x20000
    42a4:	3c878793          	addi	a5,a5,968 # 200003c8 <ucHeap>
    42a8:	fef42623          	sw	a5,-20(s0)

    if( ( uxStartAddress & portBYTE_ALIGNMENT_MASK ) != 0 )
    42ac:	fec42783          	lw	a5,-20(s0)
    42b0:	8bbd                	andi	a5,a5,15
    42b2:	c79d                	beqz	a5,42e0 <prvHeapInit+0x4e>
    {
        uxStartAddress += ( portBYTE_ALIGNMENT - 1 );
    42b4:	fec42783          	lw	a5,-20(s0)
    42b8:	07bd                	addi	a5,a5,15
    42ba:	fef42623          	sw	a5,-20(s0)
        uxStartAddress &= ~( ( portPOINTER_SIZE_TYPE ) portBYTE_ALIGNMENT_MASK );
    42be:	fec42783          	lw	a5,-20(s0)
    42c2:	9bc1                	andi	a5,a5,-16
    42c4:	fef42623          	sw	a5,-20(s0)
        xTotalHeapSize -= ( size_t ) ( uxStartAddress - ( portPOINTER_SIZE_TYPE ) ucHeap );
    42c8:	fe842703          	lw	a4,-24(s0)
    42cc:	fec42783          	lw	a5,-20(s0)
    42d0:	8f1d                	sub	a4,a4,a5
    42d2:	200007b7          	lui	a5,0x20000
    42d6:	3c878793          	addi	a5,a5,968 # 200003c8 <ucHeap>
    42da:	97ba                	add	a5,a5,a4
    42dc:	fef42423          	sw	a5,-24(s0)
    }
    #endif

    /* xStart is used to hold a pointer to the first item in the list of free
     * blocks.  The void cast is used to prevent compiler warnings. */
    xStart.pxNextFreeBlock = ( void * ) heapPROTECT_BLOCK_POINTER( uxStartAddress );
    42e0:	fec42703          	lw	a4,-20(s0)
    42e4:	200027b7          	lui	a5,0x20002
    42e8:	3c878793          	addi	a5,a5,968 # 200023c8 <xStart>
    42ec:	c398                	sw	a4,0(a5)
    xStart.xBlockSize = ( size_t ) 0;
    42ee:	200027b7          	lui	a5,0x20002
    42f2:	3c878793          	addi	a5,a5,968 # 200023c8 <xStart>
    42f6:	0007a223          	sw	zero,4(a5)

    /* pxEnd is used to mark the end of the list of free blocks and is inserted
     * at the end of the heap space. */
    uxEndAddress = uxStartAddress + ( portPOINTER_SIZE_TYPE ) xTotalHeapSize;
    42fa:	fec42703          	lw	a4,-20(s0)
    42fe:	fe842783          	lw	a5,-24(s0)
    4302:	97ba                	add	a5,a5,a4
    4304:	fef42223          	sw	a5,-28(s0)
    uxEndAddress -= ( portPOINTER_SIZE_TYPE ) xHeapStructSize;
    4308:	47c1                	li	a5,16
    430a:	fe442703          	lw	a4,-28(s0)
    430e:	40f707b3          	sub	a5,a4,a5
    4312:	fef42223          	sw	a5,-28(s0)
    uxEndAddress &= ~( ( portPOINTER_SIZE_TYPE ) portBYTE_ALIGNMENT_MASK );
    4316:	fe442783          	lw	a5,-28(s0)
    431a:	9bc1                	andi	a5,a5,-16
    431c:	fef42223          	sw	a5,-28(s0)
    pxEnd = ( BlockLink_t * ) uxEndAddress;
    4320:	fe442703          	lw	a4,-28(s0)
    4324:	200027b7          	lui	a5,0x20002
    4328:	3ce7a823          	sw	a4,976(a5) # 200023d0 <pxEnd>
    pxEnd->xBlockSize = 0;
    432c:	200027b7          	lui	a5,0x20002
    4330:	3d07a783          	lw	a5,976(a5) # 200023d0 <pxEnd>
    4334:	0007a223          	sw	zero,4(a5)
    pxEnd->pxNextFreeBlock = heapPROTECT_BLOCK_POINTER( NULL );
    4338:	200027b7          	lui	a5,0x20002
    433c:	3d07a783          	lw	a5,976(a5) # 200023d0 <pxEnd>
    4340:	0007a023          	sw	zero,0(a5)

    /* To start with there is a single free block that is sized to take up the
     * entire heap space, minus the space taken by pxEnd. */
    pxFirstFreeBlock = ( BlockLink_t * ) uxStartAddress;
    4344:	fec42783          	lw	a5,-20(s0)
    4348:	fef42023          	sw	a5,-32(s0)
    pxFirstFreeBlock->xBlockSize = ( size_t ) ( uxEndAddress - ( portPOINTER_SIZE_TYPE ) pxFirstFreeBlock );
    434c:	fe042783          	lw	a5,-32(s0)
    4350:	fe442703          	lw	a4,-28(s0)
    4354:	8f1d                	sub	a4,a4,a5
    4356:	fe042783          	lw	a5,-32(s0)
    435a:	c3d8                	sw	a4,4(a5)
    pxFirstFreeBlock->pxNextFreeBlock = heapPROTECT_BLOCK_POINTER( pxEnd );
    435c:	200027b7          	lui	a5,0x20002
    4360:	3d07a703          	lw	a4,976(a5) # 200023d0 <pxEnd>
    4364:	fe042783          	lw	a5,-32(s0)
    4368:	c398                	sw	a4,0(a5)

    /* Only one block exists - and it covers the entire usable heap space. */
    xMinimumEverFreeBytesRemaining = pxFirstFreeBlock->xBlockSize;
    436a:	fe042783          	lw	a5,-32(s0)
    436e:	43d8                	lw	a4,4(a5)
    4370:	200027b7          	lui	a5,0x20002
    4374:	3ce7ac23          	sw	a4,984(a5) # 200023d8 <xMinimumEverFreeBytesRemaining>
    xFreeBytesRemaining = pxFirstFreeBlock->xBlockSize;
    4378:	fe042783          	lw	a5,-32(s0)
    437c:	43d8                	lw	a4,4(a5)
    437e:	200027b7          	lui	a5,0x20002
    4382:	3ce7aa23          	sw	a4,980(a5) # 200023d4 <xFreeBytesRemaining>
}
    4386:	0001                	nop
    4388:	40f2                	lw	ra,28(sp)
    438a:	4462                	lw	s0,24(sp)
    438c:	6105                	addi	sp,sp,32
    438e:	8082                	ret

00004390 <prvInsertBlockIntoFreeList>:
/*-----------------------------------------------------------*/

static void prvInsertBlockIntoFreeList( BlockLink_t * pxBlockToInsert ) /* PRIVILEGED_FUNCTION */
{
    4390:	7179                	addi	sp,sp,-48
    4392:	d606                	sw	ra,44(sp)
    4394:	d422                	sw	s0,40(sp)
    4396:	1800                	addi	s0,sp,48
    4398:	fca42e23          	sw	a0,-36(s0)
    BlockLink_t * pxIterator;
    uint8_t * puc;

    /* Iterate through the list until a block is found that has a higher address
     * than the block being inserted. */
    for( pxIterator = &xStart; heapPROTECT_BLOCK_POINTER( pxIterator->pxNextFreeBlock ) < pxBlockToInsert; pxIterator = heapPROTECT_BLOCK_POINTER( pxIterator->pxNextFreeBlock ) )
    439c:	200027b7          	lui	a5,0x20002
    43a0:	3c878793          	addi	a5,a5,968 # 200023c8 <xStart>
    43a4:	fef42623          	sw	a5,-20(s0)
    43a8:	a031                	j	43b4 <prvInsertBlockIntoFreeList+0x24>
    43aa:	fec42783          	lw	a5,-20(s0)
    43ae:	439c                	lw	a5,0(a5)
    43b0:	fef42623          	sw	a5,-20(s0)
    43b4:	fec42783          	lw	a5,-20(s0)
    43b8:	439c                	lw	a5,0(a5)
    43ba:	fdc42703          	lw	a4,-36(s0)
    43be:	fee7e6e3          	bltu	a5,a4,43aa <prvInsertBlockIntoFreeList+0x1a>
    {
        /* Nothing to do here, just iterate to the right position. */
    }

    if( pxIterator != &xStart )
    43c2:	fec42703          	lw	a4,-20(s0)
    43c6:	200027b7          	lui	a5,0x20002
    43ca:	3c878793          	addi	a5,a5,968 # 200023c8 <xStart>
    43ce:	02f70563          	beq	a4,a5,43f8 <prvInsertBlockIntoFreeList+0x68>
    {
        heapVALIDATE_BLOCK_POINTER( pxIterator );
    43d2:	fec42703          	lw	a4,-20(s0)
    43d6:	200007b7          	lui	a5,0x20000
    43da:	3c878793          	addi	a5,a5,968 # 200003c8 <ucHeap>
    43de:	00f76a63          	bltu	a4,a5,43f2 <prvInsertBlockIntoFreeList+0x62>
    43e2:	fec42703          	lw	a4,-20(s0)
    43e6:	200027b7          	lui	a5,0x20002
    43ea:	3c778793          	addi	a5,a5,967 # 200023c7 <__global_pointer$+0x1b6f>
    43ee:	00e7f563          	bgeu	a5,a4,43f8 <prvInsertBlockIntoFreeList+0x68>
    43f2:	30047073          	csrci	mstatus,8
    43f6:	a001                	j	43f6 <prvInsertBlockIntoFreeList+0x66>
    }

    /* Do the block being inserted, and the block it is being inserted after
     * make a contiguous block of memory? */
    puc = ( uint8_t * ) pxIterator;
    43f8:	fec42783          	lw	a5,-20(s0)
    43fc:	fef42423          	sw	a5,-24(s0)

    if( ( puc + pxIterator->xBlockSize ) == ( uint8_t * ) pxBlockToInsert )
    4400:	fec42783          	lw	a5,-20(s0)
    4404:	43dc                	lw	a5,4(a5)
    4406:	fe842703          	lw	a4,-24(s0)
    440a:	97ba                	add	a5,a5,a4
    440c:	fdc42703          	lw	a4,-36(s0)
    4410:	02f71063          	bne	a4,a5,4430 <prvInsertBlockIntoFreeList+0xa0>
    {
        pxIterator->xBlockSize += pxBlockToInsert->xBlockSize;
    4414:	fec42783          	lw	a5,-20(s0)
    4418:	43d8                	lw	a4,4(a5)
    441a:	fdc42783          	lw	a5,-36(s0)
    441e:	43dc                	lw	a5,4(a5)
    4420:	973e                	add	a4,a4,a5
    4422:	fec42783          	lw	a5,-20(s0)
    4426:	c3d8                	sw	a4,4(a5)
        pxBlockToInsert = pxIterator;
    4428:	fec42783          	lw	a5,-20(s0)
    442c:	fcf42e23          	sw	a5,-36(s0)
        mtCOVERAGE_TEST_MARKER();
    }

    /* Do the block being inserted, and the block it is being inserted before
     * make a contiguous block of memory? */
    puc = ( uint8_t * ) pxBlockToInsert;
    4430:	fdc42783          	lw	a5,-36(s0)
    4434:	fef42423          	sw	a5,-24(s0)

    if( ( puc + pxBlockToInsert->xBlockSize ) == ( uint8_t * ) heapPROTECT_BLOCK_POINTER( pxIterator->pxNextFreeBlock ) )
    4438:	fdc42783          	lw	a5,-36(s0)
    443c:	43dc                	lw	a5,4(a5)
    443e:	fe842703          	lw	a4,-24(s0)
    4442:	973e                	add	a4,a4,a5
    4444:	fec42783          	lw	a5,-20(s0)
    4448:	439c                	lw	a5,0(a5)
    444a:	04f71663          	bne	a4,a5,4496 <prvInsertBlockIntoFreeList+0x106>
    {
        if( heapPROTECT_BLOCK_POINTER( pxIterator->pxNextFreeBlock ) != pxEnd )
    444e:	fec42783          	lw	a5,-20(s0)
    4452:	4398                	lw	a4,0(a5)
    4454:	200027b7          	lui	a5,0x20002
    4458:	3d07a783          	lw	a5,976(a5) # 200023d0 <pxEnd>
    445c:	02f70563          	beq	a4,a5,4486 <prvInsertBlockIntoFreeList+0xf6>
        {
            /* Form one big block from the two blocks. */
            pxBlockToInsert->xBlockSize += heapPROTECT_BLOCK_POINTER( pxIterator->pxNextFreeBlock )->xBlockSize;
    4460:	fdc42783          	lw	a5,-36(s0)
    4464:	43d8                	lw	a4,4(a5)
    4466:	fec42783          	lw	a5,-20(s0)
    446a:	439c                	lw	a5,0(a5)
    446c:	43dc                	lw	a5,4(a5)
    446e:	973e                	add	a4,a4,a5
    4470:	fdc42783          	lw	a5,-36(s0)
    4474:	c3d8                	sw	a4,4(a5)
            pxBlockToInsert->pxNextFreeBlock = heapPROTECT_BLOCK_POINTER( pxIterator->pxNextFreeBlock )->pxNextFreeBlock;
    4476:	fec42783          	lw	a5,-20(s0)
    447a:	439c                	lw	a5,0(a5)
    447c:	4398                	lw	a4,0(a5)
    447e:	fdc42783          	lw	a5,-36(s0)
    4482:	c398                	sw	a4,0(a5)
    4484:	a839                	j	44a2 <prvInsertBlockIntoFreeList+0x112>
        }
        else
        {
            pxBlockToInsert->pxNextFreeBlock = heapPROTECT_BLOCK_POINTER( pxEnd );
    4486:	200027b7          	lui	a5,0x20002
    448a:	3d07a703          	lw	a4,976(a5) # 200023d0 <pxEnd>
    448e:	fdc42783          	lw	a5,-36(s0)
    4492:	c398                	sw	a4,0(a5)
    4494:	a039                	j	44a2 <prvInsertBlockIntoFreeList+0x112>
        }
    }
    else
    {
        pxBlockToInsert->pxNextFreeBlock = pxIterator->pxNextFreeBlock;
    4496:	fec42783          	lw	a5,-20(s0)
    449a:	4398                	lw	a4,0(a5)
    449c:	fdc42783          	lw	a5,-36(s0)
    44a0:	c398                	sw	a4,0(a5)

    /* If the block being inserted plugged a gap, so was merged with the block
     * before and the block after, then it's pxNextFreeBlock pointer will have
     * already been set, and should not be set here as that would make it point
     * to itself. */
    if( pxIterator != pxBlockToInsert )
    44a2:	fec42703          	lw	a4,-20(s0)
    44a6:	fdc42783          	lw	a5,-36(s0)
    44aa:	00f70763          	beq	a4,a5,44b8 <prvInsertBlockIntoFreeList+0x128>
    {
        pxIterator->pxNextFreeBlock = heapPROTECT_BLOCK_POINTER( pxBlockToInsert );
    44ae:	fec42783          	lw	a5,-20(s0)
    44b2:	fdc42703          	lw	a4,-36(s0)
    44b6:	c398                	sw	a4,0(a5)
    }
    else
    {
        mtCOVERAGE_TEST_MARKER();
    }
}
    44b8:	0001                	nop
    44ba:	50b2                	lw	ra,44(sp)
    44bc:	5422                	lw	s0,40(sp)
    44be:	6145                	addi	sp,sp,48
    44c0:	8082                	ret

000044c2 <vPortGetHeapStats>:
/*-----------------------------------------------------------*/

void vPortGetHeapStats( HeapStats_t * pxHeapStats )
{
    44c2:	7179                	addi	sp,sp,-48
    44c4:	d606                	sw	ra,44(sp)
    44c6:	d422                	sw	s0,40(sp)
    44c8:	1800                	addi	s0,sp,48
    44ca:	fca42e23          	sw	a0,-36(s0)
    BlockLink_t * pxBlock;
    size_t xBlocks = 0, xMaxSize = 0, xMinSize = SIZE_MAX;
    44ce:	fe042423          	sw	zero,-24(s0)
    44d2:	fe042223          	sw	zero,-28(s0)
    44d6:	57fd                	li	a5,-1
    44d8:	fef42023          	sw	a5,-32(s0)

    vTaskSuspendAll();
    44dc:	97efd0ef          	jal	165a <vTaskSuspendAll>
    {
        pxBlock = heapPROTECT_BLOCK_POINTER( xStart.pxNextFreeBlock );
    44e0:	200027b7          	lui	a5,0x20002
    44e4:	3c878793          	addi	a5,a5,968 # 200023c8 <xStart>
    44e8:	439c                	lw	a5,0(a5)
    44ea:	fef42623          	sw	a5,-20(s0)

        /* pxBlock will be NULL if the heap has not been initialised.  The heap
         * is initialised automatically when the first allocation is made. */
        if( pxBlock != NULL )
    44ee:	fec42783          	lw	a5,-20(s0)
    44f2:	cfa1                	beqz	a5,454a <vPortGetHeapStats+0x88>
        {
            while( pxBlock != pxEnd )
    44f4:	a099                	j	453a <vPortGetHeapStats+0x78>
            {
                /* Increment the number of blocks and record the largest block seen
                 * so far. */
                xBlocks++;
    44f6:	fe842783          	lw	a5,-24(s0)
    44fa:	0785                	addi	a5,a5,1
    44fc:	fef42423          	sw	a5,-24(s0)

                if( pxBlock->xBlockSize > xMaxSize )
    4500:	fec42783          	lw	a5,-20(s0)
    4504:	43dc                	lw	a5,4(a5)
    4506:	fe442703          	lw	a4,-28(s0)
    450a:	00f77763          	bgeu	a4,a5,4518 <vPortGetHeapStats+0x56>
                {
                    xMaxSize = pxBlock->xBlockSize;
    450e:	fec42783          	lw	a5,-20(s0)
    4512:	43dc                	lw	a5,4(a5)
    4514:	fef42223          	sw	a5,-28(s0)
                }

                if( pxBlock->xBlockSize < xMinSize )
    4518:	fec42783          	lw	a5,-20(s0)
    451c:	43dc                	lw	a5,4(a5)
    451e:	fe042703          	lw	a4,-32(s0)
    4522:	00e7f763          	bgeu	a5,a4,4530 <vPortGetHeapStats+0x6e>
                {
                    xMinSize = pxBlock->xBlockSize;
    4526:	fec42783          	lw	a5,-20(s0)
    452a:	43dc                	lw	a5,4(a5)
    452c:	fef42023          	sw	a5,-32(s0)
                }

                /* Move to the next block in the chain until the last block is
                 * reached. */
                pxBlock = heapPROTECT_BLOCK_POINTER( pxBlock->pxNextFreeBlock );
    4530:	fec42783          	lw	a5,-20(s0)
    4534:	439c                	lw	a5,0(a5)
    4536:	fef42623          	sw	a5,-20(s0)
            while( pxBlock != pxEnd )
    453a:	200027b7          	lui	a5,0x20002
    453e:	3d07a783          	lw	a5,976(a5) # 200023d0 <pxEnd>
    4542:	fec42703          	lw	a4,-20(s0)
    4546:	faf718e3          	bne	a4,a5,44f6 <vPortGetHeapStats+0x34>
            }
        }
    }
    ( void ) xTaskResumeAll();
    454a:	92efd0ef          	jal	1678 <xTaskResumeAll>

    pxHeapStats->xSizeOfLargestFreeBlockInBytes = xMaxSize;
    454e:	fdc42783          	lw	a5,-36(s0)
    4552:	fe442703          	lw	a4,-28(s0)
    4556:	c3d8                	sw	a4,4(a5)
    pxHeapStats->xSizeOfSmallestFreeBlockInBytes = xMinSize;
    4558:	fdc42783          	lw	a5,-36(s0)
    455c:	fe042703          	lw	a4,-32(s0)
    4560:	c798                	sw	a4,8(a5)
    pxHeapStats->xNumberOfFreeBlocks = xBlocks;
    4562:	fdc42783          	lw	a5,-36(s0)
    4566:	fe842703          	lw	a4,-24(s0)
    456a:	c7d8                	sw	a4,12(a5)

    taskENTER_CRITICAL();
    456c:	30047073          	csrci	mstatus,8
    4570:	8081a783          	lw	a5,-2040(gp) # 20000060 <xCriticalNesting>
    4574:	00178713          	addi	a4,a5,1
    4578:	80e1a423          	sw	a4,-2040(gp) # 20000060 <xCriticalNesting>
    {
        pxHeapStats->xAvailableHeapSpaceInBytes = xFreeBytesRemaining;
    457c:	200027b7          	lui	a5,0x20002
    4580:	3d47a703          	lw	a4,980(a5) # 200023d4 <xFreeBytesRemaining>
    4584:	fdc42783          	lw	a5,-36(s0)
    4588:	c398                	sw	a4,0(a5)
        pxHeapStats->xNumberOfSuccessfulAllocations = xNumberOfSuccessfulAllocations;
    458a:	200027b7          	lui	a5,0x20002
    458e:	3dc7a703          	lw	a4,988(a5) # 200023dc <xNumberOfSuccessfulAllocations>
    4592:	fdc42783          	lw	a5,-36(s0)
    4596:	cbd8                	sw	a4,20(a5)
        pxHeapStats->xNumberOfSuccessfulFrees = xNumberOfSuccessfulFrees;
    4598:	200027b7          	lui	a5,0x20002
    459c:	3e07a703          	lw	a4,992(a5) # 200023e0 <xNumberOfSuccessfulFrees>
    45a0:	fdc42783          	lw	a5,-36(s0)
    45a4:	cf98                	sw	a4,24(a5)
        pxHeapStats->xMinimumEverFreeBytesRemaining = xMinimumEverFreeBytesRemaining;
    45a6:	200027b7          	lui	a5,0x20002
    45aa:	3d87a703          	lw	a4,984(a5) # 200023d8 <xMinimumEverFreeBytesRemaining>
    45ae:	fdc42783          	lw	a5,-36(s0)
    45b2:	cb98                	sw	a4,16(a5)
    }
    taskEXIT_CRITICAL();
    45b4:	8081a783          	lw	a5,-2040(gp) # 20000060 <xCriticalNesting>
    45b8:	fff78713          	addi	a4,a5,-1
    45bc:	80e1a423          	sw	a4,-2040(gp) # 20000060 <xCriticalNesting>
    45c0:	8081a783          	lw	a5,-2040(gp) # 20000060 <xCriticalNesting>
    45c4:	e399                	bnez	a5,45ca <vPortGetHeapStats+0x108>
    45c6:	30046073          	csrsi	mstatus,8
}
    45ca:	0001                	nop
    45cc:	50b2                	lw	ra,44(sp)
    45ce:	5422                	lw	s0,40(sp)
    45d0:	6145                	addi	sp,sp,48
    45d2:	8082                	ret

000045d4 <vPortHeapResetState>:
 * Reset the state in this file. This state is normally initialized at start up.
 * This function must be called by the application before restarting the
 * scheduler.
 */
void vPortHeapResetState( void )
{
    45d4:	1141                	addi	sp,sp,-16
    45d6:	c606                	sw	ra,12(sp)
    45d8:	c422                	sw	s0,8(sp)
    45da:	0800                	addi	s0,sp,16
    pxEnd = NULL;
    45dc:	200027b7          	lui	a5,0x20002
    45e0:	3c07a823          	sw	zero,976(a5) # 200023d0 <pxEnd>

    xFreeBytesRemaining = ( size_t ) 0U;
    45e4:	200027b7          	lui	a5,0x20002
    45e8:	3c07aa23          	sw	zero,980(a5) # 200023d4 <xFreeBytesRemaining>
    xMinimumEverFreeBytesRemaining = ( size_t ) 0U;
    45ec:	200027b7          	lui	a5,0x20002
    45f0:	3c07ac23          	sw	zero,984(a5) # 200023d8 <xMinimumEverFreeBytesRemaining>
    xNumberOfSuccessfulAllocations = ( size_t ) 0U;
    45f4:	200027b7          	lui	a5,0x20002
    45f8:	3c07ae23          	sw	zero,988(a5) # 200023dc <xNumberOfSuccessfulAllocations>
    xNumberOfSuccessfulFrees = ( size_t ) 0U;
    45fc:	200027b7          	lui	a5,0x20002
    4600:	3e07a023          	sw	zero,992(a5) # 200023e0 <xNumberOfSuccessfulFrees>
}
    4604:	0001                	nop
    4606:	40b2                	lw	ra,12(sp)
    4608:	4422                	lw	s0,8(sp)
    460a:	0141                	addi	sp,sp,16
    460c:	8082                	ret

0000460e <xPortStartScheduler>:

#endif /* ( configMTIME_BASE_ADDRESS != 0 ) && ( configMTIME_BASE_ADDRESS != 0 ) */
/*-----------------------------------------------------------*/

BaseType_t xPortStartScheduler( void )
{
    460e:	1141                	addi	sp,sp,-16
    4610:	c606                	sw	ra,12(sp)
    4612:	c422                	sw	s0,8(sp)
    4614:	0800                	addi	s0,sp,16
    #if ( configASSERT_DEFINED == 1 )
    {
        /* Check alignment of the interrupt stack - which is the same as the
         * stack that was being used by main() prior to the scheduler being
         * started. */
        configASSERT( ( xISRStackTop & portBYTE_ALIGNMENT_MASK ) == 0 );
    4616:	81c1a783          	lw	a5,-2020(gp) # 20000074 <xISRStackTop>
    461a:	8bbd                	andi	a5,a5,15
    461c:	c781                	beqz	a5,4624 <xPortStartScheduler+0x16>
    461e:	30047073          	csrci	mstatus,8
    4622:	a001                	j	4622 <xPortStartScheduler+0x14>
    #endif /* configASSERT_DEFINED */

    /* If there is a CLINT then it is ok to use the default implementation
     * in this file, otherwise vPortSetupTimerInterrupt() must be implemented to
     * configure whichever clock is to be used to generate the tick interrupt. */
    vPortSetupTimerInterrupt();
    4624:	00000097          	auipc	ra,0x0
    4628:	000000e7          	jalr	zero # 0 <_sinit>
         * not present as with pulpino? */
        __asm volatile ( "csrs mie, %0" ::"r" ( 0x880 ) );
    }
    #endif /* ( configMTIME_BASE_ADDRESS != 0 ) && ( configMTIMECMP_BASE_ADDRESS != 0 ) */

    xPortStartFirstTask();
    462c:	28b1                	jal	4688 <xPortStartFirstTask>

    /* Should not get here as after calling xPortStartFirstTask() only tasks
     * should be executing. */
    return pdFAIL;
    462e:	4781                	li	a5,0
}
    4630:	853e                	mv	a0,a5
    4632:	40b2                	lw	ra,12(sp)
    4634:	4422                	lw	s0,8(sp)
    4636:	0141                	addi	sp,sp,16
    4638:	8082                	ret

0000463a <vPortEndScheduler>:
/*-----------------------------------------------------------*/

void vPortEndScheduler( void )
{
    463a:	1141                	addi	sp,sp,-16
    463c:	c606                	sw	ra,12(sp)
    463e:	c422                	sw	s0,8(sp)
    4640:	0800                	addi	s0,sp,16
    /* Not implemented. */
    for( ; ; )
    4642:	a001                	j	4642 <vPortEndScheduler+0x8>

00004644 <pxPortInitialiseStack>:
 * mstatus
 * [chip specific registers go here]
 * pxCode
 */
pxPortInitialiseStack:
    addi a0, a0, -portWORD_SIZE         /* Space for critical nesting count. */
    4644:	1571                	addi	a0,a0,-4
    store_x x0, 0(a0)                   /* Critical nesting count starts at 0 for every task. */
    4646:	00052023          	sw	zero,0(a0)

#ifdef __riscv_32e
    addi a0, a0, -(6 * portWORD_SIZE)   /* Space for registers x10-x15. */
#else
    addi a0, a0, -(22 * portWORD_SIZE)  /* Space for registers x10-x31. */
    464a:	fa850513          	addi	a0,a0,-88
#endif
    store_x a2, 0(a0)                   /* Task parameters (pvParameters parameter) goes into register x10/a0 on the stack. */
    464e:	c110                	sw	a2,0(a0)

    addi a0, a0, -(6 * portWORD_SIZE)   /* Space for registers x5-x9 + taskReturnAddress (register x1). */
    4650:	1521                	addi	a0,a0,-24
    load_x t0, xTaskReturnAddress
    4652:	83c1a283          	lw	t0,-1988(gp) # 20000094 <xTaskReturnAddress>
    store_x t0, 0(a0)                   /* Return address onto the stack. */
    4656:	00552023          	sw	t0,0(a0)

    csrr t0, mstatus                    /* Obtain current mstatus value. */
    465a:	300022f3          	csrr	t0,mstatus
    andi t0, t0, ~0x8                   /* Ensure interrupts are disabled when the stack is restored within an ISR.  Required when a task is created after the scheduler has been started, otherwise interrupts would be disabled anyway. */
    465e:	ff72f293          	andi	t0,t0,-9
    addi t1, x0, 0x188                  /* Generate the value 0x1880, which are the MPIE=1 and MPP=M_Mode in mstatus. */
    4662:	18800313          	li	t1,392
    slli t1, t1, 4
    4666:	0312                	slli	t1,t1,0x4
    or t0, t0, t1                       /* Set MPIE and MPP bits in mstatus value. */
    4668:	0062e2b3          	or	t0,t0,t1
    and t0, t0, t1
    li t1, MSTATUS_VS_CLEAN
    or t0, t0, t1
#endif

    addi a0, a0, -portWORD_SIZE
    466c:	1571                	addi	a0,a0,-4
    store_x t0, 0(a0)                   /* mstatus onto the stack. */
    466e:	00552023          	sw	t0,0(a0)

    addi t0, x0, portasmADDITIONAL_CONTEXT_SIZE /* The number of chip specific additional registers. */
    4672:	4281                	li	t0,0

00004674 <chip_specific_stack_frame>:
chip_specific_stack_frame:              /* First add any chip specific registers to the stack frame being created. */
    beq t0, x0, 1f                      /* No more chip specific registers to save. */
    4674:	00028763          	beqz	t0,4682 <chip_specific_stack_frame+0xe>
    addi a0, a0, -portWORD_SIZE         /* Make space for chip specific register. */
    4678:	1571                	addi	a0,a0,-4
    store_x x0, 0(a0)                   /* Give the chip specific register an initial value of zero. */
    467a:	00052023          	sw	zero,0(a0)
    addi t0, t0, -1                     /* Decrement the count of chip specific registers remaining. */
    467e:	12fd                	addi	t0,t0,-1
    j chip_specific_stack_frame         /* Until no more chip specific registers. */
    4680:	bfd5                	j	4674 <chip_specific_stack_frame>
1:

    addi a0, a0, -portWORD_SIZE
    4682:	1571                	addi	a0,a0,-4
    store_x a1, 0(a0)                   /* mret value (pxCode parameter) onto the stack. */
    4684:	c10c                	sw	a1,0(a0)
    ret
    4686:	8082                	ret

00004688 <xPortStartFirstTask>:
/*-----------------------------------------------------------*/

xPortStartFirstTask:
    load_x  sp, pxCurrentTCB            /* Load pxCurrentTCB. */
    4688:	8281a103          	lw	sp,-2008(gp) # 20000080 <pxCurrentTCB>
    load_x  sp, 0( sp )                 /* Read sp from first TCB member. */
    468c:	4102                	lw	sp,0(sp)

    load_x  x1, 0( sp ) /* Note for starting the scheduler the exception return address is used as the function return address. */
    468e:	4082                	lw	ra,0(sp)

    portasmRESTORE_ADDITIONAL_REGISTERS /* Defined in freertos_risc_v_chip_specific_extensions.h to restore any registers unique to the RISC-V implementation. */

    load_x  x5, 1 * portWORD_SIZE( sp ) /* Initial mstatus into x5 (t0). */
    4690:	4292                	lw	t0,4(sp)
    addi    x5, x5, 0x08                /* Set MIE bit so the first task starts with interrupts enabled - required as returns with ret not eret. */
    4692:	02a1                	addi	t0,t0,8
    csrw    mstatus, x5                 /* Interrupts enabled from here! */
    4694:	30029073          	csrw	mstatus,t0

    load_x  x7,  5  * portWORD_SIZE( sp )   /* t2 */
    4698:	43d2                	lw	t2,20(sp)
    load_x  x8,  6  * portWORD_SIZE( sp )   /* s0/fp */
    469a:	4462                	lw	s0,24(sp)
    load_x  x9,  7  * portWORD_SIZE( sp )   /* s1 */
    469c:	44f2                	lw	s1,28(sp)
    load_x  x10, 8  * portWORD_SIZE( sp )   /* a0 */
    469e:	5502                	lw	a0,32(sp)
    load_x  x11, 9  * portWORD_SIZE( sp )   /* a1 */
    46a0:	5592                	lw	a1,36(sp)
    load_x  x12, 10 * portWORD_SIZE( sp )   /* a2 */
    46a2:	5622                	lw	a2,40(sp)
    load_x  x13, 11 * portWORD_SIZE( sp )   /* a3 */
    46a4:	56b2                	lw	a3,44(sp)
    load_x  x14, 12 * portWORD_SIZE( sp )   /* a4 */
    46a6:	5742                	lw	a4,48(sp)
    load_x  x15, 13 * portWORD_SIZE( sp )   /* a5 */
    46a8:	57d2                	lw	a5,52(sp)
#ifndef __riscv_32e
    load_x  x16, 14 * portWORD_SIZE( sp )   /* a6 */
    46aa:	5862                	lw	a6,56(sp)
    load_x  x17, 15 * portWORD_SIZE( sp )   /* a7 */
    46ac:	58f2                	lw	a7,60(sp)
    load_x  x18, 16 * portWORD_SIZE( sp )   /* s2 */
    46ae:	4906                	lw	s2,64(sp)
    load_x  x19, 17 * portWORD_SIZE( sp )   /* s3 */
    46b0:	4996                	lw	s3,68(sp)
    load_x  x20, 18 * portWORD_SIZE( sp )   /* s4 */
    46b2:	4a26                	lw	s4,72(sp)
    load_x  x21, 19 * portWORD_SIZE( sp )   /* s5 */
    46b4:	4ab6                	lw	s5,76(sp)
    load_x  x22, 20 * portWORD_SIZE( sp )   /* s6 */
    46b6:	4b46                	lw	s6,80(sp)
    load_x  x23, 21 * portWORD_SIZE( sp )   /* s7 */
    46b8:	4bd6                	lw	s7,84(sp)
    load_x  x24, 22 * portWORD_SIZE( sp )   /* s8 */
    46ba:	4c66                	lw	s8,88(sp)
    load_x  x25, 23 * portWORD_SIZE( sp )   /* s9 */
    46bc:	4cf6                	lw	s9,92(sp)
    load_x  x26, 24 * portWORD_SIZE( sp )   /* s10 */
    46be:	5d06                	lw	s10,96(sp)
    load_x  x27, 25 * portWORD_SIZE( sp )   /* s11 */
    46c0:	5d96                	lw	s11,100(sp)
    load_x  x28, 26 * portWORD_SIZE( sp )   /* t3 */
    46c2:	5e26                	lw	t3,104(sp)
    load_x  x29, 27 * portWORD_SIZE( sp )   /* t4 */
    46c4:	5eb6                	lw	t4,108(sp)
    load_x  x30, 28 * portWORD_SIZE( sp )   /* t5 */
    46c6:	5f46                	lw	t5,112(sp)
    load_x  x31, 29 * portWORD_SIZE( sp )   /* t6 */
    46c8:	5fd6                	lw	t6,116(sp)
#endif

    load_x  x5, portCRITICAL_NESTING_OFFSET * portWORD_SIZE( sp )    /* Obtain xCriticalNesting value for this task from task's stack. */
    46ca:	52e6                	lw	t0,120(sp)
    load_x  x6, pxCriticalNesting           /* Load the address of xCriticalNesting into x6. */
    46cc:	80c1a303          	lw	t1,-2036(gp) # 20000064 <pxCriticalNesting>
    store_x x5, 0( x6 )                     /* Restore the critical nesting value for this task. */
    46d0:	00532023          	sw	t0,0(t1)

    load_x  x5, 3 * portWORD_SIZE( sp )     /* Initial x5 (t0) value. */
    46d4:	42b2                	lw	t0,12(sp)
    load_x  x6, 4 * portWORD_SIZE( sp )     /* Initial x6 (t1) value. */
    46d6:	4342                	lw	t1,16(sp)

    addi    sp, sp, portCONTEXT_SIZE
    46d8:	07c10113          	addi	sp,sp,124
    ret
    46dc:	8082                	ret

000046de <freertos_risc_v_application_exception_handler>:
/*-----------------------------------------------------------*/

freertos_risc_v_application_exception_handler:
    csrr t0, mcause     /* For viewing in the debugger only. */
    46de:	342022f3          	csrr	t0,mcause
    csrr t1, mepc       /* For viewing in the debugger only */
    46e2:	34102373          	csrr	t1,mepc
    csrr t2, mstatus    /* For viewing in the debugger only */
    46e6:	300023f3          	csrr	t2,mstatus
    j .
    46ea:	a001                	j	46ea <freertos_risc_v_application_exception_handler+0xc>

000046ec <freertos_risc_v_application_interrupt_handler>:
/*-----------------------------------------------------------*/

freertos_risc_v_application_interrupt_handler:
    csrr t0, mcause     /* For viewing in the debugger only. */
    46ec:	342022f3          	csrr	t0,mcause
    csrr t1, mepc       /* For viewing in the debugger only */
    46f0:	34102373          	csrr	t1,mepc
    csrr t2, mstatus    /* For viewing in the debugger only */
    46f4:	300023f3          	csrr	t2,mstatus
    j .
    46f8:	a001                	j	46f8 <freertos_risc_v_application_interrupt_handler+0xc>

000046fa <safe_state_check_bootloop>:
 * 拒绝一切 Flash 写入和软重启, 防止 100,000 次擦写烧穿 SPI Flash.
 */
static volatile uint32_t s_panic_counter = 0;

bool safe_state_check_bootloop(void)
{
    46fa:	1141                	addi	sp,sp,-16
    46fc:	c606                	sw	ra,12(sp)
    46fe:	c422                	sw	s0,8(sp)
    4700:	0800                	addi	s0,sp,16
    if (s_panic_counter >= BOOTLOOP_THRESHOLD)
    4702:	200027b7          	lui	a5,0x20002
    4706:	3e47a703          	lw	a4,996(a5) # 200023e4 <s_panic_counter>
    470a:	4791                	li	a5,4
    470c:	00e7f663          	bgeu	a5,a4,4718 <safe_state_check_bootloop+0x1e>
    {
        enter_safe_state("BOOTLOOP DETECTED > 5 — SYSTEM FROZEN");
    4710:	67a1                	lui	a5,0x8
    4712:	50878513          	addi	a0,a5,1288 # 8508 <AHBPrescTable+0x18>
    4716:	2835                	jal	4752 <enter_safe_state>
        return false;
    }
    s_panic_counter++;
    4718:	200027b7          	lui	a5,0x20002
    471c:	3e47a783          	lw	a5,996(a5) # 200023e4 <s_panic_counter>
    4720:	00178713          	addi	a4,a5,1
    4724:	200027b7          	lui	a5,0x20002
    4728:	3ee7a223          	sw	a4,996(a5) # 200023e4 <s_panic_counter>
    return true;
    472c:	4785                	li	a5,1
}
    472e:	853e                	mv	a0,a5
    4730:	40b2                	lw	ra,12(sp)
    4732:	4422                	lw	s0,8(sp)
    4734:	0141                	addi	sp,sp,16
    4736:	8082                	ret

00004738 <safe_state_clear_bootloop>:

void safe_state_clear_bootloop(void)
{
    4738:	1141                	addi	sp,sp,-16
    473a:	c606                	sw	ra,12(sp)
    473c:	c422                	sw	s0,8(sp)
    473e:	0800                	addi	s0,sp,16
    s_panic_counter = 0;
    4740:	200027b7          	lui	a5,0x20002
    4744:	3e07a223          	sw	zero,996(a5) # 200023e4 <s_panic_counter>
}
    4748:	0001                	nop
    474a:	40b2                	lw	ra,12(sp)
    474c:	4422                	lw	s0,8(sp)
    474e:	0141                	addi	sp,sp,16
    4750:	8082                	ret

00004752 <enter_safe_state>:
 *   1. 平台硬件闭锁: 停外设, 亮故障灯, 蜂鸣器
 *   2. 挂起调度器 + 关中断
 *   3. 死循环 (外设由硬件自主维持)
 */
void enter_safe_state(const char* reason)
{
    4752:	1101                	addi	sp,sp,-32
    4754:	ce06                	sw	ra,28(sp)
    4756:	cc22                	sw	s0,24(sp)
    4758:	1000                	addi	s0,sp,32
    475a:	fea42623          	sw	a0,-20(s0)
    (void)reason;

    /* 平台具体硬件闭锁 (PWM/I2S/SPI 停止, LED, 蜂鸣器) */
    hal_platform_critical_hardware_lock();
    475e:	608020ef          	jal	6d66 <hal_platform_critical_hardware_lock>

    /* 冻结 OS */
    osal_sched_suspend();
    4762:	12d000ef          	jal	508e <osal_sched_suspend>
    osal_int_disable();
    4766:	13f000ef          	jal	50a4 <osal_int_disable>

    while (1)
    {
        __asm__ volatile("nop");
    476a:	0001                	nop
    476c:	bffd                	j	476a <enter_safe_state+0x18>

0000476e <safe_state_nmi_emergency_stamp>:

/*
 * NMI 紧急标记: 委托平台实现 (IRAM 安全)
 */
void safe_state_nmi_emergency_stamp(void)
{
    476e:	1141                	addi	sp,sp,-16
    4770:	c606                	sw	ra,12(sp)
    4772:	c422                	sw	s0,8(sp)
    4774:	0800                	addi	s0,sp,16
    hal_platform_nmi_emergency_stamp();
    4776:	604020ef          	jal	6d7a <hal_platform_nmi_emergency_stamp>
}
    477a:	0001                	nop
    477c:	40b2                	lw	ra,12(sp)
    477e:	4422                	lw	s0,8(sp)
    4780:	0141                	addi	sp,sp,16
    4782:	8082                	ret

00004784 <osal_in_isr>:
 * ARMv7-M/v8-M: 读 IPSR 寄存器
 * RISC-V:       读 mcause, 检查 bit31
 * 其他:         默认 0 (保守, 不在 ISR 中调用 FreeRTOS FromISR API)
 */
int osal_in_isr(void)
{
    4784:	1101                	addi	sp,sp,-32
    4786:	ce06                	sw	ra,28(sp)
    4788:	cc22                	sw	s0,24(sp)
    478a:	1000                	addi	s0,sp,32
    uint32_t ipsr;
    __asm__ volatile("mrs %0, ipsr" : "=r"(ipsr));
    return (ipsr & 0xFF) != 0;
#elif defined(__riscv)
    uintptr_t mcause;
    __asm__ volatile("csrr %0, mcause" : "=r"(mcause));
    478c:	342027f3          	csrr	a5,mcause
    4790:	fef42623          	sw	a5,-20(s0)
    return (int)(mcause >> 31);
    4794:	fec42783          	lw	a5,-20(s0)
    4798:	83fd                	srli	a5,a5,0x1f
#else
    return 0;
#endif
}
    479a:	853e                	mv	a0,a5
    479c:	40f2                	lw	ra,28(sp)
    479e:	4462                	lw	s0,24(sp)
    47a0:	6105                	addi	sp,sp,32
    47a2:	8082                	ret

000047a4 <osal_spinlock_init>:
    portMUX_TYPE mux;
#endif
};

void osal_spinlock_init(struct osal_spinlock* lock)
{
    47a4:	1101                	addi	sp,sp,-32
    47a6:	ce06                	sw	ra,28(sp)
    47a8:	cc22                	sw	s0,24(sp)
    47aa:	1000                	addi	s0,sp,32
    47ac:	fea42623          	sw	a0,-20(s0)
    if (!lock) return;
    47b0:	fec42783          	lw	a5,-20(s0)
    47b4:	c791                	beqz	a5,47c0 <osal_spinlock_init+0x1c>
    lock->locked = 0;
    47b6:	fec42783          	lw	a5,-20(s0)
    47ba:	0007a023          	sw	zero,0(a5)
    47be:	a011                	j	47c2 <osal_spinlock_init+0x1e>
    if (!lock) return;
    47c0:	0001                	nop
#ifdef ESP_PLATFORM
    portMUX_INITIALIZE(&lock->mux);
#endif
}
    47c2:	40f2                	lw	ra,28(sp)
    47c4:	4462                	lw	s0,24(sp)
    47c6:	6105                	addi	sp,sp,32
    47c8:	8082                	ret

000047ca <osal_spinlock_lock>:

void osal_spinlock_lock(struct osal_spinlock* lock)
{
    47ca:	1101                	addi	sp,sp,-32
    47cc:	ce06                	sw	ra,28(sp)
    47ce:	cc22                	sw	s0,24(sp)
    47d0:	1000                	addi	s0,sp,32
    47d2:	fea42623          	sw	a0,-20(s0)
    if (!lock) return;
    47d6:	fec42783          	lw	a5,-20(s0)
    47da:	c38d                	beqz	a5,47fc <osal_spinlock_lock+0x32>
    if (!osal_in_isr())
    47dc:	3765                	jal	4784 <osal_in_isr>
    47de:	87aa                	mv	a5,a0
    47e0:	eb89                	bnez	a5,47f2 <osal_spinlock_lock+0x28>
    {
#ifdef ESP_PLATFORM
        taskENTER_CRITICAL(&lock->mux);
#else
        taskENTER_CRITICAL();
    47e2:	30047073          	csrci	mstatus,8
    47e6:	8081a783          	lw	a5,-2040(gp) # 20000060 <xCriticalNesting>
    47ea:	00178713          	addi	a4,a5,1
    47ee:	80e1a423          	sw	a4,-2040(gp) # 20000060 <xCriticalNesting>
#endif
    }
    lock->locked = 1;
    47f2:	fec42783          	lw	a5,-20(s0)
    47f6:	4705                	li	a4,1
    47f8:	c398                	sw	a4,0(a5)
    47fa:	a011                	j	47fe <osal_spinlock_lock+0x34>
    if (!lock) return;
    47fc:	0001                	nop
}
    47fe:	40f2                	lw	ra,28(sp)
    4800:	4462                	lw	s0,24(sp)
    4802:	6105                	addi	sp,sp,32
    4804:	8082                	ret

00004806 <osal_spinlock_unlock>:

void osal_spinlock_unlock(struct osal_spinlock* lock)
{
    4806:	1101                	addi	sp,sp,-32
    4808:	ce06                	sw	ra,28(sp)
    480a:	cc22                	sw	s0,24(sp)
    480c:	1000                	addi	s0,sp,32
    480e:	fea42623          	sw	a0,-20(s0)
    if (!lock) return;
    4812:	fec42783          	lw	a5,-20(s0)
    4816:	c785                	beqz	a5,483e <osal_spinlock_unlock+0x38>
    lock->locked = 0;
    4818:	fec42783          	lw	a5,-20(s0)
    481c:	0007a023          	sw	zero,0(a5)
    if (!osal_in_isr())
    4820:	3795                	jal	4784 <osal_in_isr>
    4822:	87aa                	mv	a5,a0
    4824:	ef91                	bnez	a5,4840 <osal_spinlock_unlock+0x3a>
    {
#ifdef ESP_PLATFORM
        taskEXIT_CRITICAL(&lock->mux);
#else
        taskEXIT_CRITICAL();
    4826:	8081a783          	lw	a5,-2040(gp) # 20000060 <xCriticalNesting>
    482a:	fff78713          	addi	a4,a5,-1
    482e:	80e1a423          	sw	a4,-2040(gp) # 20000060 <xCriticalNesting>
    4832:	8081a783          	lw	a5,-2040(gp) # 20000060 <xCriticalNesting>
    4836:	e789                	bnez	a5,4840 <osal_spinlock_unlock+0x3a>
    4838:	30046073          	csrsi	mstatus,8
    483c:	a011                	j	4840 <osal_spinlock_unlock+0x3a>
    if (!lock) return;
    483e:	0001                	nop
#endif
    }
}
    4840:	40f2                	lw	ra,28(sp)
    4842:	4462                	lw	s0,24(sp)
    4844:	6105                	addi	sp,sp,32
    4846:	8082                	ret

00004848 <osal_pool_claim>:
#ifdef ESP_PLATFORM
static portMUX_TYPE s_pool_mux = portMUX_INITIALIZER_UNLOCKED;
#endif

int osal_pool_claim(volatile uint8_t* used_slots, size_t slot_count)
{
    4848:	7179                	addi	sp,sp,-48
    484a:	d606                	sw	ra,44(sp)
    484c:	d422                	sw	s0,40(sp)
    484e:	1800                	addi	s0,sp,48
    4850:	fca42e23          	sw	a0,-36(s0)
    4854:	fcb42c23          	sw	a1,-40(s0)
    if (!used_slots || slot_count == 0) return -1;
    4858:	fdc42783          	lw	a5,-36(s0)
    485c:	c781                	beqz	a5,4864 <osal_pool_claim+0x1c>
    485e:	fd842783          	lw	a5,-40(s0)
    4862:	e399                	bnez	a5,4868 <osal_pool_claim+0x20>
    4864:	57fd                	li	a5,-1
    4866:	a061                	j	48ee <osal_pool_claim+0xa6>

#ifdef ESP_PLATFORM
    if (!osal_in_isr()) taskENTER_CRITICAL(&s_pool_mux);
#else
    if (!osal_in_isr()) taskENTER_CRITICAL();
    4868:	3f31                	jal	4784 <osal_in_isr>
    486a:	87aa                	mv	a5,a0
    486c:	eb89                	bnez	a5,487e <osal_pool_claim+0x36>
    486e:	30047073          	csrci	mstatus,8
    4872:	8081a783          	lw	a5,-2040(gp) # 20000060 <xCriticalNesting>
    4876:	00178713          	addi	a4,a5,1
    487a:	80e1a423          	sw	a4,-2040(gp) # 20000060 <xCriticalNesting>
#endif
    int claimed_index = -1;
    487e:	57fd                	li	a5,-1
    4880:	fef42623          	sw	a5,-20(s0)
    for (size_t i = 0; i < slot_count; i++)
    4884:	fe042423          	sw	zero,-24(s0)
    4888:	a82d                	j	48c2 <osal_pool_claim+0x7a>
    {
        if (!used_slots[i])
    488a:	fdc42703          	lw	a4,-36(s0)
    488e:	fe842783          	lw	a5,-24(s0)
    4892:	97ba                	add	a5,a5,a4
    4894:	0007c783          	lbu	a5,0(a5)
    4898:	0ff7f793          	zext.b	a5,a5
    489c:	ef91                	bnez	a5,48b8 <osal_pool_claim+0x70>
        {
            used_slots[i] = 1;
    489e:	fdc42703          	lw	a4,-36(s0)
    48a2:	fe842783          	lw	a5,-24(s0)
    48a6:	97ba                	add	a5,a5,a4
    48a8:	4705                	li	a4,1
    48aa:	00e78023          	sb	a4,0(a5)
            claimed_index = (int)i;
    48ae:	fe842783          	lw	a5,-24(s0)
    48b2:	fef42623          	sw	a5,-20(s0)
            break;
    48b6:	a821                	j	48ce <osal_pool_claim+0x86>
    for (size_t i = 0; i < slot_count; i++)
    48b8:	fe842783          	lw	a5,-24(s0)
    48bc:	0785                	addi	a5,a5,1
    48be:	fef42423          	sw	a5,-24(s0)
    48c2:	fe842703          	lw	a4,-24(s0)
    48c6:	fd842783          	lw	a5,-40(s0)
    48ca:	fcf760e3          	bltu	a4,a5,488a <osal_pool_claim+0x42>
        }
    }
#ifdef ESP_PLATFORM
    if (!osal_in_isr()) taskEXIT_CRITICAL(&s_pool_mux);
#else
    if (!osal_in_isr()) taskEXIT_CRITICAL();
    48ce:	3d5d                	jal	4784 <osal_in_isr>
    48d0:	87aa                	mv	a5,a0
    48d2:	ef81                	bnez	a5,48ea <osal_pool_claim+0xa2>
    48d4:	8081a783          	lw	a5,-2040(gp) # 20000060 <xCriticalNesting>
    48d8:	fff78713          	addi	a4,a5,-1
    48dc:	80e1a423          	sw	a4,-2040(gp) # 20000060 <xCriticalNesting>
    48e0:	8081a783          	lw	a5,-2040(gp) # 20000060 <xCriticalNesting>
    48e4:	e399                	bnez	a5,48ea <osal_pool_claim+0xa2>
    48e6:	30046073          	csrsi	mstatus,8
#endif
    return claimed_index;
    48ea:	fec42783          	lw	a5,-20(s0)
}
    48ee:	853e                	mv	a0,a5
    48f0:	50b2                	lw	ra,44(sp)
    48f2:	5422                	lw	s0,40(sp)
    48f4:	6145                	addi	sp,sp,48
    48f6:	8082                	ret

000048f8 <osal_pool_release>:

void osal_pool_release(volatile uint8_t* used_slots, size_t slot_count, int slot_index)
{
    48f8:	1101                	addi	sp,sp,-32
    48fa:	ce06                	sw	ra,28(sp)
    48fc:	cc22                	sw	s0,24(sp)
    48fe:	1000                	addi	s0,sp,32
    4900:	fea42623          	sw	a0,-20(s0)
    4904:	feb42423          	sw	a1,-24(s0)
    4908:	fec42223          	sw	a2,-28(s0)
    if (!used_slots || slot_index < 0 || (size_t)slot_index >= slot_count) return;
    490c:	fec42783          	lw	a5,-20(s0)
    4910:	cfa1                	beqz	a5,4968 <osal_pool_release+0x70>
    4912:	fe442783          	lw	a5,-28(s0)
    4916:	0407c963          	bltz	a5,4968 <osal_pool_release+0x70>
    491a:	fe442783          	lw	a5,-28(s0)
    491e:	fe842703          	lw	a4,-24(s0)
    4922:	04e7f363          	bgeu	a5,a4,4968 <osal_pool_release+0x70>
#ifdef ESP_PLATFORM
    if (!osal_in_isr()) taskENTER_CRITICAL(&s_pool_mux);
#else
    if (!osal_in_isr()) taskENTER_CRITICAL();
    4926:	3db9                	jal	4784 <osal_in_isr>
    4928:	87aa                	mv	a5,a0
    492a:	eb89                	bnez	a5,493c <osal_pool_release+0x44>
    492c:	30047073          	csrci	mstatus,8
    4930:	8081a783          	lw	a5,-2040(gp) # 20000060 <xCriticalNesting>
    4934:	00178713          	addi	a4,a5,1
    4938:	80e1a423          	sw	a4,-2040(gp) # 20000060 <xCriticalNesting>
#endif
    used_slots[slot_index] = 0;
    493c:	fe442783          	lw	a5,-28(s0)
    4940:	fec42703          	lw	a4,-20(s0)
    4944:	97ba                	add	a5,a5,a4
    4946:	00078023          	sb	zero,0(a5)
#ifdef ESP_PLATFORM
    if (!osal_in_isr()) taskEXIT_CRITICAL(&s_pool_mux);
#else
    if (!osal_in_isr()) taskEXIT_CRITICAL();
    494a:	3d2d                	jal	4784 <osal_in_isr>
    494c:	87aa                	mv	a5,a0
    494e:	ef91                	bnez	a5,496a <osal_pool_release+0x72>
    4950:	8081a783          	lw	a5,-2040(gp) # 20000060 <xCriticalNesting>
    4954:	fff78713          	addi	a4,a5,-1
    4958:	80e1a423          	sw	a4,-2040(gp) # 20000060 <xCriticalNesting>
    495c:	8081a783          	lw	a5,-2040(gp) # 20000060 <xCriticalNesting>
    4960:	e789                	bnez	a5,496a <osal_pool_release+0x72>
    4962:	30046073          	csrsi	mstatus,8
    4966:	a011                	j	496a <osal_pool_release+0x72>
    if (!used_slots || slot_index < 0 || (size_t)slot_index >= slot_count) return;
    4968:	0001                	nop
#endif
}
    496a:	40f2                	lw	ra,28(sp)
    496c:	4462                	lw	s0,24(sp)
    496e:	6105                	addi	sp,sp,32
    4970:	8082                	ret

00004972 <osal_time_ms>:

/* ── 时间 ── */
uint32_t osal_time_ms(void)
{
    4972:	1141                	addi	sp,sp,-16
    4974:	c606                	sw	ra,12(sp)
    4976:	c422                	sw	s0,8(sp)
    4978:	0800                	addi	s0,sp,16
    return (uint32_t)(xTaskGetTickCount() * portTICK_PERIOD_MS);
    497a:	f77fc0ef          	jal	18f0 <xTaskGetTickCount>
    497e:	87aa                	mv	a5,a0
}
    4980:	853e                	mv	a0,a5
    4982:	40b2                	lw	ra,12(sp)
    4984:	4422                	lw	s0,8(sp)
    4986:	0141                	addi	sp,sp,16
    4988:	8082                	ret

0000498a <osal_delay_ms>:

void osal_delay_ms(uint32_t ms)
{
    498a:	7179                	addi	sp,sp,-48
    498c:	d606                	sw	ra,44(sp)
    498e:	d422                	sw	s0,40(sp)
    4990:	d24a                	sw	s2,36(sp)
    4992:	d04e                	sw	s3,32(sp)
    4994:	ce52                	sw	s4,28(sp)
    4996:	cc56                	sw	s5,24(sp)
    4998:	1800                	addi	s0,sp,48
    499a:	fca42e23          	sw	a0,-36(s0)
    if (osal_in_isr()) return;  /* 中断中不能阻塞 */
    499e:	33dd                	jal	4784 <osal_in_isr>
    49a0:	87aa                	mv	a5,a0
    49a2:	e7a9                	bnez	a5,49ec <osal_delay_ms+0x62>
    vTaskDelay(pdMS_TO_TICKS(ms));
    49a4:	fdc42783          	lw	a5,-36(s0)
    49a8:	893e                	mv	s2,a5
    49aa:	4981                	li	s3,0
    49ac:	3e800793          	li	a5,1000
    49b0:	02f98733          	mul	a4,s3,a5
    49b4:	4781                	li	a5,0
    49b6:	02f907b3          	mul	a5,s2,a5
    49ba:	973e                	add	a4,a4,a5
    49bc:	3e800793          	li	a5,1000
    49c0:	02f906b3          	mul	a3,s2,a5
    49c4:	02f93ab3          	mulhu	s5,s2,a5
    49c8:	8a36                	mv	s4,a3
    49ca:	015707b3          	add	a5,a4,s5
    49ce:	8abe                	mv	s5,a5
    49d0:	3e800613          	li	a2,1000
    49d4:	4681                	li	a3,0
    49d6:	8552                	mv	a0,s4
    49d8:	85d6                	mv	a1,s5
    49da:	77c020ef          	jal	7156 <__udivdi3>
    49de:	872a                	mv	a4,a0
    49e0:	87ae                	mv	a5,a1
    49e2:	87ba                	mv	a5,a4
    49e4:	853e                	mv	a0,a5
    49e6:	8e4fc0ef          	jal	aca <vTaskDelay>
    49ea:	a011                	j	49ee <osal_delay_ms+0x64>
    if (osal_in_isr()) return;  /* 中断中不能阻塞 */
    49ec:	0001                	nop
}
    49ee:	50b2                	lw	ra,44(sp)
    49f0:	5422                	lw	s0,40(sp)
    49f2:	5912                	lw	s2,36(sp)
    49f4:	5982                	lw	s3,32(sp)
    49f6:	4a72                	lw	s4,28(sp)
    49f8:	4ae2                	lw	s5,24(sp)
    49fa:	6145                	addi	sp,sp,48
    49fc:	8082                	ret

000049fe <osal_ticks_from_ms>:

osal_tick_t osal_ticks_from_ms(uint32_t ms)
{
    49fe:	1101                	addi	sp,sp,-32
    4a00:	ce06                	sw	ra,28(sp)
    4a02:	cc22                	sw	s0,24(sp)
    4a04:	1000                	addi	s0,sp,32
    4a06:	fea42623          	sw	a0,-20(s0)
    return pdMS_TO_TICKS(ms);
    4a0a:	fec42683          	lw	a3,-20(s0)
    4a0e:	8736                	mv	a4,a3
    4a10:	4781                	li	a5,0
    4a12:	3e800693          	li	a3,1000
    4a16:	02d78633          	mul	a2,a5,a3
    4a1a:	4681                	li	a3,0
    4a1c:	02d706b3          	mul	a3,a4,a3
    4a20:	9636                	add	a2,a2,a3
    4a22:	3e800693          	li	a3,1000
    4a26:	02d705b3          	mul	a1,a4,a3
    4a2a:	02d738b3          	mulhu	a7,a4,a3
    4a2e:	882e                	mv	a6,a1
    4a30:	011607b3          	add	a5,a2,a7
    4a34:	88be                	mv	a7,a5
    4a36:	3e800613          	li	a2,1000
    4a3a:	4681                	li	a3,0
    4a3c:	8542                	mv	a0,a6
    4a3e:	85c6                	mv	a1,a7
    4a40:	716020ef          	jal	7156 <__udivdi3>
    4a44:	872a                	mv	a4,a0
    4a46:	87ae                	mv	a5,a1
    4a48:	87ba                	mv	a5,a4
}
    4a4a:	853e                	mv	a0,a5
    4a4c:	40f2                	lw	ra,28(sp)
    4a4e:	4462                	lw	s0,24(sp)
    4a50:	6105                	addi	sp,sp,32
    4a52:	8082                	ret

00004a54 <osal_timeout_to_ticks>:

osal_tick_t osal_timeout_to_ticks(uint32_t timeout_ms)
{
    4a54:	1101                	addi	sp,sp,-32
    4a56:	ce06                	sw	ra,28(sp)
    4a58:	cc22                	sw	s0,24(sp)
    4a5a:	1000                	addi	s0,sp,32
    4a5c:	fea42623          	sw	a0,-20(s0)
    if (timeout_ms == OSAL_WAIT_FOREVER)
    4a60:	fec42603          	lw	a2,-20(s0)
    4a64:	56fd                	li	a3,-1
    4a66:	00d61463          	bne	a2,a3,4a6e <osal_timeout_to_ticks+0x1a>
        return portMAX_DELAY;
    4a6a:	57fd                	li	a5,-1
    4a6c:	a089                	j	4aae <osal_timeout_to_ticks+0x5a>
    return pdMS_TO_TICKS(timeout_ms);
    4a6e:	fec42683          	lw	a3,-20(s0)
    4a72:	8736                	mv	a4,a3
    4a74:	4781                	li	a5,0
    4a76:	3e800693          	li	a3,1000
    4a7a:	02d78633          	mul	a2,a5,a3
    4a7e:	4681                	li	a3,0
    4a80:	02d706b3          	mul	a3,a4,a3
    4a84:	9636                	add	a2,a2,a3
    4a86:	3e800693          	li	a3,1000
    4a8a:	02d705b3          	mul	a1,a4,a3
    4a8e:	02d738b3          	mulhu	a7,a4,a3
    4a92:	882e                	mv	a6,a1
    4a94:	011607b3          	add	a5,a2,a7
    4a98:	88be                	mv	a7,a5
    4a9a:	3e800613          	li	a2,1000
    4a9e:	4681                	li	a3,0
    4aa0:	8542                	mv	a0,a6
    4aa2:	85c6                	mv	a1,a7
    4aa4:	6b2020ef          	jal	7156 <__udivdi3>
    4aa8:	872a                	mv	a4,a0
    4aaa:	87ae                	mv	a5,a1
    4aac:	87ba                	mv	a5,a4
}
    4aae:	853e                	mv	a0,a5
    4ab0:	40f2                	lw	ra,28(sp)
    4ab2:	4462                	lw	s0,24(sp)
    4ab4:	6105                	addi	sp,sp,32
    4ab6:	8082                	ret

00004ab8 <osal_calloc>:

/* ── 内存 ── */
void* osal_calloc(size_t count, size_t size)
{
    4ab8:	1101                	addi	sp,sp,-32
    4aba:	ce06                	sw	ra,28(sp)
    4abc:	cc22                	sw	s0,24(sp)
    4abe:	1000                	addi	s0,sp,32
    4ac0:	fea42623          	sw	a0,-20(s0)
    4ac4:	feb42423          	sw	a1,-24(s0)
    return calloc(count, size);
    4ac8:	fe842583          	lw	a1,-24(s0)
    4acc:	fec42503          	lw	a0,-20(s0)
    4ad0:	18d020ef          	jal	745c <calloc>
    4ad4:	87aa                	mv	a5,a0
}
    4ad6:	853e                	mv	a0,a5
    4ad8:	40f2                	lw	ra,28(sp)
    4ada:	4462                	lw	s0,24(sp)
    4adc:	6105                	addi	sp,sp,32
    4ade:	8082                	ret

00004ae0 <osal_free>:

void osal_free(void* ptr)
{
    4ae0:	1101                	addi	sp,sp,-32
    4ae2:	ce06                	sw	ra,28(sp)
    4ae4:	cc22                	sw	s0,24(sp)
    4ae6:	1000                	addi	s0,sp,32
    4ae8:	fea42623          	sw	a0,-20(s0)
    free(ptr);
    4aec:	fec42503          	lw	a0,-20(s0)
    4af0:	1ab020ef          	jal	749a <free>
}
    4af4:	0001                	nop
    4af6:	40f2                	lw	ra,28(sp)
    4af8:	4462                	lw	s0,24(sp)
    4afa:	6105                	addi	sp,sp,32
    4afc:	8082                	ret

00004afe <osal_mutex_create>:

/* ── 互斥锁 ── */
int osal_mutex_create(struct osal_mutex** out)
{
    4afe:	7179                	addi	sp,sp,-48
    4b00:	d606                	sw	ra,44(sp)
    4b02:	d422                	sw	s0,40(sp)
    4b04:	1800                	addi	s0,sp,48
    4b06:	fca42e23          	sw	a0,-36(s0)
    if (!out) return -1;
    4b0a:	fdc42783          	lw	a5,-36(s0)
    4b0e:	e399                	bnez	a5,4b14 <osal_mutex_create+0x16>
    4b10:	57fd                	li	a5,-1
    4b12:	a061                	j	4b9a <osal_mutex_create+0x9c>
    if (osal_in_isr()) return -1;  /* 中断中不能创建 */
    4b14:	3985                	jal	4784 <osal_in_isr>
    4b16:	87aa                	mv	a5,a0
    4b18:	c399                	beqz	a5,4b1e <osal_mutex_create+0x20>
    4b1a:	57fd                	li	a5,-1
    4b1c:	a8bd                	j	4b9a <osal_mutex_create+0x9c>
    *out = NULL;
    4b1e:	fdc42783          	lw	a5,-36(s0)
    4b22:	0007a023          	sw	zero,0(a5)

    int index = osal_pool_claim(s_mutex_used, OSAL_MUTEX_POOL_SIZE);
    4b26:	45e1                	li	a1,24
    4b28:	200037b7          	lui	a5,0x20003
    4b2c:	b0878513          	addi	a0,a5,-1272 # 20002b08 <s_mutex_used>
    4b30:	3b21                	jal	4848 <osal_pool_claim>
    4b32:	fea42623          	sw	a0,-20(s0)
    if (index < 0) return -1;
    4b36:	fec42783          	lw	a5,-20(s0)
    4b3a:	0007d463          	bgez	a5,4b42 <osal_mutex_create+0x44>
    4b3e:	57fd                	li	a5,-1
    4b40:	a8a9                	j	4b9a <osal_mutex_create+0x9c>

    struct osal_mutex* m = &s_mutex_pool[index];
    4b42:	fec42703          	lw	a4,-20(s0)
    4b46:	04c00793          	li	a5,76
    4b4a:	02f70733          	mul	a4,a4,a5
    4b4e:	200027b7          	lui	a5,0x20002
    4b52:	3e878793          	addi	a5,a5,1000 # 200023e8 <s_mutex_pool>
    4b56:	97ba                	add	a5,a5,a4
    4b58:	fef42423          	sw	a5,-24(s0)
    m->handle = xSemaphoreCreateRecursiveMutexStatic(&m->sem_buf);
    4b5c:	fe842783          	lw	a5,-24(s0)
    4b60:	0791                	addi	a5,a5,4
    4b62:	85be                	mv	a1,a5
    4b64:	4511                	li	a0,4
    4b66:	59d000ef          	jal	5902 <xQueueCreateMutexStatic>
    4b6a:	872a                	mv	a4,a0
    4b6c:	fe842783          	lw	a5,-24(s0)
    4b70:	c398                	sw	a4,0(a5)
    if (!m->handle)
    4b72:	fe842783          	lw	a5,-24(s0)
    4b76:	439c                	lw	a5,0(a5)
    4b78:	eb99                	bnez	a5,4b8e <osal_mutex_create+0x90>
    {
        osal_pool_release(s_mutex_used, OSAL_MUTEX_POOL_SIZE, index);
    4b7a:	fec42603          	lw	a2,-20(s0)
    4b7e:	45e1                	li	a1,24
    4b80:	200037b7          	lui	a5,0x20003
    4b84:	b0878513          	addi	a0,a5,-1272 # 20002b08 <s_mutex_used>
    4b88:	3b85                	jal	48f8 <osal_pool_release>
        return -1;
    4b8a:	57fd                	li	a5,-1
    4b8c:	a039                	j	4b9a <osal_mutex_create+0x9c>
    }
    *out = (struct osal_mutex*)m;
    4b8e:	fdc42783          	lw	a5,-36(s0)
    4b92:	fe842703          	lw	a4,-24(s0)
    4b96:	c398                	sw	a4,0(a5)
    return 0;
    4b98:	4781                	li	a5,0
}
    4b9a:	853e                	mv	a0,a5
    4b9c:	50b2                	lw	ra,44(sp)
    4b9e:	5422                	lw	s0,40(sp)
    4ba0:	6145                	addi	sp,sp,48
    4ba2:	8082                	ret

00004ba4 <osal_mutex_create_static>:

int osal_mutex_create_static(struct osal_mutex** out, void* storage, size_t storage_size)
{
    4ba4:	7179                	addi	sp,sp,-48
    4ba6:	d606                	sw	ra,44(sp)
    4ba8:	d422                	sw	s0,40(sp)
    4baa:	1800                	addi	s0,sp,48
    4bac:	fca42e23          	sw	a0,-36(s0)
    4bb0:	fcb42c23          	sw	a1,-40(s0)
    4bb4:	fcc42a23          	sw	a2,-44(s0)
    if (!out || !storage || storage_size < sizeof(struct osal_mutex)) return -1;
    4bb8:	fdc42783          	lw	a5,-36(s0)
    4bbc:	cb91                	beqz	a5,4bd0 <osal_mutex_create_static+0x2c>
    4bbe:	fd842783          	lw	a5,-40(s0)
    4bc2:	c799                	beqz	a5,4bd0 <osal_mutex_create_static+0x2c>
    4bc4:	fd442703          	lw	a4,-44(s0)
    4bc8:	04b00793          	li	a5,75
    4bcc:	00e7e463          	bltu	a5,a4,4bd4 <osal_mutex_create_static+0x30>
    4bd0:	57fd                	li	a5,-1
    4bd2:	a0a9                	j	4c1c <osal_mutex_create_static+0x78>
    if (osal_in_isr()) return -1;  /* 中断中不能创建 */
    4bd4:	3e45                	jal	4784 <osal_in_isr>
    4bd6:	87aa                	mv	a5,a0
    4bd8:	c399                	beqz	a5,4bde <osal_mutex_create_static+0x3a>
    4bda:	57fd                	li	a5,-1
    4bdc:	a081                	j	4c1c <osal_mutex_create_static+0x78>
    *out = NULL;
    4bde:	fdc42783          	lw	a5,-36(s0)
    4be2:	0007a023          	sw	zero,0(a5)

    struct osal_mutex* m = (struct osal_mutex*)storage;
    4be6:	fd842783          	lw	a5,-40(s0)
    4bea:	fef42623          	sw	a5,-20(s0)
    m->handle = xSemaphoreCreateRecursiveMutexStatic(&m->sem_buf);
    4bee:	fec42783          	lw	a5,-20(s0)
    4bf2:	0791                	addi	a5,a5,4
    4bf4:	85be                	mv	a1,a5
    4bf6:	4511                	li	a0,4
    4bf8:	50b000ef          	jal	5902 <xQueueCreateMutexStatic>
    4bfc:	872a                	mv	a4,a0
    4bfe:	fec42783          	lw	a5,-20(s0)
    4c02:	c398                	sw	a4,0(a5)
    if (!m->handle) return -1;
    4c04:	fec42783          	lw	a5,-20(s0)
    4c08:	439c                	lw	a5,0(a5)
    4c0a:	e399                	bnez	a5,4c10 <osal_mutex_create_static+0x6c>
    4c0c:	57fd                	li	a5,-1
    4c0e:	a039                	j	4c1c <osal_mutex_create_static+0x78>

    *out = (struct osal_mutex*)m;
    4c10:	fdc42783          	lw	a5,-36(s0)
    4c14:	fec42703          	lw	a4,-20(s0)
    4c18:	c398                	sw	a4,0(a5)
    return 0;
    4c1a:	4781                	li	a5,0
}
    4c1c:	853e                	mv	a0,a5
    4c1e:	50b2                	lw	ra,44(sp)
    4c20:	5422                	lw	s0,40(sp)
    4c22:	6145                	addi	sp,sp,48
    4c24:	8082                	ret

00004c26 <osal_mutex_destroy>:

void osal_mutex_destroy(struct osal_mutex* mutex)
{
    4c26:	7179                	addi	sp,sp,-48
    4c28:	d606                	sw	ra,44(sp)
    4c2a:	d422                	sw	s0,40(sp)
    4c2c:	1800                	addi	s0,sp,48
    4c2e:	fca42e23          	sw	a0,-36(s0)
    if (!mutex) return;
    4c32:	fdc42783          	lw	a5,-36(s0)
    4c36:	cfa5                	beqz	a5,4cae <osal_mutex_destroy+0x88>
    if (osal_in_isr()) return;  /* 中断中不能销毁 */
    4c38:	36b1                	jal	4784 <osal_in_isr>
    4c3a:	87aa                	mv	a5,a0
    4c3c:	ebbd                	bnez	a5,4cb2 <osal_mutex_destroy+0x8c>
    struct osal_mutex* m = (struct osal_mutex*)mutex;
    4c3e:	fdc42783          	lw	a5,-36(s0)
    4c42:	fef42423          	sw	a5,-24(s0)
    if (m->handle)
    4c46:	fe842783          	lw	a5,-24(s0)
    4c4a:	439c                	lw	a5,0(a5)
    4c4c:	cb99                	beqz	a5,4c62 <osal_mutex_destroy+0x3c>
    {
        vSemaphoreDelete(m->handle);
    4c4e:	fe842783          	lw	a5,-24(s0)
    4c52:	439c                	lw	a5,0(a5)
    4c54:	853e                	mv	a0,a5
    4c56:	497010ef          	jal	68ec <vQueueDelete>
        m->handle = NULL;
    4c5a:	fe842783          	lw	a5,-24(s0)
    4c5e:	0007a023          	sw	zero,0(a5)
    }
    for (int i = 0; i < OSAL_MUTEX_POOL_SIZE; i++)
    4c62:	fe042623          	sw	zero,-20(s0)
    4c66:	a835                	j	4ca2 <osal_mutex_destroy+0x7c>
    {
        if (&s_mutex_pool[i] == m)
    4c68:	fec42703          	lw	a4,-20(s0)
    4c6c:	04c00793          	li	a5,76
    4c70:	02f70733          	mul	a4,a4,a5
    4c74:	200027b7          	lui	a5,0x20002
    4c78:	3e878793          	addi	a5,a5,1000 # 200023e8 <s_mutex_pool>
    4c7c:	97ba                	add	a5,a5,a4
    4c7e:	fe842703          	lw	a4,-24(s0)
    4c82:	00f71b63          	bne	a4,a5,4c98 <osal_mutex_destroy+0x72>
        {
            osal_pool_release(s_mutex_used, OSAL_MUTEX_POOL_SIZE, i);
    4c86:	fec42603          	lw	a2,-20(s0)
    4c8a:	45e1                	li	a1,24
    4c8c:	200037b7          	lui	a5,0x20003
    4c90:	b0878513          	addi	a0,a5,-1272 # 20002b08 <s_mutex_used>
    4c94:	3195                	jal	48f8 <osal_pool_release>
            break;
    4c96:	a839                	j	4cb4 <osal_mutex_destroy+0x8e>
    for (int i = 0; i < OSAL_MUTEX_POOL_SIZE; i++)
    4c98:	fec42783          	lw	a5,-20(s0)
    4c9c:	0785                	addi	a5,a5,1
    4c9e:	fef42623          	sw	a5,-20(s0)
    4ca2:	fec42703          	lw	a4,-20(s0)
    4ca6:	47dd                	li	a5,23
    4ca8:	fce7d0e3          	bge	a5,a4,4c68 <osal_mutex_destroy+0x42>
    4cac:	a021                	j	4cb4 <osal_mutex_destroy+0x8e>
    if (!mutex) return;
    4cae:	0001                	nop
    4cb0:	a011                	j	4cb4 <osal_mutex_destroy+0x8e>
    if (osal_in_isr()) return;  /* 中断中不能销毁 */
    4cb2:	0001                	nop
        }
    }
}
    4cb4:	50b2                	lw	ra,44(sp)
    4cb6:	5422                	lw	s0,40(sp)
    4cb8:	6145                	addi	sp,sp,48
    4cba:	8082                	ret

00004cbc <osal_mutex_lock>:

int osal_mutex_lock(struct osal_mutex* mutex, uint32_t timeout_ms)
{
    4cbc:	7179                	addi	sp,sp,-48
    4cbe:	d606                	sw	ra,44(sp)
    4cc0:	d422                	sw	s0,40(sp)
    4cc2:	1800                	addi	s0,sp,48
    4cc4:	fca42e23          	sw	a0,-36(s0)
    4cc8:	fcb42c23          	sw	a1,-40(s0)
    if (!mutex || !mutex->handle) return -1;
    4ccc:	fdc42783          	lw	a5,-36(s0)
    4cd0:	c789                	beqz	a5,4cda <osal_mutex_lock+0x1e>
    4cd2:	fdc42783          	lw	a5,-36(s0)
    4cd6:	439c                	lw	a5,0(a5)
    4cd8:	e399                	bnez	a5,4cde <osal_mutex_lock+0x22>
    4cda:	57fd                	li	a5,-1
    4cdc:	a815                	j	4d10 <osal_mutex_lock+0x54>
    if (osal_in_isr()) return -1;  /* 中断中不允许阻塞 */
    4cde:	345d                	jal	4784 <osal_in_isr>
    4ce0:	87aa                	mv	a5,a0
    4ce2:	c399                	beqz	a5,4ce8 <osal_mutex_lock+0x2c>
    4ce4:	57fd                	li	a5,-1
    4ce6:	a02d                	j	4d10 <osal_mutex_lock+0x54>
    osal_tick_t ticks = osal_timeout_to_ticks(timeout_ms);
    4ce8:	fd842503          	lw	a0,-40(s0)
    4cec:	33a5                	jal	4a54 <osal_timeout_to_ticks>
    4cee:	fea42623          	sw	a0,-20(s0)
    return xSemaphoreTakeRecursive(mutex->handle, ticks) == pdTRUE ? 0 : -1;
    4cf2:	fdc42783          	lw	a5,-36(s0)
    4cf6:	439c                	lw	a5,0(a5)
    4cf8:	fec42583          	lw	a1,-20(s0)
    4cfc:	853e                	mv	a0,a5
    4cfe:	56b000ef          	jal	5a68 <xQueueTakeMutexRecursive>
    4d02:	872a                	mv	a4,a0
    4d04:	4785                	li	a5,1
    4d06:	00f71463          	bne	a4,a5,4d0e <osal_mutex_lock+0x52>
    4d0a:	4781                	li	a5,0
    4d0c:	a011                	j	4d10 <osal_mutex_lock+0x54>
    4d0e:	57fd                	li	a5,-1
}
    4d10:	853e                	mv	a0,a5
    4d12:	50b2                	lw	ra,44(sp)
    4d14:	5422                	lw	s0,40(sp)
    4d16:	6145                	addi	sp,sp,48
    4d18:	8082                	ret

00004d1a <osal_mutex_unlock>:

int osal_mutex_unlock(struct osal_mutex* mutex)
{
    4d1a:	1101                	addi	sp,sp,-32
    4d1c:	ce06                	sw	ra,28(sp)
    4d1e:	cc22                	sw	s0,24(sp)
    4d20:	1000                	addi	s0,sp,32
    4d22:	fea42623          	sw	a0,-20(s0)
    if (!mutex || !mutex->handle) return -1;
    4d26:	fec42783          	lw	a5,-20(s0)
    4d2a:	c789                	beqz	a5,4d34 <osal_mutex_unlock+0x1a>
    4d2c:	fec42783          	lw	a5,-20(s0)
    4d30:	439c                	lw	a5,0(a5)
    4d32:	e399                	bnez	a5,4d38 <osal_mutex_unlock+0x1e>
    4d34:	57fd                	li	a5,-1
    4d36:	a01d                	j	4d5c <osal_mutex_unlock+0x42>
    if (osal_in_isr()) return -1;  /* 中断中不允许释放 */
    4d38:	34b1                	jal	4784 <osal_in_isr>
    4d3a:	87aa                	mv	a5,a0
    4d3c:	c399                	beqz	a5,4d42 <osal_mutex_unlock+0x28>
    4d3e:	57fd                	li	a5,-1
    4d40:	a831                	j	4d5c <osal_mutex_unlock+0x42>
    return xSemaphoreGiveRecursive(mutex->handle) == pdTRUE ? 0 : -1;
    4d42:	fec42783          	lw	a5,-20(s0)
    4d46:	439c                	lw	a5,0(a5)
    4d48:	853e                	mv	a0,a5
    4d4a:	4ad000ef          	jal	59f6 <xQueueGiveMutexRecursive>
    4d4e:	872a                	mv	a4,a0
    4d50:	4785                	li	a5,1
    4d52:	00f71463          	bne	a4,a5,4d5a <osal_mutex_unlock+0x40>
    4d56:	4781                	li	a5,0
    4d58:	a011                	j	4d5c <osal_mutex_unlock+0x42>
    4d5a:	57fd                	li	a5,-1
}
    4d5c:	853e                	mv	a0,a5
    4d5e:	40f2                	lw	ra,28(sp)
    4d60:	4462                	lw	s0,24(sp)
    4d62:	6105                	addi	sp,sp,32
    4d64:	8082                	ret

00004d66 <osal_sem_init_binary>:

static struct osal_sem s_sem_pool[OSAL_SEM_POOL_SIZE];
static uint8_t s_sem_used[OSAL_SEM_POOL_SIZE];

static int osal_sem_init_binary(struct osal_sem* sem)
{
    4d66:	1101                	addi	sp,sp,-32
    4d68:	ce06                	sw	ra,28(sp)
    4d6a:	cc22                	sw	s0,24(sp)
    4d6c:	1000                	addi	s0,sp,32
    4d6e:	fea42623          	sw	a0,-20(s0)
    if (!sem)
    4d72:	fec42783          	lw	a5,-20(s0)
    4d76:	e399                	bnez	a5,4d7c <osal_sem_init_binary+0x16>
        return -1;
    4d78:	57fd                	li	a5,-1
    4d7a:	a035                	j	4da6 <osal_sem_init_binary+0x40>

    sem->handle = xSemaphoreCreateBinaryStatic(&sem->sem_buf);
    4d7c:	fec42783          	lw	a5,-20(s0)
    4d80:	0791                	addi	a5,a5,4
    4d82:	470d                	li	a4,3
    4d84:	86be                	mv	a3,a5
    4d86:	4601                	li	a2,0
    4d88:	4581                	li	a1,0
    4d8a:	4505                	li	a0,1
    4d8c:	0a7000ef          	jal	5632 <xQueueGenericCreateStatic>
    4d90:	872a                	mv	a4,a0
    4d92:	fec42783          	lw	a5,-20(s0)
    4d96:	c398                	sw	a4,0(a5)
    if (!sem->handle)
    4d98:	fec42783          	lw	a5,-20(s0)
    4d9c:	439c                	lw	a5,0(a5)
    4d9e:	e399                	bnez	a5,4da4 <osal_sem_init_binary+0x3e>
        return -1;
    4da0:	57fd                	li	a5,-1
    4da2:	a011                	j	4da6 <osal_sem_init_binary+0x40>

    return 0;
    4da4:	4781                	li	a5,0
}
    4da6:	853e                	mv	a0,a5
    4da8:	40f2                	lw	ra,28(sp)
    4daa:	4462                	lw	s0,24(sp)
    4dac:	6105                	addi	sp,sp,32
    4dae:	8082                	ret

00004db0 <osal_sem_create_binary>:

int osal_sem_create_binary(struct osal_sem** out)
{
    4db0:	7179                	addi	sp,sp,-48
    4db2:	d606                	sw	ra,44(sp)
    4db4:	d422                	sw	s0,40(sp)
    4db6:	1800                	addi	s0,sp,48
    4db8:	fca42e23          	sw	a0,-36(s0)
    if (!out)
    4dbc:	fdc42783          	lw	a5,-36(s0)
    4dc0:	e399                	bnez	a5,4dc6 <osal_sem_create_binary+0x16>
        return -1;
    4dc2:	57fd                	li	a5,-1
    4dc4:	a0b5                	j	4e30 <osal_sem_create_binary+0x80>

    int idx = osal_pool_claim(s_sem_used, OSAL_SEM_POOL_SIZE);
    4dc6:	45a1                	li	a1,8
    4dc8:	200037b7          	lui	a5,0x20003
    4dcc:	da078513          	addi	a0,a5,-608 # 20002da0 <s_sem_used>
    4dd0:	3ca5                	jal	4848 <osal_pool_claim>
    4dd2:	fea42623          	sw	a0,-20(s0)
    if (idx < 0)
    4dd6:	fec42783          	lw	a5,-20(s0)
    4dda:	0007d463          	bgez	a5,4de2 <osal_sem_create_binary+0x32>
        return -1;
    4dde:	57fd                	li	a5,-1
    4de0:	a881                	j	4e30 <osal_sem_create_binary+0x80>

    struct osal_sem* sem = &s_sem_pool[idx];
    4de2:	fec42703          	lw	a4,-20(s0)
    4de6:	87ba                	mv	a5,a4
    4de8:	078a                	slli	a5,a5,0x2
    4dea:	97ba                	add	a5,a5,a4
    4dec:	0792                	slli	a5,a5,0x4
    4dee:	20003737          	lui	a4,0x20003
    4df2:	b2070713          	addi	a4,a4,-1248 # 20002b20 <s_sem_pool>
    4df6:	97ba                	add	a5,a5,a4
    4df8:	fef42423          	sw	a5,-24(s0)
    if (osal_sem_init_binary(sem) != 0) {
    4dfc:	fe842503          	lw	a0,-24(s0)
    4e00:	379d                	jal	4d66 <osal_sem_init_binary>
    4e02:	87aa                	mv	a5,a0
    4e04:	cb99                	beqz	a5,4e1a <osal_sem_create_binary+0x6a>
        osal_pool_release(s_sem_used, OSAL_SEM_POOL_SIZE, idx);
    4e06:	fec42603          	lw	a2,-20(s0)
    4e0a:	45a1                	li	a1,8
    4e0c:	200037b7          	lui	a5,0x20003
    4e10:	da078513          	addi	a0,a5,-608 # 20002da0 <s_sem_used>
    4e14:	34d5                	jal	48f8 <osal_pool_release>
        return -1;
    4e16:	57fd                	li	a5,-1
    4e18:	a821                	j	4e30 <osal_sem_create_binary+0x80>
    }

    sem->from_pool = true;
    4e1a:	fe842783          	lw	a5,-24(s0)
    4e1e:	4705                	li	a4,1
    4e20:	04e78623          	sb	a4,76(a5)
    *out = sem;
    4e24:	fdc42783          	lw	a5,-36(s0)
    4e28:	fe842703          	lw	a4,-24(s0)
    4e2c:	c398                	sw	a4,0(a5)
    return 0;
    4e2e:	4781                	li	a5,0
}
    4e30:	853e                	mv	a0,a5
    4e32:	50b2                	lw	ra,44(sp)
    4e34:	5422                	lw	s0,40(sp)
    4e36:	6145                	addi	sp,sp,48
    4e38:	8082                	ret

00004e3a <osal_sem_create_binary_static>:

int osal_sem_create_binary_static(struct osal_sem** out, void* storage, size_t storage_size)
{
    4e3a:	7179                	addi	sp,sp,-48
    4e3c:	d606                	sw	ra,44(sp)
    4e3e:	d422                	sw	s0,40(sp)
    4e40:	1800                	addi	s0,sp,48
    4e42:	fca42e23          	sw	a0,-36(s0)
    4e46:	fcb42c23          	sw	a1,-40(s0)
    4e4a:	fcc42a23          	sw	a2,-44(s0)
    if (!out || !storage || storage_size < sizeof(struct osal_sem))
    4e4e:	fdc42783          	lw	a5,-36(s0)
    4e52:	cb91                	beqz	a5,4e66 <osal_sem_create_binary_static+0x2c>
    4e54:	fd842783          	lw	a5,-40(s0)
    4e58:	c799                	beqz	a5,4e66 <osal_sem_create_binary_static+0x2c>
    4e5a:	fd442703          	lw	a4,-44(s0)
    4e5e:	04f00793          	li	a5,79
    4e62:	00e7e463          	bltu	a5,a4,4e6a <osal_sem_create_binary_static+0x30>
        return -1;
    4e66:	57fd                	li	a5,-1
    4e68:	a035                	j	4e94 <osal_sem_create_binary_static+0x5a>

    struct osal_sem* sem = (struct osal_sem*)storage;
    4e6a:	fd842783          	lw	a5,-40(s0)
    4e6e:	fef42623          	sw	a5,-20(s0)
    if (osal_sem_init_binary(sem) != 0)
    4e72:	fec42503          	lw	a0,-20(s0)
    4e76:	3dc5                	jal	4d66 <osal_sem_init_binary>
    4e78:	87aa                	mv	a5,a0
    4e7a:	c399                	beqz	a5,4e80 <osal_sem_create_binary_static+0x46>
        return -1;
    4e7c:	57fd                	li	a5,-1
    4e7e:	a819                	j	4e94 <osal_sem_create_binary_static+0x5a>

    sem->from_pool = false;
    4e80:	fec42783          	lw	a5,-20(s0)
    4e84:	04078623          	sb	zero,76(a5)
    *out = sem;
    4e88:	fdc42783          	lw	a5,-36(s0)
    4e8c:	fec42703          	lw	a4,-20(s0)
    4e90:	c398                	sw	a4,0(a5)
    return 0;
    4e92:	4781                	li	a5,0
}
    4e94:	853e                	mv	a0,a5
    4e96:	50b2                	lw	ra,44(sp)
    4e98:	5422                	lw	s0,40(sp)
    4e9a:	6145                	addi	sp,sp,48
    4e9c:	8082                	ret

00004e9e <osal_sem_destroy>:

void osal_sem_destroy(struct osal_sem* sem)
{
    4e9e:	7179                	addi	sp,sp,-48
    4ea0:	d606                	sw	ra,44(sp)
    4ea2:	d422                	sw	s0,40(sp)
    4ea4:	1800                	addi	s0,sp,48
    4ea6:	fca42e23          	sw	a0,-36(s0)
    if (!sem || !sem->handle)
    4eaa:	fdc42783          	lw	a5,-36(s0)
    4eae:	cbbd                	beqz	a5,4f24 <osal_sem_destroy+0x86>
    4eb0:	fdc42783          	lw	a5,-36(s0)
    4eb4:	439c                	lw	a5,0(a5)
    4eb6:	c7bd                	beqz	a5,4f24 <osal_sem_destroy+0x86>
        return;

    vSemaphoreDelete(sem->handle);
    4eb8:	fdc42783          	lw	a5,-36(s0)
    4ebc:	439c                	lw	a5,0(a5)
    4ebe:	853e                	mv	a0,a5
    4ec0:	22d010ef          	jal	68ec <vQueueDelete>
    sem->handle = NULL;
    4ec4:	fdc42783          	lw	a5,-36(s0)
    4ec8:	0007a023          	sw	zero,0(a5)

    if (sem->from_pool) {
    4ecc:	fdc42783          	lw	a5,-36(s0)
    4ed0:	04c7c783          	lbu	a5,76(a5)
    4ed4:	cba9                	beqz	a5,4f26 <osal_sem_destroy+0x88>
        for (size_t i = 0; i < OSAL_SEM_POOL_SIZE; i++) {
    4ed6:	fe042623          	sw	zero,-20(s0)
    4eda:	a83d                	j	4f18 <osal_sem_destroy+0x7a>
            if (&s_sem_pool[i] == sem) {
    4edc:	fec42703          	lw	a4,-20(s0)
    4ee0:	87ba                	mv	a5,a4
    4ee2:	078a                	slli	a5,a5,0x2
    4ee4:	97ba                	add	a5,a5,a4
    4ee6:	0792                	slli	a5,a5,0x4
    4ee8:	20003737          	lui	a4,0x20003
    4eec:	b2070713          	addi	a4,a4,-1248 # 20002b20 <s_sem_pool>
    4ef0:	97ba                	add	a5,a5,a4
    4ef2:	fdc42703          	lw	a4,-36(s0)
    4ef6:	00f71c63          	bne	a4,a5,4f0e <osal_sem_destroy+0x70>
                osal_pool_release(s_sem_used, OSAL_SEM_POOL_SIZE, (int)i);
    4efa:	fec42783          	lw	a5,-20(s0)
    4efe:	863e                	mv	a2,a5
    4f00:	45a1                	li	a1,8
    4f02:	200037b7          	lui	a5,0x20003
    4f06:	da078513          	addi	a0,a5,-608 # 20002da0 <s_sem_used>
    4f0a:	32fd                	jal	48f8 <osal_pool_release>
                break;
    4f0c:	a829                	j	4f26 <osal_sem_destroy+0x88>
        for (size_t i = 0; i < OSAL_SEM_POOL_SIZE; i++) {
    4f0e:	fec42783          	lw	a5,-20(s0)
    4f12:	0785                	addi	a5,a5,1
    4f14:	fef42623          	sw	a5,-20(s0)
    4f18:	fec42703          	lw	a4,-20(s0)
    4f1c:	479d                	li	a5,7
    4f1e:	fae7ffe3          	bgeu	a5,a4,4edc <osal_sem_destroy+0x3e>
    4f22:	a011                	j	4f26 <osal_sem_destroy+0x88>
        return;
    4f24:	0001                	nop
            }
        }
    }
}
    4f26:	50b2                	lw	ra,44(sp)
    4f28:	5422                	lw	s0,40(sp)
    4f2a:	6145                	addi	sp,sp,48
    4f2c:	8082                	ret

00004f2e <osal_sem_wait>:

int osal_sem_wait(struct osal_sem* sem, uint32_t timeout_ms)
{
    4f2e:	7179                	addi	sp,sp,-48
    4f30:	d606                	sw	ra,44(sp)
    4f32:	d422                	sw	s0,40(sp)
    4f34:	1800                	addi	s0,sp,48
    4f36:	fca42e23          	sw	a0,-36(s0)
    4f3a:	fcb42c23          	sw	a1,-40(s0)
    if (!sem || !sem->handle || osal_in_isr())
    4f3e:	fdc42783          	lw	a5,-36(s0)
    4f42:	cb89                	beqz	a5,4f54 <osal_sem_wait+0x26>
    4f44:	fdc42783          	lw	a5,-36(s0)
    4f48:	439c                	lw	a5,0(a5)
    4f4a:	c789                	beqz	a5,4f54 <osal_sem_wait+0x26>
    4f4c:	839ff0ef          	jal	4784 <osal_in_isr>
    4f50:	87aa                	mv	a5,a0
    4f52:	c399                	beqz	a5,4f58 <osal_sem_wait+0x2a>
        return -1;
    4f54:	57fd                	li	a5,-1
    4f56:	a02d                	j	4f80 <osal_sem_wait+0x52>

    osal_tick_t ticks = osal_timeout_to_ticks(timeout_ms);
    4f58:	fd842503          	lw	a0,-40(s0)
    4f5c:	3ce5                	jal	4a54 <osal_timeout_to_ticks>
    4f5e:	fea42623          	sw	a0,-20(s0)
    return xSemaphoreTake(sem->handle, ticks) == pdTRUE ? 0 : -1;
    4f62:	fdc42783          	lw	a5,-36(s0)
    4f66:	439c                	lw	a5,0(a5)
    4f68:	fec42583          	lw	a1,-20(s0)
    4f6c:	853e                	mv	a0,a5
    4f6e:	2a0010ef          	jal	620e <xQueueSemaphoreTake>
    4f72:	872a                	mv	a4,a0
    4f74:	4785                	li	a5,1
    4f76:	00f71463          	bne	a4,a5,4f7e <osal_sem_wait+0x50>
    4f7a:	4781                	li	a5,0
    4f7c:	a011                	j	4f80 <osal_sem_wait+0x52>
    4f7e:	57fd                	li	a5,-1
}
    4f80:	853e                	mv	a0,a5
    4f82:	50b2                	lw	ra,44(sp)
    4f84:	5422                	lw	s0,40(sp)
    4f86:	6145                	addi	sp,sp,48
    4f88:	8082                	ret

00004f8a <osal_sem_post>:

bool osal_sem_post(struct osal_sem* sem)
{
    4f8a:	1101                	addi	sp,sp,-32
    4f8c:	ce06                	sw	ra,28(sp)
    4f8e:	cc22                	sw	s0,24(sp)
    4f90:	1000                	addi	s0,sp,32
    4f92:	fea42623          	sw	a0,-20(s0)
    if (!sem || !sem->handle || osal_in_isr())
    4f96:	fec42783          	lw	a5,-20(s0)
    4f9a:	cb89                	beqz	a5,4fac <osal_sem_post+0x22>
    4f9c:	fec42783          	lw	a5,-20(s0)
    4fa0:	439c                	lw	a5,0(a5)
    4fa2:	c789                	beqz	a5,4fac <osal_sem_post+0x22>
    4fa4:	fe0ff0ef          	jal	4784 <osal_in_isr>
    4fa8:	87aa                	mv	a5,a0
    4faa:	c399                	beqz	a5,4fb0 <osal_sem_post+0x26>
        return false;
    4fac:	4781                	li	a5,0
    4fae:	a005                	j	4fce <osal_sem_post+0x44>

    return xSemaphoreGive(sem->handle) == pdTRUE;
    4fb0:	fec42783          	lw	a5,-20(s0)
    4fb4:	439c                	lw	a5,0(a5)
    4fb6:	4681                	li	a3,0
    4fb8:	4601                	li	a2,0
    4fba:	4581                	li	a1,0
    4fbc:	853e                	mv	a0,a5
    4fbe:	415000ef          	jal	5bd2 <xQueueGenericSend>
    4fc2:	87aa                	mv	a5,a0
    4fc4:	17fd                	addi	a5,a5,-1
    4fc6:	0017b793          	seqz	a5,a5
    4fca:	0ff7f793          	zext.b	a5,a5
}
    4fce:	853e                	mv	a0,a5
    4fd0:	40f2                	lw	ra,28(sp)
    4fd2:	4462                	lw	s0,24(sp)
    4fd4:	6105                	addi	sp,sp,32
    4fd6:	8082                	ret

00004fd8 <osal_note_isr_yield>:

static inline void osal_note_isr_yield(bool* px_yield_required, BaseType_t higher_prio_woken)
{
    4fd8:	1101                	addi	sp,sp,-32
    4fda:	ce06                	sw	ra,28(sp)
    4fdc:	cc22                	sw	s0,24(sp)
    4fde:	1000                	addi	s0,sp,32
    4fe0:	fea42623          	sw	a0,-20(s0)
    4fe4:	feb42423          	sw	a1,-24(s0)
    if (px_yield_required != NULL && higher_prio_woken == pdTRUE)
    4fe8:	fec42783          	lw	a5,-20(s0)
    4fec:	cb99                	beqz	a5,5002 <osal_note_isr_yield+0x2a>
    4fee:	fe842703          	lw	a4,-24(s0)
    4ff2:	4785                	li	a5,1
    4ff4:	00f71763          	bne	a4,a5,5002 <osal_note_isr_yield+0x2a>
        *px_yield_required = true;
    4ff8:	fec42783          	lw	a5,-20(s0)
    4ffc:	4705                	li	a4,1
    4ffe:	00e78023          	sb	a4,0(a5)
}
    5002:	0001                	nop
    5004:	40f2                	lw	ra,28(sp)
    5006:	4462                	lw	s0,24(sp)
    5008:	6105                	addi	sp,sp,32
    500a:	8082                	ret

0000500c <osal_sem_post_from_isr>:

bool osal_sem_post_from_isr(struct osal_sem* sem, bool* px_yield_required)
{
    500c:	7179                	addi	sp,sp,-48
    500e:	d606                	sw	ra,44(sp)
    5010:	d422                	sw	s0,40(sp)
    5012:	1800                	addi	s0,sp,48
    5014:	fca42e23          	sw	a0,-36(s0)
    5018:	fcb42c23          	sw	a1,-40(s0)
    if (!sem || !sem->handle)
    501c:	fdc42783          	lw	a5,-36(s0)
    5020:	c789                	beqz	a5,502a <osal_sem_post_from_isr+0x1e>
    5022:	fdc42783          	lw	a5,-36(s0)
    5026:	439c                	lw	a5,0(a5)
    5028:	e399                	bnez	a5,502e <osal_sem_post_from_isr+0x22>
        return false;
    502a:	4781                	li	a5,0
    502c:	a81d                	j	5062 <osal_sem_post_from_isr+0x56>

    BaseType_t higher_prio_woken = pdFALSE;
    502e:	fe042423          	sw	zero,-24(s0)
    BaseType_t ret = xSemaphoreGiveFromISR(sem->handle, &higher_prio_woken);
    5032:	fdc42783          	lw	a5,-36(s0)
    5036:	439c                	lw	a5,0(a5)
    5038:	fe840713          	addi	a4,s0,-24
    503c:	85ba                	mv	a1,a4
    503e:	853e                	mv	a0,a5
    5040:	6d3000ef          	jal	5f12 <xQueueGiveFromISR>
    5044:	fea42623          	sw	a0,-20(s0)
    osal_note_isr_yield(px_yield_required, higher_prio_woken);
    5048:	fe842783          	lw	a5,-24(s0)
    504c:	85be                	mv	a1,a5
    504e:	fd842503          	lw	a0,-40(s0)
    5052:	3759                	jal	4fd8 <osal_note_isr_yield>
    return ret == pdTRUE;
    5054:	fec42783          	lw	a5,-20(s0)
    5058:	17fd                	addi	a5,a5,-1
    505a:	0017b793          	seqz	a5,a5
    505e:	0ff7f793          	zext.b	a5,a5
}
    5062:	853e                	mv	a0,a5
    5064:	50b2                	lw	ra,44(sp)
    5066:	5422                	lw	s0,40(sp)
    5068:	6145                	addi	sp,sp,48
    506a:	8082                	ret

0000506c <osal_yield_from_isr>:

void osal_yield_from_isr(bool yield_required)
{
    506c:	1101                	addi	sp,sp,-32
    506e:	ce06                	sw	ra,28(sp)
    5070:	cc22                	sw	s0,24(sp)
    5072:	1000                	addi	s0,sp,32
    5074:	87aa                	mv	a5,a0
    5076:	fef407a3          	sb	a5,-17(s0)
    if (yield_required)
    507a:	fef44783          	lbu	a5,-17(s0)
    507e:	c399                	beqz	a5,5084 <osal_yield_from_isr+0x18>
        portYIELD_FROM_ISR(pdTRUE);
    5080:	e1bfc0ef          	jal	1e9a <vTaskSwitchContext>
}
    5084:	0001                	nop
    5086:	40f2                	lw	ra,28(sp)
    5088:	4462                	lw	s0,24(sp)
    508a:	6105                	addi	sp,sp,32
    508c:	8082                	ret

0000508e <osal_sched_suspend>:

/* ── 调度器挂起 / 中断禁用 (safe_state, bootloop 防护) ── */
void osal_sched_suspend(void)
{
    508e:	1141                	addi	sp,sp,-16
    5090:	c606                	sw	ra,12(sp)
    5092:	c422                	sw	s0,8(sp)
    5094:	0800                	addi	s0,sp,16
    vTaskSuspendAll();
    5096:	dc4fc0ef          	jal	165a <vTaskSuspendAll>
}
    509a:	0001                	nop
    509c:	40b2                	lw	ra,12(sp)
    509e:	4422                	lw	s0,8(sp)
    50a0:	0141                	addi	sp,sp,16
    50a2:	8082                	ret

000050a4 <osal_int_disable>:

void osal_int_disable(void)
{
    50a4:	1141                	addi	sp,sp,-16
    50a6:	c606                	sw	ra,12(sp)
    50a8:	c422                	sw	s0,8(sp)
    50aa:	0800                	addi	s0,sp,16
    portDISABLE_INTERRUPTS();
    50ac:	30047073          	csrci	mstatus,8
}
    50b0:	0001                	nop
    50b2:	40b2                	lw	ra,12(sp)
    50b4:	4422                	lw	s0,8(sp)
    50b6:	0141                	addi	sp,sp,16
    50b8:	8082                	ret

000050ba <vApplicationGetIdleTaskMemory>:
static StaticTask_t  s_idle_tcb;

void vApplicationGetIdleTaskMemory(StaticTask_t** ppxIdleTaskTCBBuffer,
                                    StackType_t** ppxIdleTaskStackBuffer,
                                    uint32_t* pulIdleTaskStackSize)
{
    50ba:	1101                	addi	sp,sp,-32
    50bc:	ce06                	sw	ra,28(sp)
    50be:	cc22                	sw	s0,24(sp)
    50c0:	1000                	addi	s0,sp,32
    50c2:	fea42623          	sw	a0,-20(s0)
    50c6:	feb42423          	sw	a1,-24(s0)
    50ca:	fec42223          	sw	a2,-28(s0)
    *ppxIdleTaskTCBBuffer   = &s_idle_tcb;
    50ce:	fec42783          	lw	a5,-20(s0)
    50d2:	20003737          	lui	a4,0x20003
    50d6:	fa870713          	addi	a4,a4,-88 # 20002fa8 <s_idle_tcb>
    50da:	c398                	sw	a4,0(a5)
    *ppxIdleTaskStackBuffer = s_idle_stack;
    50dc:	fe842783          	lw	a5,-24(s0)
    50e0:	20003737          	lui	a4,0x20003
    50e4:	da870713          	addi	a4,a4,-600 # 20002da8 <s_idle_stack>
    50e8:	c398                	sw	a4,0(a5)
    *pulIdleTaskStackSize   = configMINIMAL_STACK_SIZE;
    50ea:	fe442783          	lw	a5,-28(s0)
    50ee:	08000713          	li	a4,128
    50f2:	c398                	sw	a4,0(a5)
}
    50f4:	0001                	nop
    50f6:	40f2                	lw	ra,28(sp)
    50f8:	4462                	lw	s0,24(sp)
    50fa:	6105                	addi	sp,sp,32
    50fc:	8082                	ret

000050fe <osal_stack_words>:
#endif /* !ESP_PLATFORM */

/* ── 任务 (stack_size 字节 → FreeRTOS words 转换) ── */
static inline uint32_t osal_stack_words(uint32_t stack_bytes)
{
    50fe:	1101                	addi	sp,sp,-32
    5100:	ce06                	sw	ra,28(sp)
    5102:	cc22                	sw	s0,24(sp)
    5104:	1000                	addi	s0,sp,32
    5106:	fea42623          	sw	a0,-20(s0)
    return (stack_bytes + sizeof(StackType_t) - 1) / sizeof(StackType_t);
    510a:	fec42783          	lw	a5,-20(s0)
    510e:	078d                	addi	a5,a5,3
    5110:	8389                	srli	a5,a5,0x2
}
    5112:	853e                	mv	a0,a5
    5114:	40f2                	lw	ra,28(sp)
    5116:	4462                	lw	s0,24(sp)
    5118:	6105                	addi	sp,sp,32
    511a:	8082                	ret

0000511c <osal_task_create>:

int osal_task_create(const char* name, uint32_t stack_size,
                     uint32_t priority, osal_task_entry_t entry,
                     void* param, int core_id)
{
    511c:	7139                	addi	sp,sp,-64
    511e:	de06                	sw	ra,60(sp)
    5120:	dc22                	sw	s0,56(sp)
    5122:	0080                	addi	s0,sp,64
    5124:	fca42e23          	sw	a0,-36(s0)
    5128:	fcb42c23          	sw	a1,-40(s0)
    512c:	fcc42a23          	sw	a2,-44(s0)
    5130:	fcd42823          	sw	a3,-48(s0)
    5134:	fce42623          	sw	a4,-52(s0)
    5138:	fcf42423          	sw	a5,-56(s0)
    }
#else
    (void)core_id;
#endif

    TaskHandle_t handle = NULL;
    513c:	fe042423          	sw	zero,-24(s0)
    BaseType_t ret = xTaskCreate(entry, name, osal_stack_words(stack_size),
    5140:	fd842503          	lw	a0,-40(s0)
    5144:	3f6d                	jal	50fe <osal_stack_words>
    5146:	862a                	mv	a2,a0
    5148:	fe840793          	addi	a5,s0,-24
    514c:	fd442703          	lw	a4,-44(s0)
    5150:	fcc42683          	lw	a3,-52(s0)
    5154:	fdc42583          	lw	a1,-36(s0)
    5158:	fd042503          	lw	a0,-48(s0)
    515c:	cc0fb0ef          	jal	61c <xTaskCreate>
    5160:	fea42623          	sw	a0,-20(s0)
                                 param, priority, &handle);
    return (ret == pdPASS) ? 0 : -1;
    5164:	fec42703          	lw	a4,-20(s0)
    5168:	4785                	li	a5,1
    516a:	00f71463          	bne	a4,a5,5172 <osal_task_create+0x56>
    516e:	4781                	li	a5,0
    5170:	a011                	j	5174 <osal_task_create+0x58>
    5172:	57fd                	li	a5,-1
}
    5174:	853e                	mv	a0,a5
    5176:	50f2                	lw	ra,60(sp)
    5178:	5462                	lw	s0,56(sp)
    517a:	6121                	addi	sp,sp,64
    517c:	8082                	ret

0000517e <osal_task_create_handle>:
/* ── 任务句柄 ── */
int osal_task_create_handle(const char* name, uint32_t stack_size,
                            uint32_t priority, osal_task_entry_t entry,
                            void* param, int core_id,
                            osal_task_handle_t* out_handle)
{
    517e:	7139                	addi	sp,sp,-64
    5180:	de06                	sw	ra,60(sp)
    5182:	dc22                	sw	s0,56(sp)
    5184:	0080                	addi	s0,sp,64
    5186:	fca42e23          	sw	a0,-36(s0)
    518a:	fcb42c23          	sw	a1,-40(s0)
    518e:	fcc42a23          	sw	a2,-44(s0)
    5192:	fcd42823          	sw	a3,-48(s0)
    5196:	fce42623          	sw	a4,-52(s0)
    519a:	fcf42423          	sw	a5,-56(s0)
    519e:	fd042223          	sw	a6,-60(s0)
    if (!out_handle) return -1;
    51a2:	fc442783          	lw	a5,-60(s0)
    51a6:	e399                	bnez	a5,51ac <osal_task_create_handle+0x2e>
    51a8:	57fd                	li	a5,-1
    51aa:	a091                	j	51ee <osal_task_create_handle+0x70>
    }
#else
    (void)core_id;
#endif

    TaskHandle_t handle = NULL;
    51ac:	fe042423          	sw	zero,-24(s0)
    BaseType_t ret = xTaskCreate(entry, name, osal_stack_words(stack_size),
    51b0:	fd842503          	lw	a0,-40(s0)
    51b4:	37a9                	jal	50fe <osal_stack_words>
    51b6:	862a                	mv	a2,a0
    51b8:	fe840793          	addi	a5,s0,-24
    51bc:	fd442703          	lw	a4,-44(s0)
    51c0:	fcc42683          	lw	a3,-52(s0)
    51c4:	fdc42583          	lw	a1,-36(s0)
    51c8:	fd042503          	lw	a0,-48(s0)
    51cc:	c50fb0ef          	jal	61c <xTaskCreate>
    51d0:	fea42623          	sw	a0,-20(s0)
                                 param, priority, &handle);
    if (ret != pdPASS) return -1;
    51d4:	fec42703          	lw	a4,-20(s0)
    51d8:	4785                	li	a5,1
    51da:	00f70463          	beq	a4,a5,51e2 <osal_task_create_handle+0x64>
    51de:	57fd                	li	a5,-1
    51e0:	a039                	j	51ee <osal_task_create_handle+0x70>
    *out_handle = (osal_task_handle_t)handle;
    51e2:	fe842703          	lw	a4,-24(s0)
    51e6:	fc442783          	lw	a5,-60(s0)
    51ea:	c398                	sw	a4,0(a5)
    return 0;
    51ec:	4781                	li	a5,0
}
    51ee:	853e                	mv	a0,a5
    51f0:	50f2                	lw	ra,60(sp)
    51f2:	5462                	lw	s0,56(sp)
    51f4:	6121                	addi	sp,sp,64
    51f6:	8082                	ret

000051f8 <osal_task_self_delete>:

void osal_task_self_delete(void)
{
    51f8:	1141                	addi	sp,sp,-16
    51fa:	c606                	sw	ra,12(sp)
    51fc:	c422                	sw	s0,8(sp)
    51fe:	0800                	addi	s0,sp,16
    vTaskDelete(NULL);
    5200:	4501                	li	a0,0
    5202:	f72fb0ef          	jal	974 <vTaskDelete>
}
    5206:	0001                	nop
    5208:	40b2                	lw	ra,12(sp)
    520a:	4422                	lw	s0,8(sp)
    520c:	0141                	addi	sp,sp,16
    520e:	8082                	ret

00005210 <osal_task_delete>:

void osal_task_delete(osal_task_handle_t task)
{
    5210:	1101                	addi	sp,sp,-32
    5212:	ce06                	sw	ra,28(sp)
    5214:	cc22                	sw	s0,24(sp)
    5216:	1000                	addi	s0,sp,32
    5218:	fea42623          	sw	a0,-20(s0)
    vTaskDelete((TaskHandle_t)task);
    521c:	fec42503          	lw	a0,-20(s0)
    5220:	f54fb0ef          	jal	974 <vTaskDelete>
}
    5224:	0001                	nop
    5226:	40f2                	lw	ra,28(sp)
    5228:	4462                	lw	s0,24(sp)
    522a:	6105                	addi	sp,sp,32
    522c:	8082                	ret

0000522e <osal_task_is_running>:

bool osal_task_is_running(osal_task_handle_t task)
{
    522e:	1101                	addi	sp,sp,-32
    5230:	ce06                	sw	ra,28(sp)
    5232:	cc22                	sw	s0,24(sp)
    5234:	1000                	addi	s0,sp,32
    5236:	fea42623          	sw	a0,-20(s0)
    if (!task) return false;
    523a:	fec42783          	lw	a5,-20(s0)
    523e:	e399                	bnez	a5,5244 <osal_task_is_running+0x16>
    5240:	4781                	li	a5,0
    5242:	a819                	j	5258 <osal_task_is_running+0x2a>
    return eTaskGetState((TaskHandle_t)task) != eDeleted;
    5244:	fec42503          	lw	a0,-20(s0)
    5248:	8d3fb0ef          	jal	b1a <eTaskGetState>
    524c:	87aa                	mv	a5,a0
    524e:	17f1                	addi	a5,a5,-4
    5250:	00f037b3          	snez	a5,a5
    5254:	0ff7f793          	zext.b	a5,a5
}
    5258:	853e                	mv	a0,a5
    525a:	40f2                	lw	ra,28(sp)
    525c:	4462                	lw	s0,24(sp)
    525e:	6105                	addi	sp,sp,32
    5260:	8082                	ret

00005262 <osal_task_get_name>:

const char* osal_task_get_name(osal_task_handle_t task)
{
    5262:	1101                	addi	sp,sp,-32
    5264:	ce06                	sw	ra,28(sp)
    5266:	cc22                	sw	s0,24(sp)
    5268:	1000                	addi	s0,sp,32
    526a:	fea42623          	sw	a0,-20(s0)
    if (!task) return "?";
    526e:	fec42783          	lw	a5,-20(s0)
    5272:	e789                	bnez	a5,527c <osal_task_get_name+0x1a>
    5274:	67a1                	lui	a5,0x8
    5276:	53078793          	addi	a5,a5,1328 # 8530 <AHBPrescTable+0x40>
    527a:	a031                	j	5286 <osal_task_get_name+0x24>
    return pcTaskGetName((TaskHandle_t)task);
    527c:	fec42503          	lw	a0,-20(s0)
    5280:	ec6fc0ef          	jal	1946 <pcTaskGetName>
    5284:	87aa                	mv	a5,a0
}
    5286:	853e                	mv	a0,a5
    5288:	40f2                	lw	ra,28(sp)
    528a:	4462                	lw	s0,24(sp)
    528c:	6105                	addi	sp,sp,32
    528e:	8082                	ret

00005290 <osal_task_get_stack_watermark>:

uint32_t osal_task_get_stack_watermark(osal_task_handle_t task)
{
    5290:	7179                	addi	sp,sp,-48
    5292:	d606                	sw	ra,44(sp)
    5294:	d422                	sw	s0,40(sp)
    5296:	1800                	addi	s0,sp,48
    5298:	fca42e23          	sw	a0,-36(s0)
    if (!task) return 0;
    529c:	fdc42783          	lw	a5,-36(s0)
    52a0:	e399                	bnez	a5,52a6 <osal_task_get_stack_watermark+0x16>
    52a2:	4781                	li	a5,0
    52a4:	a811                	j	52b8 <osal_task_get_stack_watermark+0x28>
    UBaseType_t wm = uxTaskGetStackHighWaterMark((TaskHandle_t)task);
    52a6:	fdc42503          	lw	a0,-36(s0)
    52aa:	cecfd0ef          	jal	2796 <uxTaskGetStackHighWaterMark>
    52ae:	fea42623          	sw	a0,-20(s0)
    return (uint32_t)wm * sizeof(StackType_t);
    52b2:	fec42783          	lw	a5,-20(s0)
    52b6:	078a                	slli	a5,a5,0x2
}
    52b8:	853e                	mv	a0,a5
    52ba:	50b2                	lw	ra,44(sp)
    52bc:	5422                	lw	s0,40(sp)
    52be:	6145                	addi	sp,sp,48
    52c0:	8082                	ret

000052c2 <osal_queue_create>:

/* ── 队列 ── */
osal_queue_handle_t osal_queue_create(size_t queue_len, size_t item_size)
{
    52c2:	1101                	addi	sp,sp,-32
    52c4:	ce06                	sw	ra,28(sp)
    52c6:	cc22                	sw	s0,24(sp)
    52c8:	1000                	addi	s0,sp,32
    52ca:	fea42623          	sw	a0,-20(s0)
    52ce:	feb42423          	sw	a1,-24(s0)
    return (osal_queue_handle_t)xQueueCreate(queue_len, item_size);
    52d2:	4601                	li	a2,0
    52d4:	fe842583          	lw	a1,-24(s0)
    52d8:	fec42503          	lw	a0,-20(s0)
    52dc:	2151                	jal	5760 <xQueueGenericCreate>
    52de:	87aa                	mv	a5,a0
}
    52e0:	853e                	mv	a0,a5
    52e2:	40f2                	lw	ra,28(sp)
    52e4:	4462                	lw	s0,24(sp)
    52e6:	6105                	addi	sp,sp,32
    52e8:	8082                	ret

000052ea <osal_queue_delete>:

void osal_queue_delete(osal_queue_handle_t queue)
{
    52ea:	1101                	addi	sp,sp,-32
    52ec:	ce06                	sw	ra,28(sp)
    52ee:	cc22                	sw	s0,24(sp)
    52f0:	1000                	addi	s0,sp,32
    52f2:	fea42623          	sw	a0,-20(s0)
    vQueueDelete((QueueHandle_t)queue);
    52f6:	fec42503          	lw	a0,-20(s0)
    52fa:	5f2010ef          	jal	68ec <vQueueDelete>
}
    52fe:	0001                	nop
    5300:	40f2                	lw	ra,28(sp)
    5302:	4462                	lw	s0,24(sp)
    5304:	6105                	addi	sp,sp,32
    5306:	8082                	ret

00005308 <osal_queue_send>:

bool osal_queue_send(osal_queue_handle_t queue, const void* item, uint32_t timeout_ms)
{
    5308:	7179                	addi	sp,sp,-48
    530a:	d606                	sw	ra,44(sp)
    530c:	d422                	sw	s0,40(sp)
    530e:	1800                	addi	s0,sp,48
    5310:	fca42e23          	sw	a0,-36(s0)
    5314:	fcb42c23          	sw	a1,-40(s0)
    5318:	fcc42a23          	sw	a2,-44(s0)
    if (osal_in_isr())
    531c:	c68ff0ef          	jal	4784 <osal_in_isr>
    5320:	87aa                	mv	a5,a0
    5322:	c399                	beqz	a5,5328 <osal_queue_send+0x20>
        return false;
    5324:	4781                	li	a5,0
    5326:	a035                	j	5352 <osal_queue_send+0x4a>

    osal_tick_t ticks = osal_timeout_to_ticks(timeout_ms);
    5328:	fd442503          	lw	a0,-44(s0)
    532c:	f28ff0ef          	jal	4a54 <osal_timeout_to_ticks>
    5330:	fea42623          	sw	a0,-20(s0)
    return xQueueSend((QueueHandle_t)queue, item, ticks) == pdTRUE;
    5334:	4681                	li	a3,0
    5336:	fec42603          	lw	a2,-20(s0)
    533a:	fd842583          	lw	a1,-40(s0)
    533e:	fdc42503          	lw	a0,-36(s0)
    5342:	091000ef          	jal	5bd2 <xQueueGenericSend>
    5346:	87aa                	mv	a5,a0
    5348:	17fd                	addi	a5,a5,-1
    534a:	0017b793          	seqz	a5,a5
    534e:	0ff7f793          	zext.b	a5,a5
}
    5352:	853e                	mv	a0,a5
    5354:	50b2                	lw	ra,44(sp)
    5356:	5422                	lw	s0,40(sp)
    5358:	6145                	addi	sp,sp,48
    535a:	8082                	ret

0000535c <osal_queue_send_from_isr>:

bool osal_queue_send_from_isr(osal_queue_handle_t queue, const void* item,
                              bool* px_yield_required)
{
    535c:	7179                	addi	sp,sp,-48
    535e:	d606                	sw	ra,44(sp)
    5360:	d422                	sw	s0,40(sp)
    5362:	1800                	addi	s0,sp,48
    5364:	fca42e23          	sw	a0,-36(s0)
    5368:	fcb42c23          	sw	a1,-40(s0)
    536c:	fcc42a23          	sw	a2,-44(s0)
    BaseType_t higher_prio_woken = pdFALSE;
    5370:	fe042423          	sw	zero,-24(s0)
    BaseType_t ret = xQueueSendFromISR((QueueHandle_t)queue, item, &higher_prio_woken);
    5374:	fe840793          	addi	a5,s0,-24
    5378:	4681                	li	a3,0
    537a:	863e                	mv	a2,a5
    537c:	fd842583          	lw	a1,-40(s0)
    5380:	fdc42503          	lw	a0,-36(s0)
    5384:	263000ef          	jal	5de6 <xQueueGenericSendFromISR>
    5388:	fea42623          	sw	a0,-20(s0)
    osal_note_isr_yield(px_yield_required, higher_prio_woken);
    538c:	fe842783          	lw	a5,-24(s0)
    5390:	85be                	mv	a1,a5
    5392:	fd442503          	lw	a0,-44(s0)
    5396:	3189                	jal	4fd8 <osal_note_isr_yield>
    return ret == pdTRUE;
    5398:	fec42783          	lw	a5,-20(s0)
    539c:	17fd                	addi	a5,a5,-1
    539e:	0017b793          	seqz	a5,a5
    53a2:	0ff7f793          	zext.b	a5,a5
}
    53a6:	853e                	mv	a0,a5
    53a8:	50b2                	lw	ra,44(sp)
    53aa:	5422                	lw	s0,40(sp)
    53ac:	6145                	addi	sp,sp,48
    53ae:	8082                	ret

000053b0 <osal_queue_receive>:

bool osal_queue_receive(osal_queue_handle_t queue, void* item, uint32_t timeout_ms)
{
    53b0:	7179                	addi	sp,sp,-48
    53b2:	d606                	sw	ra,44(sp)
    53b4:	d422                	sw	s0,40(sp)
    53b6:	1800                	addi	s0,sp,48
    53b8:	fca42e23          	sw	a0,-36(s0)
    53bc:	fcb42c23          	sw	a1,-40(s0)
    53c0:	fcc42a23          	sw	a2,-44(s0)
    if (osal_in_isr())
    53c4:	bc0ff0ef          	jal	4784 <osal_in_isr>
    53c8:	87aa                	mv	a5,a0
    53ca:	c399                	beqz	a5,53d0 <osal_queue_receive+0x20>
        return false;
    53cc:	4781                	li	a5,0
    53ce:	a02d                	j	53f8 <osal_queue_receive+0x48>

    osal_tick_t ticks = osal_timeout_to_ticks(timeout_ms);
    53d0:	fd442503          	lw	a0,-44(s0)
    53d4:	e80ff0ef          	jal	4a54 <osal_timeout_to_ticks>
    53d8:	fea42623          	sw	a0,-20(s0)
    return xQueueReceive((QueueHandle_t)queue, item, ticks) == pdTRUE;
    53dc:	fec42603          	lw	a2,-20(s0)
    53e0:	fd842583          	lw	a1,-40(s0)
    53e4:	fdc42503          	lw	a0,-36(s0)
    53e8:	435000ef          	jal	601c <xQueueReceive>
    53ec:	87aa                	mv	a5,a0
    53ee:	17fd                	addi	a5,a5,-1
    53f0:	0017b793          	seqz	a5,a5
    53f4:	0ff7f793          	zext.b	a5,a5
}
    53f8:	853e                	mv	a0,a5
    53fa:	50b2                	lw	ra,44(sp)
    53fc:	5422                	lw	s0,40(sp)
    53fe:	6145                	addi	sp,sp,48
    5400:	8082                	ret

00005402 <osal_queue_receive_from_isr>:

bool osal_queue_receive_from_isr(osal_queue_handle_t queue, void* item,
                                 bool* px_yield_required)
{
    5402:	7179                	addi	sp,sp,-48
    5404:	d606                	sw	ra,44(sp)
    5406:	d422                	sw	s0,40(sp)
    5408:	1800                	addi	s0,sp,48
    540a:	fca42e23          	sw	a0,-36(s0)
    540e:	fcb42c23          	sw	a1,-40(s0)
    5412:	fcc42a23          	sw	a2,-44(s0)
    BaseType_t higher_prio_woken = pdFALSE;
    5416:	fe042423          	sw	zero,-24(s0)
    BaseType_t ret = xQueueReceiveFromISR((QueueHandle_t)queue, item, &higher_prio_woken);
    541a:	fe840793          	addi	a5,s0,-24
    541e:	863e                	mv	a2,a5
    5420:	fd842583          	lw	a1,-40(s0)
    5424:	fdc42503          	lw	a0,-36(s0)
    5428:	246010ef          	jal	666e <xQueueReceiveFromISR>
    542c:	fea42623          	sw	a0,-20(s0)
    osal_note_isr_yield(px_yield_required, higher_prio_woken);
    5430:	fe842783          	lw	a5,-24(s0)
    5434:	85be                	mv	a1,a5
    5436:	fd442503          	lw	a0,-44(s0)
    543a:	3e79                	jal	4fd8 <osal_note_isr_yield>
    return ret == pdTRUE;
    543c:	fec42783          	lw	a5,-20(s0)
    5440:	17fd                	addi	a5,a5,-1
    5442:	0017b793          	seqz	a5,a5
    5446:	0ff7f793          	zext.b	a5,a5
}
    544a:	853e                	mv	a0,a5
    544c:	50b2                	lw	ra,44(sp)
    544e:	5422                	lw	s0,40(sp)
    5450:	6145                	addi	sp,sp,48
    5452:	8082                	ret

00005454 <safety_hardware_shutdown>:

/* ── 硬件安全关断 (weak) ── */
COMPAT_WEAK void safety_hardware_shutdown(void)
{
    5454:	1141                	addi	sp,sp,-16
    5456:	c606                	sw	ra,12(sp)
    5458:	c422                	sw	s0,8(sp)
    545a:	0800                	addi	s0,sp,16
    COMPAT_TRAP();
    545c:	9002                	ebreak

0000545e <osal_panic_interlock>:
}

/* ── Panic 安全互锁 (weak) ── */
COMPAT_WEAK void osal_panic_interlock(void)
{
    545e:	1141                	addi	sp,sp,-16
    5460:	c606                	sw	ra,12(sp)
    5462:	c422                	sw	s0,8(sp)
    5464:	0800                	addi	s0,sp,16
    /* 板级可覆盖: 喂硬件看门狗, 切断执行器供电, 等待复位 */
}
    5466:	0001                	nop
    5468:	40b2                	lw	ra,12(sp)
    546a:	4422                	lw	s0,8(sp)
    546c:	0141                	addi	sp,sp,16
    546e:	8082                	ret

00005470 <osal_log>:

/* ── 日志 ── */
void osal_log(osal_log_level_t level, const char* tag, const char* fmt, ...)
{
    5470:	715d                	addi	sp,sp,-80
    5472:	d606                	sw	ra,44(sp)
    5474:	d422                	sw	s0,40(sp)
    5476:	1800                	addi	s0,sp,48
    5478:	fca42e23          	sw	a0,-36(s0)
    547c:	fcb42c23          	sw	a1,-40(s0)
    5480:	fcc42a23          	sw	a2,-44(s0)
    5484:	c454                	sw	a3,12(s0)
    5486:	c818                	sw	a4,16(s0)
    5488:	c85c                	sw	a5,20(s0)
    548a:	01042c23          	sw	a6,24(s0)
    548e:	01142e23          	sw	a7,28(s0)
    (void)level;
    if (!fmt) fmt = "(null)";
    5492:	fd442783          	lw	a5,-44(s0)
    5496:	e791                	bnez	a5,54a2 <osal_log+0x32>
    5498:	67a1                	lui	a5,0x8
    549a:	53478793          	addi	a5,a5,1332 # 8534 <AHBPrescTable+0x44>
    549e:	fcf42a23          	sw	a5,-44(s0)

    va_list args;
    va_start(args, fmt);
    54a2:	02040793          	addi	a5,s0,32
    54a6:	fcf42823          	sw	a5,-48(s0)
    54aa:	fd042783          	lw	a5,-48(s0)
    54ae:	17b1                	addi	a5,a5,-20
    54b0:	fef42623          	sw	a5,-20(s0)
    printf("[%s] ", tag ? tag : "drv");
    54b4:	fd842783          	lw	a5,-40(s0)
    54b8:	c781                	beqz	a5,54c0 <osal_log+0x50>
    54ba:	fd842783          	lw	a5,-40(s0)
    54be:	a021                	j	54c6 <osal_log+0x56>
    54c0:	67a1                	lui	a5,0x8
    54c2:	53c78793          	addi	a5,a5,1340 # 853c <AHBPrescTable+0x4c>
    54c6:	85be                	mv	a1,a5
    54c8:	67a1                	lui	a5,0x8
    54ca:	54078513          	addi	a0,a5,1344 # 8540 <AHBPrescTable+0x50>
    54ce:	13e020ef          	jal	760c <iprintf>
    vprintf(fmt, args);
    54d2:	fec42783          	lw	a5,-20(s0)
    54d6:	85be                	mv	a1,a5
    54d8:	fd442503          	lw	a0,-44(s0)
    54dc:	164020ef          	jal	7640 <viprintf>
    printf("\n");
    54e0:	4529                	li	a0,10
    54e2:	152020ef          	jal	7634 <putchar>
    va_end(args);
}
    54e6:	0001                	nop
    54e8:	50b2                	lw	ra,44(sp)
    54ea:	5422                	lw	s0,40(sp)
    54ec:	6161                	addi	sp,sp,80
    54ee:	8082                	ret

000054f0 <xQueueGenericReset>:
    } while( 0 )
/*-----------------------------------------------------------*/

BaseType_t xQueueGenericReset( QueueHandle_t xQueue,
                               BaseType_t xNewQueue )
{
    54f0:	7179                	addi	sp,sp,-48
    54f2:	d606                	sw	ra,44(sp)
    54f4:	d422                	sw	s0,40(sp)
    54f6:	1800                	addi	s0,sp,48
    54f8:	fca42e23          	sw	a0,-36(s0)
    54fc:	fcb42c23          	sw	a1,-40(s0)
    BaseType_t xReturn = pdPASS;
    5500:	4785                	li	a5,1
    5502:	fef42623          	sw	a5,-20(s0)
    Queue_t * const pxQueue = xQueue;
    5506:	fdc42783          	lw	a5,-36(s0)
    550a:	fef42423          	sw	a5,-24(s0)

    traceENTER_xQueueGenericReset( xQueue, xNewQueue );

    configASSERT( pxQueue );
    550e:	fe842783          	lw	a5,-24(s0)
    5512:	e781                	bnez	a5,551a <xQueueGenericReset+0x2a>
    5514:	30047073          	csrci	mstatus,8
    5518:	a001                	j	5518 <xQueueGenericReset+0x28>

    if( ( pxQueue != NULL ) &&
    551a:	fe842783          	lw	a5,-24(s0)
    551e:	0e078b63          	beqz	a5,5614 <xQueueGenericReset+0x124>
        ( pxQueue->uxLength >= 1U ) &&
    5522:	fe842783          	lw	a5,-24(s0)
    5526:	5fdc                	lw	a5,60(a5)
    if( ( pxQueue != NULL ) &&
    5528:	0e078663          	beqz	a5,5614 <xQueueGenericReset+0x124>
        /* Check for multiplication overflow. */
        ( ( SIZE_MAX / pxQueue->uxLength ) >= pxQueue->uxItemSize ) )
    552c:	fe842783          	lw	a5,-24(s0)
    5530:	43b8                	lw	a4,64(a5)
    5532:	fe842783          	lw	a5,-24(s0)
    5536:	5fdc                	lw	a5,60(a5)
    5538:	4681                	li	a3,0
    553a:	02f737b3          	mulhu	a5,a4,a5
    553e:	c391                	beqz	a5,5542 <xQueueGenericReset+0x52>
    5540:	4685                	li	a3,1
    5542:	87b6                	mv	a5,a3
        ( pxQueue->uxLength >= 1U ) &&
    5544:	ebe1                	bnez	a5,5614 <xQueueGenericReset+0x124>
    {
        taskENTER_CRITICAL();
    5546:	30047073          	csrci	mstatus,8
    554a:	8081a783          	lw	a5,-2040(gp) # 20000060 <xCriticalNesting>
    554e:	00178713          	addi	a4,a5,1
    5552:	80e1a423          	sw	a4,-2040(gp) # 20000060 <xCriticalNesting>
        {
            pxQueue->u.xQueue.pcTail = pxQueue->pcHead + ( pxQueue->uxLength * pxQueue->uxItemSize );
    5556:	fe842783          	lw	a5,-24(s0)
    555a:	4398                	lw	a4,0(a5)
    555c:	fe842783          	lw	a5,-24(s0)
    5560:	5fd4                	lw	a3,60(a5)
    5562:	fe842783          	lw	a5,-24(s0)
    5566:	43bc                	lw	a5,64(a5)
    5568:	02f687b3          	mul	a5,a3,a5
    556c:	973e                	add	a4,a4,a5
    556e:	fe842783          	lw	a5,-24(s0)
    5572:	c798                	sw	a4,8(a5)
            pxQueue->uxMessagesWaiting = ( UBaseType_t ) 0U;
    5574:	fe842783          	lw	a5,-24(s0)
    5578:	0207ac23          	sw	zero,56(a5)
            pxQueue->pcWriteTo = pxQueue->pcHead;
    557c:	fe842783          	lw	a5,-24(s0)
    5580:	4398                	lw	a4,0(a5)
    5582:	fe842783          	lw	a5,-24(s0)
    5586:	c3d8                	sw	a4,4(a5)
            pxQueue->u.xQueue.pcReadFrom = pxQueue->pcHead + ( ( pxQueue->uxLength - 1U ) * pxQueue->uxItemSize );
    5588:	fe842783          	lw	a5,-24(s0)
    558c:	4398                	lw	a4,0(a5)
    558e:	fe842783          	lw	a5,-24(s0)
    5592:	5fdc                	lw	a5,60(a5)
    5594:	fff78693          	addi	a3,a5,-1
    5598:	fe842783          	lw	a5,-24(s0)
    559c:	43bc                	lw	a5,64(a5)
    559e:	02f687b3          	mul	a5,a3,a5
    55a2:	973e                	add	a4,a4,a5
    55a4:	fe842783          	lw	a5,-24(s0)
    55a8:	c7d8                	sw	a4,12(a5)
            pxQueue->cRxLock = queueUNLOCKED;
    55aa:	fe842783          	lw	a5,-24(s0)
    55ae:	577d                	li	a4,-1
    55b0:	04e78223          	sb	a4,68(a5)
            pxQueue->cTxLock = queueUNLOCKED;
    55b4:	fe842783          	lw	a5,-24(s0)
    55b8:	577d                	li	a4,-1
    55ba:	04e782a3          	sb	a4,69(a5)

            if( xNewQueue == pdFALSE )
    55be:	fd842783          	lw	a5,-40(s0)
    55c2:	e385                	bnez	a5,55e2 <xQueueGenericReset+0xf2>
                /* If there are tasks blocked waiting to read from the queue, then
                 * the tasks will remain blocked as after this function exits the queue
                 * will still be empty.  If there are tasks blocked waiting to write to
                 * the queue, then one should be unblocked as after this function exits
                 * it will be possible to write to it. */
                if( listLIST_IS_EMPTY( &( pxQueue->xTasksWaitingToSend ) ) == pdFALSE )
    55c4:	fe842783          	lw	a5,-24(s0)
    55c8:	4b9c                	lw	a5,16(a5)
    55ca:	cb8d                	beqz	a5,55fc <xQueueGenericReset+0x10c>
                {
                    if( xTaskRemoveFromEventList( &( pxQueue->xTasksWaitingToSend ) ) != pdFALSE )
    55cc:	fe842783          	lw	a5,-24(s0)
    55d0:	07c1                	addi	a5,a5,16
    55d2:	853e                	mv	a0,a5
    55d4:	ad9fc0ef          	jal	20ac <xTaskRemoveFromEventList>
    55d8:	87aa                	mv	a5,a0
    55da:	c38d                	beqz	a5,55fc <xQueueGenericReset+0x10c>
                    {
                        queueYIELD_IF_USING_PREEMPTION();
    55dc:	00000073          	ecall
    55e0:	a831                	j	55fc <xQueueGenericReset+0x10c>
                }
            }
            else
            {
                /* Ensure the event queues start in the correct state. */
                vListInitialise( &( pxQueue->xTasksWaitingToSend ) );
    55e2:	fe842783          	lw	a5,-24(s0)
    55e6:	07c1                	addi	a5,a5,16
    55e8:	853e                	mv	a0,a5
    55ea:	e6cfe0ef          	jal	3c56 <vListInitialise>
                vListInitialise( &( pxQueue->xTasksWaitingToReceive ) );
    55ee:	fe842783          	lw	a5,-24(s0)
    55f2:	02478793          	addi	a5,a5,36
    55f6:	853e                	mv	a0,a5
    55f8:	e5efe0ef          	jal	3c56 <vListInitialise>
            }
        }
        taskEXIT_CRITICAL();
    55fc:	8081a783          	lw	a5,-2040(gp) # 20000060 <xCriticalNesting>
    5600:	fff78713          	addi	a4,a5,-1
    5604:	80e1a423          	sw	a4,-2040(gp) # 20000060 <xCriticalNesting>
    5608:	8081a783          	lw	a5,-2040(gp) # 20000060 <xCriticalNesting>
    560c:	e791                	bnez	a5,5618 <xQueueGenericReset+0x128>
    560e:	30046073          	csrsi	mstatus,8
    5612:	a019                	j	5618 <xQueueGenericReset+0x128>
    }
    else
    {
        xReturn = pdFAIL;
    5614:	fe042623          	sw	zero,-20(s0)
    }

    configASSERT( xReturn != pdFAIL );
    5618:	fec42783          	lw	a5,-20(s0)
    561c:	e781                	bnez	a5,5624 <xQueueGenericReset+0x134>
    561e:	30047073          	csrci	mstatus,8
    5622:	a001                	j	5622 <xQueueGenericReset+0x132>

    /* A value is returned for calling semantic consistency with previous
     * versions. */
    traceRETURN_xQueueGenericReset( xReturn );

    return xReturn;
    5624:	fec42783          	lw	a5,-20(s0)
}
    5628:	853e                	mv	a0,a5
    562a:	50b2                	lw	ra,44(sp)
    562c:	5422                	lw	s0,40(sp)
    562e:	6145                	addi	sp,sp,48
    5630:	8082                	ret

00005632 <xQueueGenericCreateStatic>:
    QueueHandle_t xQueueGenericCreateStatic( const UBaseType_t uxQueueLength,
                                             const UBaseType_t uxItemSize,
                                             uint8_t * pucQueueStorage,
                                             StaticQueue_t * pxStaticQueue,
                                             const uint8_t ucQueueType )
    {
    5632:	7139                	addi	sp,sp,-64
    5634:	de06                	sw	ra,60(sp)
    5636:	dc22                	sw	s0,56(sp)
    5638:	0080                	addi	s0,sp,64
    563a:	fca42e23          	sw	a0,-36(s0)
    563e:	fcb42c23          	sw	a1,-40(s0)
    5642:	fcc42a23          	sw	a2,-44(s0)
    5646:	fcd42823          	sw	a3,-48(s0)
    564a:	87ba                	mv	a5,a4
    564c:	fcf407a3          	sb	a5,-49(s0)
        Queue_t * pxNewQueue = NULL;
    5650:	fe042623          	sw	zero,-20(s0)

        traceENTER_xQueueGenericCreateStatic( uxQueueLength, uxItemSize, pucQueueStorage, pxStaticQueue, ucQueueType );

        /* The StaticQueue_t structure and the queue storage area must be
         * supplied. */
        configASSERT( pxStaticQueue );
    5654:	fd042783          	lw	a5,-48(s0)
    5658:	e781                	bnez	a5,5660 <xQueueGenericCreateStatic+0x2e>
    565a:	30047073          	csrci	mstatus,8
    565e:	a001                	j	565e <xQueueGenericCreateStatic+0x2c>

        if( ( uxQueueLength > ( UBaseType_t ) 0 ) &&
    5660:	fdc42783          	lw	a5,-36(s0)
    5664:	c7ad                	beqz	a5,56ce <xQueueGenericCreateStatic+0x9c>
    5666:	fd042783          	lw	a5,-48(s0)
    566a:	c3b5                	beqz	a5,56ce <xQueueGenericCreateStatic+0x9c>
            ( pxStaticQueue != NULL ) &&
    566c:	fd442783          	lw	a5,-44(s0)
    5670:	c781                	beqz	a5,5678 <xQueueGenericCreateStatic+0x46>

            /* A queue storage area should be provided if the item size is not 0, and
             * should not be provided if the item size is 0. */
            ( !( ( pucQueueStorage != NULL ) && ( uxItemSize == 0U ) ) ) &&
    5672:	fd842783          	lw	a5,-40(s0)
    5676:	cfa1                	beqz	a5,56ce <xQueueGenericCreateStatic+0x9c>
    5678:	fd442783          	lw	a5,-44(s0)
    567c:	e781                	bnez	a5,5684 <xQueueGenericCreateStatic+0x52>
            ( !( ( pucQueueStorage == NULL ) && ( uxItemSize != 0U ) ) ) )
    567e:	fd842783          	lw	a5,-40(s0)
    5682:	e7b1                	bnez	a5,56ce <xQueueGenericCreateStatic+0x9c>
            #if ( configASSERT_DEFINED == 1 )
            {
                /* Sanity check that the size of the structure used to declare a
                 * variable of type StaticQueue_t or StaticSemaphore_t equals the size of
                 * the real queue and semaphore structures. */
                volatile size_t xSize = sizeof( StaticQueue_t );
    5684:	04800793          	li	a5,72
    5688:	fef42423          	sw	a5,-24(s0)

                /* This assertion cannot be branch covered in unit tests */
                configASSERT( xSize == sizeof( Queue_t ) ); /* LCOV_EXCL_BR_LINE */
    568c:	fe842703          	lw	a4,-24(s0)
    5690:	04800793          	li	a5,72
    5694:	00f70563          	beq	a4,a5,569e <xQueueGenericCreateStatic+0x6c>
    5698:	30047073          	csrci	mstatus,8
    569c:	a001                	j	569c <xQueueGenericCreateStatic+0x6a>
                ( void ) xSize;                             /* Prevent unused variable warning when configASSERT() is not defined. */
    569e:	fe842783          	lw	a5,-24(s0)
             * The address of a statically allocated storage area was also passed in
             * but is already set. */
            /* MISRA Ref 11.3.1 [Misaligned access] */
            /* More details at: https://github.com/FreeRTOS/FreeRTOS-Kernel/blob/main/MISRA.md#rule-113 */
            /* coverity[misra_c_2012_rule_11_3_violation] */
            pxNewQueue = ( Queue_t * ) pxStaticQueue;
    56a2:	fd042783          	lw	a5,-48(s0)
    56a6:	fef42623          	sw	a5,-20(s0)
            #if ( configSUPPORT_DYNAMIC_ALLOCATION == 1 )
            {
                /* Queues can be allocated either statically or dynamically, so
                 * note this queue was allocated statically in case the queue is
                 * later deleted. */
                pxNewQueue->ucStaticallyAllocated = pdTRUE;
    56aa:	fec42783          	lw	a5,-20(s0)
    56ae:	4705                	li	a4,1
    56b0:	04e78323          	sb	a4,70(a5)
            }
            #endif /* configSUPPORT_DYNAMIC_ALLOCATION */

            prvInitialiseNewQueue( uxQueueLength, uxItemSize, pucQueueStorage, ucQueueType, pxNewQueue );
    56b4:	fcf44783          	lbu	a5,-49(s0)
    56b8:	fec42703          	lw	a4,-20(s0)
    56bc:	86be                	mv	a3,a5
    56be:	fd442603          	lw	a2,-44(s0)
    56c2:	fd842583          	lw	a1,-40(s0)
    56c6:	fdc42503          	lw	a0,-36(s0)
    56ca:	2aa1                	jal	5822 <prvInitialiseNewQueue>
    56cc:	a039                	j	56da <xQueueGenericCreateStatic+0xa8>
        }
        else
        {
            configASSERT( pxNewQueue );
    56ce:	fec42783          	lw	a5,-20(s0)
    56d2:	e781                	bnez	a5,56da <xQueueGenericCreateStatic+0xa8>
    56d4:	30047073          	csrci	mstatus,8
    56d8:	a001                	j	56d8 <xQueueGenericCreateStatic+0xa6>
            mtCOVERAGE_TEST_MARKER();
        }

        traceRETURN_xQueueGenericCreateStatic( pxNewQueue );

        return pxNewQueue;
    56da:	fec42783          	lw	a5,-20(s0)
    }
    56de:	853e                	mv	a0,a5
    56e0:	50f2                	lw	ra,60(sp)
    56e2:	5462                	lw	s0,56(sp)
    56e4:	6121                	addi	sp,sp,64
    56e6:	8082                	ret

000056e8 <xQueueGenericGetStaticBuffers>:
#if ( configSUPPORT_STATIC_ALLOCATION == 1 )

    BaseType_t xQueueGenericGetStaticBuffers( QueueHandle_t xQueue,
                                              uint8_t ** ppucQueueStorage,
                                              StaticQueue_t ** ppxStaticQueue )
    {
    56e8:	7179                	addi	sp,sp,-48
    56ea:	d606                	sw	ra,44(sp)
    56ec:	d422                	sw	s0,40(sp)
    56ee:	1800                	addi	s0,sp,48
    56f0:	fca42e23          	sw	a0,-36(s0)
    56f4:	fcb42c23          	sw	a1,-40(s0)
    56f8:	fcc42a23          	sw	a2,-44(s0)
        BaseType_t xReturn;
        Queue_t * const pxQueue = xQueue;
    56fc:	fdc42783          	lw	a5,-36(s0)
    5700:	fef42423          	sw	a5,-24(s0)

        traceENTER_xQueueGenericGetStaticBuffers( xQueue, ppucQueueStorage, ppxStaticQueue );

        configASSERT( pxQueue );
    5704:	fe842783          	lw	a5,-24(s0)
    5708:	e781                	bnez	a5,5710 <xQueueGenericGetStaticBuffers+0x28>
    570a:	30047073          	csrci	mstatus,8
    570e:	a001                	j	570e <xQueueGenericGetStaticBuffers+0x26>
        configASSERT( ppxStaticQueue );
    5710:	fd442783          	lw	a5,-44(s0)
    5714:	e781                	bnez	a5,571c <xQueueGenericGetStaticBuffers+0x34>
    5716:	30047073          	csrci	mstatus,8
    571a:	a001                	j	571a <xQueueGenericGetStaticBuffers+0x32>

        #if ( configSUPPORT_DYNAMIC_ALLOCATION == 1 )
        {
            /* Check if the queue was statically allocated. */
            if( pxQueue->ucStaticallyAllocated == ( uint8_t ) pdTRUE )
    571c:	fe842783          	lw	a5,-24(s0)
    5720:	0467c703          	lbu	a4,70(a5)
    5724:	4785                	li	a5,1
    5726:	02f71463          	bne	a4,a5,574e <xQueueGenericGetStaticBuffers+0x66>
            {
                if( ppucQueueStorage != NULL )
    572a:	fd842783          	lw	a5,-40(s0)
    572e:	c799                	beqz	a5,573c <xQueueGenericGetStaticBuffers+0x54>
                {
                    *ppucQueueStorage = ( uint8_t * ) pxQueue->pcHead;
    5730:	fe842783          	lw	a5,-24(s0)
    5734:	4398                	lw	a4,0(a5)
    5736:	fd842783          	lw	a5,-40(s0)
    573a:	c398                	sw	a4,0(a5)
                }

                /* MISRA Ref 11.3.1 [Misaligned access] */
                /* More details at: https://github.com/FreeRTOS/FreeRTOS-Kernel/blob/main/MISRA.md#rule-113 */
                /* coverity[misra_c_2012_rule_11_3_violation] */
                *ppxStaticQueue = ( StaticQueue_t * ) pxQueue;
    573c:	fd442783          	lw	a5,-44(s0)
    5740:	fe842703          	lw	a4,-24(s0)
    5744:	c398                	sw	a4,0(a5)
                xReturn = pdTRUE;
    5746:	4785                	li	a5,1
    5748:	fef42623          	sw	a5,-20(s0)
    574c:	a019                	j	5752 <xQueueGenericGetStaticBuffers+0x6a>
            }
            else
            {
                xReturn = pdFALSE;
    574e:	fe042623          	sw	zero,-20(s0)
        }
        #endif /* configSUPPORT_DYNAMIC_ALLOCATION */

        traceRETURN_xQueueGenericGetStaticBuffers( xReturn );

        return xReturn;
    5752:	fec42783          	lw	a5,-20(s0)
    }
    5756:	853e                	mv	a0,a5
    5758:	50b2                	lw	ra,44(sp)
    575a:	5422                	lw	s0,40(sp)
    575c:	6145                	addi	sp,sp,48
    575e:	8082                	ret

00005760 <xQueueGenericCreate>:
#if ( configSUPPORT_DYNAMIC_ALLOCATION == 1 )

    QueueHandle_t xQueueGenericCreate( const UBaseType_t uxQueueLength,
                                       const UBaseType_t uxItemSize,
                                       const uint8_t ucQueueType )
    {
    5760:	7179                	addi	sp,sp,-48
    5762:	d606                	sw	ra,44(sp)
    5764:	d422                	sw	s0,40(sp)
    5766:	1800                	addi	s0,sp,48
    5768:	fca42e23          	sw	a0,-36(s0)
    576c:	fcb42c23          	sw	a1,-40(s0)
    5770:	87b2                	mv	a5,a2
    5772:	fcf40ba3          	sb	a5,-41(s0)
        Queue_t * pxNewQueue = NULL;
    5776:	fe042623          	sw	zero,-20(s0)
        size_t xQueueSizeInBytes;
        uint8_t * pucQueueStorage;

        traceENTER_xQueueGenericCreate( uxQueueLength, uxItemSize, ucQueueType );

        if( ( uxQueueLength > ( UBaseType_t ) 0 ) &&
    577a:	fdc42783          	lw	a5,-36(s0)
    577e:	c7c9                	beqz	a5,5808 <xQueueGenericCreate+0xa8>
            /* Check for multiplication overflow. */
            ( ( SIZE_MAX / uxQueueLength ) >= uxItemSize ) &&
    5780:	4681                	li	a3,0
    5782:	fd842703          	lw	a4,-40(s0)
    5786:	fdc42783          	lw	a5,-36(s0)
    578a:	02f737b3          	mulhu	a5,a4,a5
    578e:	c391                	beqz	a5,5792 <xQueueGenericCreate+0x32>
    5790:	4685                	li	a3,1
    5792:	87b6                	mv	a5,a3
        if( ( uxQueueLength > ( UBaseType_t ) 0 ) &&
    5794:	ebb5                	bnez	a5,5808 <xQueueGenericCreate+0xa8>
            /* Check for addition overflow. */
            /* MISRA Ref 14.3.1 [Configuration dependent invariant] */
            /* More details at: https://github.com/FreeRTOS/FreeRTOS-Kernel/blob/main/MISRA.md#rule-143. */
            /* coverity[misra_c_2012_rule_14_3_violation] */
            ( ( SIZE_MAX - sizeof( Queue_t ) ) >= ( size_t ) ( ( size_t ) uxQueueLength * ( size_t ) uxItemSize ) ) )
    5796:	fdc42703          	lw	a4,-36(s0)
    579a:	fd842783          	lw	a5,-40(s0)
    579e:	02f70733          	mul	a4,a4,a5
            ( ( SIZE_MAX / uxQueueLength ) >= uxItemSize ) &&
    57a2:	fb700793          	li	a5,-73
    57a6:	06e7e163          	bltu	a5,a4,5808 <xQueueGenericCreate+0xa8>
        {
            /* Allocate enough space to hold the maximum number of items that
             * can be in the queue at any time.  It is valid for uxItemSize to be
             * zero in the case the queue is used as a semaphore. */
            xQueueSizeInBytes = ( size_t ) ( ( size_t ) uxQueueLength * ( size_t ) uxItemSize );
    57aa:	fdc42703          	lw	a4,-36(s0)
    57ae:	fd842783          	lw	a5,-40(s0)
    57b2:	02f707b3          	mul	a5,a4,a5
    57b6:	fef42423          	sw	a5,-24(s0)

            /* MISRA Ref 11.5.1 [Malloc memory assignment] */
            /* More details at: https://github.com/FreeRTOS/FreeRTOS-Kernel/blob/main/MISRA.md#rule-115 */
            /* coverity[misra_c_2012_rule_11_5_violation] */
            pxNewQueue = ( Queue_t * ) pvPortMalloc( sizeof( Queue_t ) + xQueueSizeInBytes );
    57ba:	fe842783          	lw	a5,-24(s0)
    57be:	04878793          	addi	a5,a5,72
    57c2:	853e                	mv	a0,a5
    57c4:	e84fe0ef          	jal	3e48 <pvPortMalloc>
    57c8:	fea42623          	sw	a0,-20(s0)

            if( pxNewQueue != NULL )
    57cc:	fec42783          	lw	a5,-20(s0)
    57d0:	c3b1                	beqz	a5,5814 <xQueueGenericCreate+0xb4>
            {
                /* Jump past the queue structure to find the location of the queue
                 * storage area. */
                pucQueueStorage = ( uint8_t * ) pxNewQueue;
    57d2:	fec42783          	lw	a5,-20(s0)
    57d6:	fef42223          	sw	a5,-28(s0)
                pucQueueStorage += sizeof( Queue_t );
    57da:	fe442783          	lw	a5,-28(s0)
    57de:	04878793          	addi	a5,a5,72
    57e2:	fef42223          	sw	a5,-28(s0)
                #if ( configSUPPORT_STATIC_ALLOCATION == 1 )
                {
                    /* Queues can be created either statically or dynamically, so
                     * note this task was created dynamically in case it is later
                     * deleted. */
                    pxNewQueue->ucStaticallyAllocated = pdFALSE;
    57e6:	fec42783          	lw	a5,-20(s0)
    57ea:	04078323          	sb	zero,70(a5)
                }
                #endif /* configSUPPORT_STATIC_ALLOCATION */

                prvInitialiseNewQueue( uxQueueLength, uxItemSize, pucQueueStorage, ucQueueType, pxNewQueue );
    57ee:	fd744783          	lbu	a5,-41(s0)
    57f2:	fec42703          	lw	a4,-20(s0)
    57f6:	86be                	mv	a3,a5
    57f8:	fe442603          	lw	a2,-28(s0)
    57fc:	fd842583          	lw	a1,-40(s0)
    5800:	fdc42503          	lw	a0,-36(s0)
    5804:	2839                	jal	5822 <prvInitialiseNewQueue>
            if( pxNewQueue != NULL )
    5806:	a039                	j	5814 <xQueueGenericCreate+0xb4>
                mtCOVERAGE_TEST_MARKER();
            }
        }
        else
        {
            configASSERT( pxNewQueue );
    5808:	fec42783          	lw	a5,-20(s0)
    580c:	e781                	bnez	a5,5814 <xQueueGenericCreate+0xb4>
    580e:	30047073          	csrci	mstatus,8
    5812:	a001                	j	5812 <xQueueGenericCreate+0xb2>
            mtCOVERAGE_TEST_MARKER();
        }

        traceRETURN_xQueueGenericCreate( pxNewQueue );

        return pxNewQueue;
    5814:	fec42783          	lw	a5,-20(s0)
    }
    5818:	853e                	mv	a0,a5
    581a:	50b2                	lw	ra,44(sp)
    581c:	5422                	lw	s0,40(sp)
    581e:	6145                	addi	sp,sp,48
    5820:	8082                	ret

00005822 <prvInitialiseNewQueue>:
static void prvInitialiseNewQueue( const UBaseType_t uxQueueLength,
                                   const UBaseType_t uxItemSize,
                                   uint8_t * pucQueueStorage,
                                   const uint8_t ucQueueType,
                                   Queue_t * pxNewQueue )
{
    5822:	7179                	addi	sp,sp,-48
    5824:	d606                	sw	ra,44(sp)
    5826:	d422                	sw	s0,40(sp)
    5828:	1800                	addi	s0,sp,48
    582a:	fea42623          	sw	a0,-20(s0)
    582e:	feb42423          	sw	a1,-24(s0)
    5832:	fec42223          	sw	a2,-28(s0)
    5836:	87b6                	mv	a5,a3
    5838:	fce42e23          	sw	a4,-36(s0)
    583c:	fef401a3          	sb	a5,-29(s0)
    /* Remove compiler warnings about unused parameters should
     * configUSE_TRACE_FACILITY not be set to 1. */
    ( void ) ucQueueType;

    if( uxItemSize == ( UBaseType_t ) 0 )
    5840:	fe842783          	lw	a5,-24(s0)
    5844:	e799                	bnez	a5,5852 <prvInitialiseNewQueue+0x30>
    {
        /* No RAM was allocated for the queue storage area, but PC head cannot
         * be set to NULL because NULL is used as a key to say the queue is used as
         * a mutex.  Therefore just set pcHead to point to the queue as a benign
         * value that is known to be within the memory map. */
        pxNewQueue->pcHead = ( int8_t * ) pxNewQueue;
    5846:	fdc42783          	lw	a5,-36(s0)
    584a:	fdc42703          	lw	a4,-36(s0)
    584e:	c398                	sw	a4,0(a5)
    5850:	a031                	j	585c <prvInitialiseNewQueue+0x3a>
    }
    else
    {
        /* Set the head to the start of the queue storage area. */
        pxNewQueue->pcHead = ( int8_t * ) pucQueueStorage;
    5852:	fdc42783          	lw	a5,-36(s0)
    5856:	fe442703          	lw	a4,-28(s0)
    585a:	c398                	sw	a4,0(a5)
    }

    /* Initialise the queue members as described where the queue type is
     * defined. */
    pxNewQueue->uxLength = uxQueueLength;
    585c:	fdc42783          	lw	a5,-36(s0)
    5860:	fec42703          	lw	a4,-20(s0)
    5864:	dfd8                	sw	a4,60(a5)
    pxNewQueue->uxItemSize = uxItemSize;
    5866:	fdc42783          	lw	a5,-36(s0)
    586a:	fe842703          	lw	a4,-24(s0)
    586e:	c3b8                	sw	a4,64(a5)
    ( void ) xQueueGenericReset( pxNewQueue, pdTRUE );
    5870:	4585                	li	a1,1
    5872:	fdc42503          	lw	a0,-36(s0)
    5876:	39ad                	jal	54f0 <xQueueGenericReset>
        pxNewQueue->pxQueueSetContainer = NULL;
    }
    #endif /* configUSE_QUEUE_SETS */

    traceQUEUE_CREATE( pxNewQueue );
}
    5878:	0001                	nop
    587a:	50b2                	lw	ra,44(sp)
    587c:	5422                	lw	s0,40(sp)
    587e:	6145                	addi	sp,sp,48
    5880:	8082                	ret

00005882 <prvInitialiseMutex>:
/*-----------------------------------------------------------*/

#if ( configUSE_MUTEXES == 1 )

    static void prvInitialiseMutex( Queue_t * pxNewQueue )
    {
    5882:	1101                	addi	sp,sp,-32
    5884:	ce06                	sw	ra,28(sp)
    5886:	cc22                	sw	s0,24(sp)
    5888:	1000                	addi	s0,sp,32
    588a:	fea42623          	sw	a0,-20(s0)
        if( pxNewQueue != NULL )
    588e:	fec42783          	lw	a5,-20(s0)
    5892:	c39d                	beqz	a5,58b8 <prvInitialiseMutex+0x36>
        {
            /* The queue create function will set all the queue structure members
            * correctly for a generic queue, but this function is creating a
            * mutex.  Overwrite those members that need to be set differently -
            * in particular the information required for priority inheritance. */
            pxNewQueue->u.xSemaphore.xMutexHolder = NULL;
    5894:	fec42783          	lw	a5,-20(s0)
    5898:	0007a423          	sw	zero,8(a5)
            pxNewQueue->uxQueueType = queueQUEUE_IS_MUTEX;
    589c:	fec42783          	lw	a5,-20(s0)
    58a0:	0007a023          	sw	zero,0(a5)

            /* In case this is a recursive mutex. */
            pxNewQueue->u.xSemaphore.uxRecursiveCallCount = 0;
    58a4:	fec42783          	lw	a5,-20(s0)
    58a8:	0007a623          	sw	zero,12(a5)

            traceCREATE_MUTEX( pxNewQueue );

            /* Start with the semaphore in the expected state. */
            ( void ) xQueueGenericSend( pxNewQueue, NULL, ( TickType_t ) 0U, queueSEND_TO_BACK );
    58ac:	4681                	li	a3,0
    58ae:	4601                	li	a2,0
    58b0:	4581                	li	a1,0
    58b2:	fec42503          	lw	a0,-20(s0)
    58b6:	2e31                	jal	5bd2 <xQueueGenericSend>
        }
        else
        {
            traceCREATE_MUTEX_FAILED();
        }
    }
    58b8:	0001                	nop
    58ba:	40f2                	lw	ra,28(sp)
    58bc:	4462                	lw	s0,24(sp)
    58be:	6105                	addi	sp,sp,32
    58c0:	8082                	ret

000058c2 <xQueueCreateMutex>:
/*-----------------------------------------------------------*/

#if ( ( configUSE_MUTEXES == 1 ) && ( configSUPPORT_DYNAMIC_ALLOCATION == 1 ) )

    QueueHandle_t xQueueCreateMutex( const uint8_t ucQueueType )
    {
    58c2:	7179                	addi	sp,sp,-48
    58c4:	d606                	sw	ra,44(sp)
    58c6:	d422                	sw	s0,40(sp)
    58c8:	1800                	addi	s0,sp,48
    58ca:	87aa                	mv	a5,a0
    58cc:	fcf40fa3          	sb	a5,-33(s0)
        QueueHandle_t xNewQueue;
        const UBaseType_t uxMutexLength = ( UBaseType_t ) 1, uxMutexSize = ( UBaseType_t ) 0;
    58d0:	4785                	li	a5,1
    58d2:	fef42623          	sw	a5,-20(s0)
    58d6:	fe042423          	sw	zero,-24(s0)

        traceENTER_xQueueCreateMutex( ucQueueType );

        xNewQueue = xQueueGenericCreate( uxMutexLength, uxMutexSize, ucQueueType );
    58da:	fdf44783          	lbu	a5,-33(s0)
    58de:	863e                	mv	a2,a5
    58e0:	fe842583          	lw	a1,-24(s0)
    58e4:	fec42503          	lw	a0,-20(s0)
    58e8:	3da5                	jal	5760 <xQueueGenericCreate>
    58ea:	fea42223          	sw	a0,-28(s0)
        prvInitialiseMutex( ( Queue_t * ) xNewQueue );
    58ee:	fe442503          	lw	a0,-28(s0)
    58f2:	3f41                	jal	5882 <prvInitialiseMutex>

        traceRETURN_xQueueCreateMutex( xNewQueue );

        return xNewQueue;
    58f4:	fe442783          	lw	a5,-28(s0)
    }
    58f8:	853e                	mv	a0,a5
    58fa:	50b2                	lw	ra,44(sp)
    58fc:	5422                	lw	s0,40(sp)
    58fe:	6145                	addi	sp,sp,48
    5900:	8082                	ret

00005902 <xQueueCreateMutexStatic>:

#if ( ( configUSE_MUTEXES == 1 ) && ( configSUPPORT_STATIC_ALLOCATION == 1 ) )

    QueueHandle_t xQueueCreateMutexStatic( const uint8_t ucQueueType,
                                           StaticQueue_t * pxStaticQueue )
    {
    5902:	7179                	addi	sp,sp,-48
    5904:	d606                	sw	ra,44(sp)
    5906:	d422                	sw	s0,40(sp)
    5908:	1800                	addi	s0,sp,48
    590a:	87aa                	mv	a5,a0
    590c:	fcb42c23          	sw	a1,-40(s0)
    5910:	fcf40fa3          	sb	a5,-33(s0)
        QueueHandle_t xNewQueue;
        const UBaseType_t uxMutexLength = ( UBaseType_t ) 1, uxMutexSize = ( UBaseType_t ) 0;
    5914:	4785                	li	a5,1
    5916:	fef42623          	sw	a5,-20(s0)
    591a:	fe042423          	sw	zero,-24(s0)

        /* Prevent compiler warnings about unused parameters if
         * configUSE_TRACE_FACILITY does not equal 1. */
        ( void ) ucQueueType;

        xNewQueue = xQueueGenericCreateStatic( uxMutexLength, uxMutexSize, NULL, pxStaticQueue, ucQueueType );
    591e:	fdf44783          	lbu	a5,-33(s0)
    5922:	873e                	mv	a4,a5
    5924:	fd842683          	lw	a3,-40(s0)
    5928:	4601                	li	a2,0
    592a:	fe842583          	lw	a1,-24(s0)
    592e:	fec42503          	lw	a0,-20(s0)
    5932:	3301                	jal	5632 <xQueueGenericCreateStatic>
    5934:	fea42223          	sw	a0,-28(s0)
        prvInitialiseMutex( ( Queue_t * ) xNewQueue );
    5938:	fe442503          	lw	a0,-28(s0)
    593c:	3799                	jal	5882 <prvInitialiseMutex>

        traceRETURN_xQueueCreateMutexStatic( xNewQueue );

        return xNewQueue;
    593e:	fe442783          	lw	a5,-28(s0)
    }
    5942:	853e                	mv	a0,a5
    5944:	50b2                	lw	ra,44(sp)
    5946:	5422                	lw	s0,40(sp)
    5948:	6145                	addi	sp,sp,48
    594a:	8082                	ret

0000594c <xQueueGetMutexHolder>:
/*-----------------------------------------------------------*/

#if ( ( configUSE_MUTEXES == 1 ) && ( INCLUDE_xSemaphoreGetMutexHolder == 1 ) )

    TaskHandle_t xQueueGetMutexHolder( QueueHandle_t xSemaphore )
    {
    594c:	7179                	addi	sp,sp,-48
    594e:	d606                	sw	ra,44(sp)
    5950:	d422                	sw	s0,40(sp)
    5952:	1800                	addi	s0,sp,48
    5954:	fca42e23          	sw	a0,-36(s0)
        TaskHandle_t pxReturn;
        Queue_t * const pxSemaphore = ( Queue_t * ) xSemaphore;
    5958:	fdc42783          	lw	a5,-36(s0)
    595c:	fef42423          	sw	a5,-24(s0)

        traceENTER_xQueueGetMutexHolder( xSemaphore );

        configASSERT( xSemaphore );
    5960:	fdc42783          	lw	a5,-36(s0)
    5964:	e781                	bnez	a5,596c <xQueueGetMutexHolder+0x20>
    5966:	30047073          	csrci	mstatus,8
    596a:	a001                	j	596a <xQueueGetMutexHolder+0x1e>
        /* This function is called by xSemaphoreGetMutexHolder(), and should not
         * be called directly.  Note:  This is a good way of determining if the
         * calling task is the mutex holder, but not a good way of determining the
         * identity of the mutex holder, as the holder may change between the
         * following critical section exiting and the function returning. */
        taskENTER_CRITICAL();
    596c:	30047073          	csrci	mstatus,8
    5970:	8081a783          	lw	a5,-2040(gp) # 20000060 <xCriticalNesting>
    5974:	00178713          	addi	a4,a5,1
    5978:	80e1a423          	sw	a4,-2040(gp) # 20000060 <xCriticalNesting>
        {
            if( pxSemaphore->uxQueueType == queueQUEUE_IS_MUTEX )
    597c:	fe842783          	lw	a5,-24(s0)
    5980:	439c                	lw	a5,0(a5)
    5982:	e799                	bnez	a5,5990 <xQueueGetMutexHolder+0x44>
            {
                pxReturn = pxSemaphore->u.xSemaphore.xMutexHolder;
    5984:	fe842783          	lw	a5,-24(s0)
    5988:	479c                	lw	a5,8(a5)
    598a:	fef42623          	sw	a5,-20(s0)
    598e:	a019                	j	5994 <xQueueGetMutexHolder+0x48>
            }
            else
            {
                pxReturn = NULL;
    5990:	fe042623          	sw	zero,-20(s0)
            }
        }
        taskEXIT_CRITICAL();
    5994:	8081a783          	lw	a5,-2040(gp) # 20000060 <xCriticalNesting>
    5998:	fff78713          	addi	a4,a5,-1
    599c:	80e1a423          	sw	a4,-2040(gp) # 20000060 <xCriticalNesting>
    59a0:	8081a783          	lw	a5,-2040(gp) # 20000060 <xCriticalNesting>
    59a4:	e399                	bnez	a5,59aa <xQueueGetMutexHolder+0x5e>
    59a6:	30046073          	csrsi	mstatus,8

        traceRETURN_xQueueGetMutexHolder( pxReturn );

        return pxReturn;
    59aa:	fec42783          	lw	a5,-20(s0)
    }
    59ae:	853e                	mv	a0,a5
    59b0:	50b2                	lw	ra,44(sp)
    59b2:	5422                	lw	s0,40(sp)
    59b4:	6145                	addi	sp,sp,48
    59b6:	8082                	ret

000059b8 <xQueueGetMutexHolderFromISR>:
/*-----------------------------------------------------------*/

#if ( ( configUSE_MUTEXES == 1 ) && ( INCLUDE_xSemaphoreGetMutexHolder == 1 ) )

    TaskHandle_t xQueueGetMutexHolderFromISR( QueueHandle_t xSemaphore )
    {
    59b8:	7179                	addi	sp,sp,-48
    59ba:	d606                	sw	ra,44(sp)
    59bc:	d422                	sw	s0,40(sp)
    59be:	1800                	addi	s0,sp,48
    59c0:	fca42e23          	sw	a0,-36(s0)
        TaskHandle_t pxReturn;

        traceENTER_xQueueGetMutexHolderFromISR( xSemaphore );

        configASSERT( xSemaphore );
    59c4:	fdc42783          	lw	a5,-36(s0)
    59c8:	e781                	bnez	a5,59d0 <xQueueGetMutexHolderFromISR+0x18>
    59ca:	30047073          	csrci	mstatus,8
    59ce:	a001                	j	59ce <xQueueGetMutexHolderFromISR+0x16>

        /* Mutexes cannot be used in interrupt service routines, so the mutex
         * holder should not change in an ISR, and therefore a critical section is
         * not required here. */
        if( ( ( Queue_t * ) xSemaphore )->uxQueueType == queueQUEUE_IS_MUTEX )
    59d0:	fdc42783          	lw	a5,-36(s0)
    59d4:	439c                	lw	a5,0(a5)
    59d6:	e799                	bnez	a5,59e4 <xQueueGetMutexHolderFromISR+0x2c>
        {
            pxReturn = ( ( Queue_t * ) xSemaphore )->u.xSemaphore.xMutexHolder;
    59d8:	fdc42783          	lw	a5,-36(s0)
    59dc:	479c                	lw	a5,8(a5)
    59de:	fef42623          	sw	a5,-20(s0)
    59e2:	a019                	j	59e8 <xQueueGetMutexHolderFromISR+0x30>
        }
        else
        {
            pxReturn = NULL;
    59e4:	fe042623          	sw	zero,-20(s0)
        }

        traceRETURN_xQueueGetMutexHolderFromISR( pxReturn );

        return pxReturn;
    59e8:	fec42783          	lw	a5,-20(s0)
    }
    59ec:	853e                	mv	a0,a5
    59ee:	50b2                	lw	ra,44(sp)
    59f0:	5422                	lw	s0,40(sp)
    59f2:	6145                	addi	sp,sp,48
    59f4:	8082                	ret

000059f6 <xQueueGiveMutexRecursive>:
/*-----------------------------------------------------------*/

#if ( configUSE_RECURSIVE_MUTEXES == 1 )

    BaseType_t xQueueGiveMutexRecursive( QueueHandle_t xMutex )
    {
    59f6:	7179                	addi	sp,sp,-48
    59f8:	d606                	sw	ra,44(sp)
    59fa:	d422                	sw	s0,40(sp)
    59fc:	d226                	sw	s1,36(sp)
    59fe:	1800                	addi	s0,sp,48
    5a00:	fca42e23          	sw	a0,-36(s0)
        BaseType_t xReturn;
        Queue_t * const pxMutex = ( Queue_t * ) xMutex;
    5a04:	fdc42783          	lw	a5,-36(s0)
    5a08:	fef42423          	sw	a5,-24(s0)

        traceENTER_xQueueGiveMutexRecursive( xMutex );

        configASSERT( pxMutex );
    5a0c:	fe842783          	lw	a5,-24(s0)
    5a10:	e781                	bnez	a5,5a18 <xQueueGiveMutexRecursive+0x22>
    5a12:	30047073          	csrci	mstatus,8
    5a16:	a001                	j	5a16 <xQueueGiveMutexRecursive+0x20>
         * change outside of this task.  If this task does not hold the mutex then
         * pxMutexHolder can never coincidentally equal the tasks handle, and as
         * this is the only condition we are interested in it does not matter if
         * pxMutexHolder is accessed simultaneously by another task.  Therefore no
         * mutual exclusion is required to test the pxMutexHolder variable. */
        if( pxMutex->u.xSemaphore.xMutexHolder == xTaskGetCurrentTaskHandle() )
    5a18:	fe842783          	lw	a5,-24(s0)
    5a1c:	4784                	lw	s1,8(a5)
    5a1e:	e5bfc0ef          	jal	2878 <xTaskGetCurrentTaskHandle>
    5a22:	87aa                	mv	a5,a0
    5a24:	02f49863          	bne	s1,a5,5a54 <xQueueGiveMutexRecursive+0x5e>
            /* uxRecursiveCallCount cannot be zero if xMutexHolder is equal to
             * the task handle, therefore no underflow check is required.  Also,
             * uxRecursiveCallCount is only modified by the mutex holder, and as
             * there can only be one, no mutual exclusion is required to modify the
             * uxRecursiveCallCount member. */
            ( pxMutex->u.xSemaphore.uxRecursiveCallCount )--;
    5a28:	fe842783          	lw	a5,-24(s0)
    5a2c:	47dc                	lw	a5,12(a5)
    5a2e:	fff78713          	addi	a4,a5,-1
    5a32:	fe842783          	lw	a5,-24(s0)
    5a36:	c7d8                	sw	a4,12(a5)

            /* Has the recursive call count unwound to 0? */
            if( pxMutex->u.xSemaphore.uxRecursiveCallCount == ( UBaseType_t ) 0 )
    5a38:	fe842783          	lw	a5,-24(s0)
    5a3c:	47dc                	lw	a5,12(a5)
    5a3e:	e799                	bnez	a5,5a4c <xQueueGiveMutexRecursive+0x56>
            {
                /* Return the mutex.  This will automatically unblock any other
                 * task that might be waiting to access the mutex. */
                ( void ) xQueueGenericSend( pxMutex, NULL, queueMUTEX_GIVE_BLOCK_TIME, queueSEND_TO_BACK );
    5a40:	4681                	li	a3,0
    5a42:	4601                	li	a2,0
    5a44:	4581                	li	a1,0
    5a46:	fe842503          	lw	a0,-24(s0)
    5a4a:	2261                	jal	5bd2 <xQueueGenericSend>
            else
            {
                mtCOVERAGE_TEST_MARKER();
            }

            xReturn = pdPASS;
    5a4c:	4785                	li	a5,1
    5a4e:	fef42623          	sw	a5,-20(s0)
    5a52:	a019                	j	5a58 <xQueueGiveMutexRecursive+0x62>
        }
        else
        {
            /* The mutex cannot be given because the calling task is not the
             * holder. */
            xReturn = pdFAIL;
    5a54:	fe042623          	sw	zero,-20(s0)
            traceGIVE_MUTEX_RECURSIVE_FAILED( pxMutex );
        }

        traceRETURN_xQueueGiveMutexRecursive( xReturn );

        return xReturn;
    5a58:	fec42783          	lw	a5,-20(s0)
    }
    5a5c:	853e                	mv	a0,a5
    5a5e:	50b2                	lw	ra,44(sp)
    5a60:	5422                	lw	s0,40(sp)
    5a62:	5492                	lw	s1,36(sp)
    5a64:	6145                	addi	sp,sp,48
    5a66:	8082                	ret

00005a68 <xQueueTakeMutexRecursive>:

#if ( configUSE_RECURSIVE_MUTEXES == 1 )

    BaseType_t xQueueTakeMutexRecursive( QueueHandle_t xMutex,
                                         TickType_t xTicksToWait )
    {
    5a68:	7179                	addi	sp,sp,-48
    5a6a:	d606                	sw	ra,44(sp)
    5a6c:	d422                	sw	s0,40(sp)
    5a6e:	d226                	sw	s1,36(sp)
    5a70:	1800                	addi	s0,sp,48
    5a72:	fca42e23          	sw	a0,-36(s0)
    5a76:	fcb42c23          	sw	a1,-40(s0)
        BaseType_t xReturn;
        Queue_t * const pxMutex = ( Queue_t * ) xMutex;
    5a7a:	fdc42783          	lw	a5,-36(s0)
    5a7e:	fef42423          	sw	a5,-24(s0)

        traceENTER_xQueueTakeMutexRecursive( xMutex, xTicksToWait );

        configASSERT( pxMutex );
    5a82:	fe842783          	lw	a5,-24(s0)
    5a86:	e781                	bnez	a5,5a8e <xQueueTakeMutexRecursive+0x26>
    5a88:	30047073          	csrci	mstatus,8
    5a8c:	a001                	j	5a8c <xQueueTakeMutexRecursive+0x24>
        /* Comments regarding mutual exclusion as per those within
         * xQueueGiveMutexRecursive(). */

        traceTAKE_MUTEX_RECURSIVE( pxMutex );

        if( pxMutex->u.xSemaphore.xMutexHolder == xTaskGetCurrentTaskHandle() )
    5a8e:	fe842783          	lw	a5,-24(s0)
    5a92:	4784                	lw	s1,8(a5)
    5a94:	de5fc0ef          	jal	2878 <xTaskGetCurrentTaskHandle>
    5a98:	87aa                	mv	a5,a0
    5a9a:	02f49563          	bne	s1,a5,5ac4 <xQueueTakeMutexRecursive+0x5c>
        {
            ( pxMutex->u.xSemaphore.uxRecursiveCallCount )++;
    5a9e:	fe842783          	lw	a5,-24(s0)
    5aa2:	47dc                	lw	a5,12(a5)
    5aa4:	00178713          	addi	a4,a5,1
    5aa8:	fe842783          	lw	a5,-24(s0)
    5aac:	c7d8                	sw	a4,12(a5)

            /* Check if an overflow occurred. */
            configASSERT( pxMutex->u.xSemaphore.uxRecursiveCallCount );
    5aae:	fe842783          	lw	a5,-24(s0)
    5ab2:	47dc                	lw	a5,12(a5)
    5ab4:	e781                	bnez	a5,5abc <xQueueTakeMutexRecursive+0x54>
    5ab6:	30047073          	csrci	mstatus,8
    5aba:	a001                	j	5aba <xQueueTakeMutexRecursive+0x52>

            xReturn = pdPASS;
    5abc:	4785                	li	a5,1
    5abe:	fef42623          	sw	a5,-20(s0)
    5ac2:	a81d                	j	5af8 <xQueueTakeMutexRecursive+0x90>
        }
        else
        {
            xReturn = xQueueSemaphoreTake( pxMutex, xTicksToWait );
    5ac4:	fd842583          	lw	a1,-40(s0)
    5ac8:	fe842503          	lw	a0,-24(s0)
    5acc:	742000ef          	jal	620e <xQueueSemaphoreTake>
    5ad0:	fea42623          	sw	a0,-20(s0)

            /* pdPASS will only be returned if the mutex was successfully
             * obtained.  The calling task may have entered the Blocked state
             * before reaching here. */
            if( xReturn != pdFAIL )
    5ad4:	fec42783          	lw	a5,-20(s0)
    5ad8:	c385                	beqz	a5,5af8 <xQueueTakeMutexRecursive+0x90>
            {
                ( pxMutex->u.xSemaphore.uxRecursiveCallCount )++;
    5ada:	fe842783          	lw	a5,-24(s0)
    5ade:	47dc                	lw	a5,12(a5)
    5ae0:	00178713          	addi	a4,a5,1
    5ae4:	fe842783          	lw	a5,-24(s0)
    5ae8:	c7d8                	sw	a4,12(a5)

                /* Check if an overflow occurred. */
                configASSERT( pxMutex->u.xSemaphore.uxRecursiveCallCount );
    5aea:	fe842783          	lw	a5,-24(s0)
    5aee:	47dc                	lw	a5,12(a5)
    5af0:	e781                	bnez	a5,5af8 <xQueueTakeMutexRecursive+0x90>
    5af2:	30047073          	csrci	mstatus,8
    5af6:	a001                	j	5af6 <xQueueTakeMutexRecursive+0x8e>
            }
        }

        traceRETURN_xQueueTakeMutexRecursive( xReturn );

        return xReturn;
    5af8:	fec42783          	lw	a5,-20(s0)
    }
    5afc:	853e                	mv	a0,a5
    5afe:	50b2                	lw	ra,44(sp)
    5b00:	5422                	lw	s0,40(sp)
    5b02:	5492                	lw	s1,36(sp)
    5b04:	6145                	addi	sp,sp,48
    5b06:	8082                	ret

00005b08 <xQueueCreateCountingSemaphoreStatic>:
#if ( ( configUSE_COUNTING_SEMAPHORES == 1 ) && ( configSUPPORT_STATIC_ALLOCATION == 1 ) )

    QueueHandle_t xQueueCreateCountingSemaphoreStatic( const UBaseType_t uxMaxCount,
                                                       const UBaseType_t uxInitialCount,
                                                       StaticQueue_t * pxStaticQueue )
    {
    5b08:	7179                	addi	sp,sp,-48
    5b0a:	d606                	sw	ra,44(sp)
    5b0c:	d422                	sw	s0,40(sp)
    5b0e:	1800                	addi	s0,sp,48
    5b10:	fca42e23          	sw	a0,-36(s0)
    5b14:	fcb42c23          	sw	a1,-40(s0)
    5b18:	fcc42a23          	sw	a2,-44(s0)
        QueueHandle_t xHandle = NULL;
    5b1c:	fe042623          	sw	zero,-20(s0)

        traceENTER_xQueueCreateCountingSemaphoreStatic( uxMaxCount, uxInitialCount, pxStaticQueue );

        if( ( uxMaxCount != 0U ) &&
    5b20:	fdc42783          	lw	a5,-36(s0)
    5b24:	cb95                	beqz	a5,5b58 <xQueueCreateCountingSemaphoreStatic+0x50>
    5b26:	fd842703          	lw	a4,-40(s0)
    5b2a:	fdc42783          	lw	a5,-36(s0)
    5b2e:	02e7e563          	bltu	a5,a4,5b58 <xQueueCreateCountingSemaphoreStatic+0x50>
            ( uxInitialCount <= uxMaxCount ) )
        {
            xHandle = xQueueGenericCreateStatic( uxMaxCount, queueSEMAPHORE_QUEUE_ITEM_LENGTH, NULL, pxStaticQueue, queueQUEUE_TYPE_COUNTING_SEMAPHORE );
    5b32:	4709                	li	a4,2
    5b34:	fd442683          	lw	a3,-44(s0)
    5b38:	4601                	li	a2,0
    5b3a:	4581                	li	a1,0
    5b3c:	fdc42503          	lw	a0,-36(s0)
    5b40:	3ccd                	jal	5632 <xQueueGenericCreateStatic>
    5b42:	fea42623          	sw	a0,-20(s0)

            if( xHandle != NULL )
    5b46:	fec42783          	lw	a5,-20(s0)
    5b4a:	cf89                	beqz	a5,5b64 <xQueueCreateCountingSemaphoreStatic+0x5c>
            {
                ( ( Queue_t * ) xHandle )->uxMessagesWaiting = uxInitialCount;
    5b4c:	fec42783          	lw	a5,-20(s0)
    5b50:	fd842703          	lw	a4,-40(s0)
    5b54:	df98                	sw	a4,56(a5)
            if( xHandle != NULL )
    5b56:	a039                	j	5b64 <xQueueCreateCountingSemaphoreStatic+0x5c>
                traceCREATE_COUNTING_SEMAPHORE_FAILED();
            }
        }
        else
        {
            configASSERT( xHandle );
    5b58:	fec42783          	lw	a5,-20(s0)
    5b5c:	e781                	bnez	a5,5b64 <xQueueCreateCountingSemaphoreStatic+0x5c>
    5b5e:	30047073          	csrci	mstatus,8
    5b62:	a001                	j	5b62 <xQueueCreateCountingSemaphoreStatic+0x5a>
            mtCOVERAGE_TEST_MARKER();
        }

        traceRETURN_xQueueCreateCountingSemaphoreStatic( xHandle );

        return xHandle;
    5b64:	fec42783          	lw	a5,-20(s0)
    }
    5b68:	853e                	mv	a0,a5
    5b6a:	50b2                	lw	ra,44(sp)
    5b6c:	5422                	lw	s0,40(sp)
    5b6e:	6145                	addi	sp,sp,48
    5b70:	8082                	ret

00005b72 <xQueueCreateCountingSemaphore>:

#if ( ( configUSE_COUNTING_SEMAPHORES == 1 ) && ( configSUPPORT_DYNAMIC_ALLOCATION == 1 ) )

    QueueHandle_t xQueueCreateCountingSemaphore( const UBaseType_t uxMaxCount,
                                                 const UBaseType_t uxInitialCount )
    {
    5b72:	7179                	addi	sp,sp,-48
    5b74:	d606                	sw	ra,44(sp)
    5b76:	d422                	sw	s0,40(sp)
    5b78:	1800                	addi	s0,sp,48
    5b7a:	fca42e23          	sw	a0,-36(s0)
    5b7e:	fcb42c23          	sw	a1,-40(s0)
        QueueHandle_t xHandle = NULL;
    5b82:	fe042623          	sw	zero,-20(s0)

        traceENTER_xQueueCreateCountingSemaphore( uxMaxCount, uxInitialCount );

        if( ( uxMaxCount != 0U ) &&
    5b86:	fdc42783          	lw	a5,-36(s0)
    5b8a:	c79d                	beqz	a5,5bb8 <xQueueCreateCountingSemaphore+0x46>
    5b8c:	fd842703          	lw	a4,-40(s0)
    5b90:	fdc42783          	lw	a5,-36(s0)
    5b94:	02e7e263          	bltu	a5,a4,5bb8 <xQueueCreateCountingSemaphore+0x46>
            ( uxInitialCount <= uxMaxCount ) )
        {
            xHandle = xQueueGenericCreate( uxMaxCount, queueSEMAPHORE_QUEUE_ITEM_LENGTH, queueQUEUE_TYPE_COUNTING_SEMAPHORE );
    5b98:	4609                	li	a2,2
    5b9a:	4581                	li	a1,0
    5b9c:	fdc42503          	lw	a0,-36(s0)
    5ba0:	36c1                	jal	5760 <xQueueGenericCreate>
    5ba2:	fea42623          	sw	a0,-20(s0)

            if( xHandle != NULL )
    5ba6:	fec42783          	lw	a5,-20(s0)
    5baa:	cf89                	beqz	a5,5bc4 <xQueueCreateCountingSemaphore+0x52>
            {
                ( ( Queue_t * ) xHandle )->uxMessagesWaiting = uxInitialCount;
    5bac:	fec42783          	lw	a5,-20(s0)
    5bb0:	fd842703          	lw	a4,-40(s0)
    5bb4:	df98                	sw	a4,56(a5)
            if( xHandle != NULL )
    5bb6:	a039                	j	5bc4 <xQueueCreateCountingSemaphore+0x52>
                traceCREATE_COUNTING_SEMAPHORE_FAILED();
            }
        }
        else
        {
            configASSERT( xHandle );
    5bb8:	fec42783          	lw	a5,-20(s0)
    5bbc:	e781                	bnez	a5,5bc4 <xQueueCreateCountingSemaphore+0x52>
    5bbe:	30047073          	csrci	mstatus,8
    5bc2:	a001                	j	5bc2 <xQueueCreateCountingSemaphore+0x50>
            mtCOVERAGE_TEST_MARKER();
        }

        traceRETURN_xQueueCreateCountingSemaphore( xHandle );

        return xHandle;
    5bc4:	fec42783          	lw	a5,-20(s0)
    }
    5bc8:	853e                	mv	a0,a5
    5bca:	50b2                	lw	ra,44(sp)
    5bcc:	5422                	lw	s0,40(sp)
    5bce:	6145                	addi	sp,sp,48
    5bd0:	8082                	ret

00005bd2 <xQueueGenericSend>:

BaseType_t xQueueGenericSend( QueueHandle_t xQueue,
                              const void * const pvItemToQueue,
                              TickType_t xTicksToWait,
                              const BaseType_t xCopyPosition )
{
    5bd2:	7139                	addi	sp,sp,-64
    5bd4:	de06                	sw	ra,60(sp)
    5bd6:	dc22                	sw	s0,56(sp)
    5bd8:	0080                	addi	s0,sp,64
    5bda:	fca42623          	sw	a0,-52(s0)
    5bde:	fcb42423          	sw	a1,-56(s0)
    5be2:	fcc42223          	sw	a2,-60(s0)
    5be6:	fcd42023          	sw	a3,-64(s0)
    BaseType_t xEntryTimeSet = pdFALSE, xYieldRequired;
    5bea:	fe042623          	sw	zero,-20(s0)
    TimeOut_t xTimeOut;
    Queue_t * const pxQueue = xQueue;
    5bee:	fcc42783          	lw	a5,-52(s0)
    5bf2:	fef42423          	sw	a5,-24(s0)

    traceENTER_xQueueGenericSend( xQueue, pvItemToQueue, xTicksToWait, xCopyPosition );

    configASSERT( pxQueue );
    5bf6:	fe842783          	lw	a5,-24(s0)
    5bfa:	e781                	bnez	a5,5c02 <xQueueGenericSend+0x30>
    5bfc:	30047073          	csrci	mstatus,8
    5c00:	a001                	j	5c00 <xQueueGenericSend+0x2e>
    configASSERT( !( ( pvItemToQueue == NULL ) && ( pxQueue->uxItemSize != ( UBaseType_t ) 0U ) ) );
    5c02:	fc842783          	lw	a5,-56(s0)
    5c06:	eb81                	bnez	a5,5c16 <xQueueGenericSend+0x44>
    5c08:	fe842783          	lw	a5,-24(s0)
    5c0c:	43bc                	lw	a5,64(a5)
    5c0e:	c781                	beqz	a5,5c16 <xQueueGenericSend+0x44>
    5c10:	30047073          	csrci	mstatus,8
    5c14:	a001                	j	5c14 <xQueueGenericSend+0x42>
    configASSERT( !( ( xCopyPosition == queueOVERWRITE ) && ( pxQueue->uxLength != 1 ) ) );
    5c16:	fc042703          	lw	a4,-64(s0)
    5c1a:	4789                	li	a5,2
    5c1c:	00f71b63          	bne	a4,a5,5c32 <xQueueGenericSend+0x60>
    5c20:	fe842783          	lw	a5,-24(s0)
    5c24:	5fd8                	lw	a4,60(a5)
    5c26:	4785                	li	a5,1
    5c28:	00f70563          	beq	a4,a5,5c32 <xQueueGenericSend+0x60>
    5c2c:	30047073          	csrci	mstatus,8
    5c30:	a001                	j	5c30 <xQueueGenericSend+0x5e>
    #if ( ( INCLUDE_xTaskGetSchedulerState == 1 ) || ( configUSE_TIMERS == 1 ) )
    {
        configASSERT( !( ( xTaskGetSchedulerState() == taskSCHEDULER_SUSPENDED ) && ( xTicksToWait != 0 ) ) );
    5c32:	c9bfc0ef          	jal	28cc <xTaskGetSchedulerState>
    5c36:	87aa                	mv	a5,a0
    5c38:	e799                	bnez	a5,5c46 <xQueueGenericSend+0x74>
    5c3a:	fc442783          	lw	a5,-60(s0)
    5c3e:	c781                	beqz	a5,5c46 <xQueueGenericSend+0x74>
    5c40:	30047073          	csrci	mstatus,8
    5c44:	a001                	j	5c44 <xQueueGenericSend+0x72>
    }
    #endif

    for( ; ; )
    {
        taskENTER_CRITICAL();
    5c46:	30047073          	csrci	mstatus,8
    5c4a:	8081a783          	lw	a5,-2040(gp) # 20000060 <xCriticalNesting>
    5c4e:	00178713          	addi	a4,a5,1
    5c52:	80e1a423          	sw	a4,-2040(gp) # 20000060 <xCriticalNesting>
        {
            /* Is there room on the queue now?  The running task must be the
             * highest priority task wanting to access the queue.  If the head item
             * in the queue is to be overwritten then it does not matter if the
             * queue is full. */
            if( ( pxQueue->uxMessagesWaiting < pxQueue->uxLength ) || ( xCopyPosition == queueOVERWRITE ) )
    5c56:	fe842783          	lw	a5,-24(s0)
    5c5a:	5f98                	lw	a4,56(a5)
    5c5c:	fe842783          	lw	a5,-24(s0)
    5c60:	5fdc                	lw	a5,60(a5)
    5c62:	00f76763          	bltu	a4,a5,5c70 <xQueueGenericSend+0x9e>
    5c66:	fc042703          	lw	a4,-64(s0)
    5c6a:	4789                	li	a5,2
    5c6c:	04f71e63          	bne	a4,a5,5cc8 <xQueueGenericSend+0xf6>
                        }
                    }
                }
                #else /* configUSE_QUEUE_SETS */
                {
                    xYieldRequired = prvCopyDataToQueue( pxQueue, pvItemToQueue, xCopyPosition );
    5c70:	fc042603          	lw	a2,-64(s0)
    5c74:	fc842583          	lw	a1,-56(s0)
    5c78:	fe842503          	lw	a0,-24(s0)
    5c7c:	521000ef          	jal	699c <prvCopyDataToQueue>
    5c80:	fea42223          	sw	a0,-28(s0)

                    /* If there was a task waiting for data to arrive on the
                     * queue then unblock it now. */
                    if( listLIST_IS_EMPTY( &( pxQueue->xTasksWaitingToReceive ) ) == pdFALSE )
    5c84:	fe842783          	lw	a5,-24(s0)
    5c88:	53dc                	lw	a5,36(a5)
    5c8a:	cf89                	beqz	a5,5ca4 <xQueueGenericSend+0xd2>
                    {
                        if( xTaskRemoveFromEventList( &( pxQueue->xTasksWaitingToReceive ) ) != pdFALSE )
    5c8c:	fe842783          	lw	a5,-24(s0)
    5c90:	02478793          	addi	a5,a5,36
    5c94:	853e                	mv	a0,a5
    5c96:	c16fc0ef          	jal	20ac <xTaskRemoveFromEventList>
    5c9a:	87aa                	mv	a5,a0
    5c9c:	cb89                	beqz	a5,5cae <xQueueGenericSend+0xdc>
                        {
                            /* The unblocked task has a priority higher than
                             * our own so yield immediately.  Yes it is ok to do
                             * this from within the critical section - the kernel
                             * takes care of that. */
                            queueYIELD_IF_USING_PREEMPTION();
    5c9e:	00000073          	ecall
    5ca2:	a031                	j	5cae <xQueueGenericSend+0xdc>
                        else
                        {
                            mtCOVERAGE_TEST_MARKER();
                        }
                    }
                    else if( xYieldRequired != pdFALSE )
    5ca4:	fe442783          	lw	a5,-28(s0)
    5ca8:	c399                	beqz	a5,5cae <xQueueGenericSend+0xdc>
                    {
                        /* This path is a special case that will only get
                         * executed if the task was holding multiple mutexes and
                         * the mutexes were given back in an order that is
                         * different to that in which they were taken. */
                        queueYIELD_IF_USING_PREEMPTION();
    5caa:	00000073          	ecall
                        mtCOVERAGE_TEST_MARKER();
                    }
                }
                #endif /* configUSE_QUEUE_SETS */

                taskEXIT_CRITICAL();
    5cae:	8081a783          	lw	a5,-2040(gp) # 20000060 <xCriticalNesting>
    5cb2:	fff78713          	addi	a4,a5,-1
    5cb6:	80e1a423          	sw	a4,-2040(gp) # 20000060 <xCriticalNesting>
    5cba:	8081a783          	lw	a5,-2040(gp) # 20000060 <xCriticalNesting>
    5cbe:	e399                	bnez	a5,5cc4 <xQueueGenericSend+0xf2>
    5cc0:	30046073          	csrsi	mstatus,8

                traceRETURN_xQueueGenericSend( pdPASS );

                return pdPASS;
    5cc4:	4785                	li	a5,1
    5cc6:	aa19                	j	5ddc <xQueueGenericSend+0x20a>
            }
            else
            {
                if( xTicksToWait == ( TickType_t ) 0 )
    5cc8:	fc442783          	lw	a5,-60(s0)
    5ccc:	ef91                	bnez	a5,5ce8 <xQueueGenericSend+0x116>
                {
                    /* The queue was full and no block time is specified (or
                     * the block time has expired) so leave now. */
                    taskEXIT_CRITICAL();
    5cce:	8081a783          	lw	a5,-2040(gp) # 20000060 <xCriticalNesting>
    5cd2:	fff78713          	addi	a4,a5,-1
    5cd6:	80e1a423          	sw	a4,-2040(gp) # 20000060 <xCriticalNesting>
    5cda:	8081a783          	lw	a5,-2040(gp) # 20000060 <xCriticalNesting>
    5cde:	e399                	bnez	a5,5ce4 <xQueueGenericSend+0x112>
    5ce0:	30046073          	csrsi	mstatus,8
                    /* Return to the original privilege level before exiting
                     * the function. */
                    traceQUEUE_SEND_FAILED( pxQueue );
                    traceRETURN_xQueueGenericSend( errQUEUE_FULL );

                    return errQUEUE_FULL;
    5ce4:	4781                	li	a5,0
    5ce6:	a8dd                	j	5ddc <xQueueGenericSend+0x20a>
                }
                else if( xEntryTimeSet == pdFALSE )
    5ce8:	fec42783          	lw	a5,-20(s0)
    5cec:	eb89                	bnez	a5,5cfe <xQueueGenericSend+0x12c>
                {
                    /* The queue was full and a block time was specified so
                     * configure the timeout structure. */
                    vTaskInternalSetTimeOutState( &xTimeOut );
    5cee:	fdc40793          	addi	a5,s0,-36
    5cf2:	853e                	mv	a0,a5
    5cf4:	809fc0ef          	jal	24fc <vTaskInternalSetTimeOutState>
                    xEntryTimeSet = pdTRUE;
    5cf8:	4785                	li	a5,1
    5cfa:	fef42623          	sw	a5,-20(s0)
                    /* Entry time was already set. */
                    mtCOVERAGE_TEST_MARKER();
                }
            }
        }
        taskEXIT_CRITICAL();
    5cfe:	8081a783          	lw	a5,-2040(gp) # 20000060 <xCriticalNesting>
    5d02:	fff78713          	addi	a4,a5,-1
    5d06:	80e1a423          	sw	a4,-2040(gp) # 20000060 <xCriticalNesting>
    5d0a:	8081a783          	lw	a5,-2040(gp) # 20000060 <xCriticalNesting>
    5d0e:	e399                	bnez	a5,5d14 <xQueueGenericSend+0x142>
    5d10:	30046073          	csrsi	mstatus,8

        /* Interrupts and other tasks can send to and receive from the queue
         * now the critical section has been exited. */

        vTaskSuspendAll();
    5d14:	947fb0ef          	jal	165a <vTaskSuspendAll>
        prvLockQueue( pxQueue );
    5d18:	30047073          	csrci	mstatus,8
    5d1c:	8081a783          	lw	a5,-2040(gp) # 20000060 <xCriticalNesting>
    5d20:	00178713          	addi	a4,a5,1
    5d24:	80e1a423          	sw	a4,-2040(gp) # 20000060 <xCriticalNesting>
    5d28:	fe842783          	lw	a5,-24(s0)
    5d2c:	0447c783          	lbu	a5,68(a5)
    5d30:	01879713          	slli	a4,a5,0x18
    5d34:	8761                	srai	a4,a4,0x18
    5d36:	57fd                	li	a5,-1
    5d38:	00f71663          	bne	a4,a5,5d44 <xQueueGenericSend+0x172>
    5d3c:	fe842783          	lw	a5,-24(s0)
    5d40:	04078223          	sb	zero,68(a5)
    5d44:	fe842783          	lw	a5,-24(s0)
    5d48:	0457c783          	lbu	a5,69(a5)
    5d4c:	01879713          	slli	a4,a5,0x18
    5d50:	8761                	srai	a4,a4,0x18
    5d52:	57fd                	li	a5,-1
    5d54:	00f71663          	bne	a4,a5,5d60 <xQueueGenericSend+0x18e>
    5d58:	fe842783          	lw	a5,-24(s0)
    5d5c:	040782a3          	sb	zero,69(a5)
    5d60:	8081a783          	lw	a5,-2040(gp) # 20000060 <xCriticalNesting>
    5d64:	fff78713          	addi	a4,a5,-1
    5d68:	80e1a423          	sw	a4,-2040(gp) # 20000060 <xCriticalNesting>
    5d6c:	8081a783          	lw	a5,-2040(gp) # 20000060 <xCriticalNesting>
    5d70:	e399                	bnez	a5,5d76 <xQueueGenericSend+0x1a4>
    5d72:	30046073          	csrsi	mstatus,8

        /* Update the timeout state to see if it has expired yet. */
        if( xTaskCheckForTimeOut( &xTimeOut, &xTicksToWait ) == pdFALSE )
    5d76:	fc440713          	addi	a4,s0,-60
    5d7a:	fdc40793          	addi	a5,s0,-36
    5d7e:	85ba                	mv	a1,a4
    5d80:	853e                	mv	a0,a5
    5d82:	fa4fc0ef          	jal	2526 <xTaskCheckForTimeOut>
    5d86:	87aa                	mv	a5,a0
    5d88:	e3b9                	bnez	a5,5dce <xQueueGenericSend+0x1fc>
        {
            if( prvIsQueueFull( pxQueue ) != pdFALSE )
    5d8a:	fe842503          	lw	a0,-24(s0)
    5d8e:	733000ef          	jal	6cc0 <prvIsQueueFull>
    5d92:	87aa                	mv	a5,a0
    5d94:	c795                	beqz	a5,5dc0 <xQueueGenericSend+0x1ee>
            {
                traceBLOCKING_ON_QUEUE_SEND( pxQueue );
                vTaskPlaceOnEventList( &( pxQueue->xTasksWaitingToSend ), xTicksToWait );
    5d96:	fe842783          	lw	a5,-24(s0)
    5d9a:	07c1                	addi	a5,a5,16
    5d9c:	fc442703          	lw	a4,-60(s0)
    5da0:	85ba                	mv	a1,a4
    5da2:	853e                	mv	a0,a5
    5da4:	a22fc0ef          	jal	1fc6 <vTaskPlaceOnEventList>
                /* Unlocking the queue means queue events can effect the
                 * event list. It is possible that interrupts occurring now
                 * remove this task from the event list again - but as the
                 * scheduler is suspended the task will go onto the pending
                 * ready list instead of the actual ready list. */
                prvUnlockQueue( pxQueue );
    5da8:	fe842503          	lw	a0,-24(s0)
    5dac:	57f000ef          	jal	6b2a <prvUnlockQueue>
                /* Resuming the scheduler will move tasks from the pending
                 * ready list into the ready list - so it is feasible that this
                 * task is already in the ready list before it yields - in which
                 * case the yield will not cause a context switch unless there
                 * is also a higher priority task in the pending ready list. */
                if( xTaskResumeAll() == pdFALSE )
    5db0:	8c9fb0ef          	jal	1678 <xTaskResumeAll>
    5db4:	87aa                	mv	a5,a0
    5db6:	e80798e3          	bnez	a5,5c46 <xQueueGenericSend+0x74>
                {
                    taskYIELD_WITHIN_API();
    5dba:	00000073          	ecall
    5dbe:	b561                	j	5c46 <xQueueGenericSend+0x74>
                }
            }
            else
            {
                /* Try again. */
                prvUnlockQueue( pxQueue );
    5dc0:	fe842503          	lw	a0,-24(s0)
    5dc4:	567000ef          	jal	6b2a <prvUnlockQueue>
                ( void ) xTaskResumeAll();
    5dc8:	8b1fb0ef          	jal	1678 <xTaskResumeAll>
    5dcc:	bdad                	j	5c46 <xQueueGenericSend+0x74>
            }
        }
        else
        {
            /* The timeout has expired. */
            prvUnlockQueue( pxQueue );
    5dce:	fe842503          	lw	a0,-24(s0)
    5dd2:	559000ef          	jal	6b2a <prvUnlockQueue>
            ( void ) xTaskResumeAll();
    5dd6:	8a3fb0ef          	jal	1678 <xTaskResumeAll>

            traceQUEUE_SEND_FAILED( pxQueue );
            traceRETURN_xQueueGenericSend( errQUEUE_FULL );

            return errQUEUE_FULL;
    5dda:	4781                	li	a5,0
        }
    }
}
    5ddc:	853e                	mv	a0,a5
    5dde:	50f2                	lw	ra,60(sp)
    5de0:	5462                	lw	s0,56(sp)
    5de2:	6121                	addi	sp,sp,64
    5de4:	8082                	ret

00005de6 <xQueueGenericSendFromISR>:

BaseType_t xQueueGenericSendFromISR( QueueHandle_t xQueue,
                                     const void * const pvItemToQueue,
                                     BaseType_t * const pxHigherPriorityTaskWoken,
                                     const BaseType_t xCopyPosition )
{
    5de6:	7139                	addi	sp,sp,-64
    5de8:	de06                	sw	ra,60(sp)
    5dea:	dc22                	sw	s0,56(sp)
    5dec:	0080                	addi	s0,sp,64
    5dee:	fca42623          	sw	a0,-52(s0)
    5df2:	fcb42423          	sw	a1,-56(s0)
    5df6:	fcc42223          	sw	a2,-60(s0)
    5dfa:	fcd42023          	sw	a3,-64(s0)
    BaseType_t xReturn;
    UBaseType_t uxSavedInterruptStatus;
    Queue_t * const pxQueue = xQueue;
    5dfe:	fcc42783          	lw	a5,-52(s0)
    5e02:	fef42423          	sw	a5,-24(s0)

    traceENTER_xQueueGenericSendFromISR( xQueue, pvItemToQueue, pxHigherPriorityTaskWoken, xCopyPosition );

    configASSERT( ( pxQueue != NULL ) && !( ( pvItemToQueue == NULL ) && ( pxQueue->uxItemSize != ( UBaseType_t ) 0U ) ) );
    5e06:	fe842783          	lw	a5,-24(s0)
    5e0a:	cb81                	beqz	a5,5e1a <xQueueGenericSendFromISR+0x34>
    5e0c:	fc842783          	lw	a5,-56(s0)
    5e10:	eb81                	bnez	a5,5e20 <xQueueGenericSendFromISR+0x3a>
    5e12:	fe842783          	lw	a5,-24(s0)
    5e16:	43bc                	lw	a5,64(a5)
    5e18:	c781                	beqz	a5,5e20 <xQueueGenericSendFromISR+0x3a>
    5e1a:	30047073          	csrci	mstatus,8
    5e1e:	a001                	j	5e1e <xQueueGenericSendFromISR+0x38>
    configASSERT( ( pxQueue != NULL ) && !( ( xCopyPosition == queueOVERWRITE ) && ( pxQueue->uxLength != 1 ) ) );
    5e20:	fe842783          	lw	a5,-24(s0)
    5e24:	cf81                	beqz	a5,5e3c <xQueueGenericSendFromISR+0x56>
    5e26:	fc042703          	lw	a4,-64(s0)
    5e2a:	4789                	li	a5,2
    5e2c:	00f71b63          	bne	a4,a5,5e42 <xQueueGenericSendFromISR+0x5c>
    5e30:	fe842783          	lw	a5,-24(s0)
    5e34:	5fd8                	lw	a4,60(a5)
    5e36:	4785                	li	a5,1
    5e38:	00f70563          	beq	a4,a5,5e42 <xQueueGenericSendFromISR+0x5c>
    5e3c:	30047073          	csrci	mstatus,8
    5e40:	a001                	j	5e40 <xQueueGenericSendFromISR+0x5a>
     * not (i.e. has a task with a higher priority than us been woken by this
     * post). */
    /* MISRA Ref 4.7.1 [Return value shall be checked] */
    /* More details at: https://github.com/FreeRTOS/FreeRTOS-Kernel/blob/main/MISRA.md#dir-47 */
    /* coverity[misra_c_2012_directive_4_7_violation] */
    uxSavedInterruptStatus = ( UBaseType_t ) taskENTER_CRITICAL_FROM_ISR();
    5e42:	fe042223          	sw	zero,-28(s0)
    {
        if( ( pxQueue->uxMessagesWaiting < pxQueue->uxLength ) || ( xCopyPosition == queueOVERWRITE ) )
    5e46:	fe842783          	lw	a5,-24(s0)
    5e4a:	5f98                	lw	a4,56(a5)
    5e4c:	fe842783          	lw	a5,-24(s0)
    5e50:	5fdc                	lw	a5,60(a5)
    5e52:	00f76763          	bltu	a4,a5,5e60 <xQueueGenericSendFromISR+0x7a>
    5e56:	fc042703          	lw	a4,-64(s0)
    5e5a:	4789                	li	a5,2
    5e5c:	0af71263          	bne	a4,a5,5f00 <xQueueGenericSendFromISR+0x11a>
        {
            const int8_t cTxLock = pxQueue->cTxLock;
    5e60:	fe842783          	lw	a5,-24(s0)
    5e64:	0457c783          	lbu	a5,69(a5)
    5e68:	fef401a3          	sb	a5,-29(s0)
            const UBaseType_t uxPreviousMessagesWaiting = pxQueue->uxMessagesWaiting;
    5e6c:	fe842783          	lw	a5,-24(s0)
    5e70:	5f9c                	lw	a5,56(a5)
    5e72:	fcf42e23          	sw	a5,-36(s0)
            /* Semaphores use xQueueGiveFromISR(), so pxQueue will not be a
             *  semaphore or mutex.  That means prvCopyDataToQueue() cannot result
             *  in a task disinheriting a priority and prvCopyDataToQueue() can be
             *  called here even though the disinherit function does not check if
             *  the scheduler is suspended before accessing the ready lists. */
            ( void ) prvCopyDataToQueue( pxQueue, pvItemToQueue, xCopyPosition );
    5e76:	fc042603          	lw	a2,-64(s0)
    5e7a:	fc842583          	lw	a1,-56(s0)
    5e7e:	fe842503          	lw	a0,-24(s0)
    5e82:	31b000ef          	jal	699c <prvCopyDataToQueue>

            /* The event list is not altered if the queue is locked.  This will
             * be done when the queue is unlocked later. */
            if( cTxLock == queueUNLOCKED )
    5e86:	fe340703          	lb	a4,-29(s0)
    5e8a:	57fd                	li	a5,-1
    5e8c:	02f71763          	bne	a4,a5,5eba <xQueueGenericSendFromISR+0xd4>
                        }
                    }
                }
                #else /* configUSE_QUEUE_SETS */
                {
                    if( listLIST_IS_EMPTY( &( pxQueue->xTasksWaitingToReceive ) ) == pdFALSE )
    5e90:	fe842783          	lw	a5,-24(s0)
    5e94:	53dc                	lw	a5,36(a5)
    5e96:	c3ad                	beqz	a5,5ef8 <xQueueGenericSendFromISR+0x112>
                    {
                        if( xTaskRemoveFromEventList( &( pxQueue->xTasksWaitingToReceive ) ) != pdFALSE )
    5e98:	fe842783          	lw	a5,-24(s0)
    5e9c:	02478793          	addi	a5,a5,36
    5ea0:	853e                	mv	a0,a5
    5ea2:	a0afc0ef          	jal	20ac <xTaskRemoveFromEventList>
    5ea6:	87aa                	mv	a5,a0
    5ea8:	cba1                	beqz	a5,5ef8 <xQueueGenericSendFromISR+0x112>
                        {
                            /* The task waiting has a higher priority so record that a
                             * context switch is required. */
                            if( pxHigherPriorityTaskWoken != NULL )
    5eaa:	fc442783          	lw	a5,-60(s0)
    5eae:	c7a9                	beqz	a5,5ef8 <xQueueGenericSendFromISR+0x112>
                            {
                                *pxHigherPriorityTaskWoken = pdTRUE;
    5eb0:	fc442783          	lw	a5,-60(s0)
    5eb4:	4705                	li	a4,1
    5eb6:	c398                	sw	a4,0(a5)
    5eb8:	a081                	j	5ef8 <xQueueGenericSendFromISR+0x112>
            }
            else
            {
                /* Increment the lock count so the task that unlocks the queue
                 * knows that data was posted while it was locked. */
                prvIncrementQueueTxLock( pxQueue, cTxLock );
    5eba:	a77fb0ef          	jal	1930 <uxTaskGetNumberOfTasks>
    5ebe:	fca42c23          	sw	a0,-40(s0)
    5ec2:	fe340783          	lb	a5,-29(s0)
    5ec6:	fd842703          	lw	a4,-40(s0)
    5eca:	02e7f763          	bgeu	a5,a4,5ef8 <xQueueGenericSendFromISR+0x112>
    5ece:	fe340703          	lb	a4,-29(s0)
    5ed2:	07f00793          	li	a5,127
    5ed6:	00f71563          	bne	a4,a5,5ee0 <xQueueGenericSendFromISR+0xfa>
    5eda:	30047073          	csrci	mstatus,8
    5ede:	a001                	j	5ede <xQueueGenericSendFromISR+0xf8>
    5ee0:	fe344783          	lbu	a5,-29(s0)
    5ee4:	0785                	addi	a5,a5,1
    5ee6:	0ff7f793          	zext.b	a5,a5
    5eea:	01879713          	slli	a4,a5,0x18
    5eee:	8761                	srai	a4,a4,0x18
    5ef0:	fe842783          	lw	a5,-24(s0)
    5ef4:	04e782a3          	sb	a4,69(a5)
            }

            xReturn = pdPASS;
    5ef8:	4785                	li	a5,1
    5efa:	fef42623          	sw	a5,-20(s0)
        {
    5efe:	a019                	j	5f04 <xQueueGenericSendFromISR+0x11e>
        }
        else
        {
            traceQUEUE_SEND_FROM_ISR_FAILED( pxQueue );
            xReturn = errQUEUE_FULL;
    5f00:	fe042623          	sw	zero,-20(s0)
    }
    taskEXIT_CRITICAL_FROM_ISR( uxSavedInterruptStatus );

    traceRETURN_xQueueGenericSendFromISR( xReturn );

    return xReturn;
    5f04:	fec42783          	lw	a5,-20(s0)
}
    5f08:	853e                	mv	a0,a5
    5f0a:	50f2                	lw	ra,60(sp)
    5f0c:	5462                	lw	s0,56(sp)
    5f0e:	6121                	addi	sp,sp,64
    5f10:	8082                	ret

00005f12 <xQueueGiveFromISR>:
/*-----------------------------------------------------------*/

BaseType_t xQueueGiveFromISR( QueueHandle_t xQueue,
                              BaseType_t * const pxHigherPriorityTaskWoken )
{
    5f12:	7139                	addi	sp,sp,-64
    5f14:	de06                	sw	ra,60(sp)
    5f16:	dc22                	sw	s0,56(sp)
    5f18:	0080                	addi	s0,sp,64
    5f1a:	fca42623          	sw	a0,-52(s0)
    5f1e:	fcb42423          	sw	a1,-56(s0)
    BaseType_t xReturn;
    UBaseType_t uxSavedInterruptStatus;
    Queue_t * const pxQueue = xQueue;
    5f22:	fcc42783          	lw	a5,-52(s0)
    5f26:	fef42423          	sw	a5,-24(s0)
     * not (i.e. has a task with a higher priority than us been woken by this
     * post). */

    /* xQueueGenericSendFromISR() should be used instead of xQueueGiveFromISR()
     * if the item size is not 0. */
    configASSERT( ( pxQueue != NULL ) && ( pxQueue->uxItemSize == 0 ) );
    5f2a:	fe842783          	lw	a5,-24(s0)
    5f2e:	c789                	beqz	a5,5f38 <xQueueGiveFromISR+0x26>
    5f30:	fe842783          	lw	a5,-24(s0)
    5f34:	43bc                	lw	a5,64(a5)
    5f36:	c781                	beqz	a5,5f3e <xQueueGiveFromISR+0x2c>
    5f38:	30047073          	csrci	mstatus,8
    5f3c:	a001                	j	5f3c <xQueueGiveFromISR+0x2a>

    /* Normally a mutex would not be given from an interrupt, especially if
     * there is a mutex holder, as priority inheritance makes no sense for an
     * interrupt, only tasks. */
    configASSERT( ( pxQueue != NULL ) && !( ( pxQueue->uxQueueType == queueQUEUE_IS_MUTEX ) && ( pxQueue->u.xSemaphore.xMutexHolder != NULL ) ) );
    5f3e:	fe842783          	lw	a5,-24(s0)
    5f42:	cb89                	beqz	a5,5f54 <xQueueGiveFromISR+0x42>
    5f44:	fe842783          	lw	a5,-24(s0)
    5f48:	439c                	lw	a5,0(a5)
    5f4a:	eb81                	bnez	a5,5f5a <xQueueGiveFromISR+0x48>
    5f4c:	fe842783          	lw	a5,-24(s0)
    5f50:	479c                	lw	a5,8(a5)
    5f52:	c781                	beqz	a5,5f5a <xQueueGiveFromISR+0x48>
    5f54:	30047073          	csrci	mstatus,8
    5f58:	a001                	j	5f58 <xQueueGiveFromISR+0x46>
    portASSERT_IF_INTERRUPT_PRIORITY_INVALID();

    /* MISRA Ref 4.7.1 [Return value shall be checked] */
    /* More details at: https://github.com/FreeRTOS/FreeRTOS-Kernel/blob/main/MISRA.md#dir-47 */
    /* coverity[misra_c_2012_directive_4_7_violation] */
    uxSavedInterruptStatus = ( UBaseType_t ) taskENTER_CRITICAL_FROM_ISR();
    5f5a:	fe042223          	sw	zero,-28(s0)
    {
        const UBaseType_t uxMessagesWaiting = pxQueue->uxMessagesWaiting;
    5f5e:	fe842783          	lw	a5,-24(s0)
    5f62:	5f9c                	lw	a5,56(a5)
    5f64:	fef42023          	sw	a5,-32(s0)

        /* When the queue is used to implement a semaphore no data is ever
         * moved through the queue but it is still valid to see if the queue 'has
         * space'. */
        if( uxMessagesWaiting < pxQueue->uxLength )
    5f68:	fe842783          	lw	a5,-24(s0)
    5f6c:	5fdc                	lw	a5,60(a5)
    5f6e:	fe042703          	lw	a4,-32(s0)
    5f72:	08f77c63          	bgeu	a4,a5,600a <xQueueGiveFromISR+0xf8>
        {
            const int8_t cTxLock = pxQueue->cTxLock;
    5f76:	fe842783          	lw	a5,-24(s0)
    5f7a:	0457c783          	lbu	a5,69(a5)
    5f7e:	fcf40fa3          	sb	a5,-33(s0)
             * holder - and if there is a mutex holder then the mutex cannot be
             * given from an ISR.  As this is the ISR version of the function it
             * can be assumed there is no mutex holder and no need to determine if
             * priority disinheritance is needed.  Simply increase the count of
             * messages (semaphores) available. */
            pxQueue->uxMessagesWaiting = ( UBaseType_t ) ( uxMessagesWaiting + ( UBaseType_t ) 1 );
    5f82:	fe042783          	lw	a5,-32(s0)
    5f86:	00178713          	addi	a4,a5,1
    5f8a:	fe842783          	lw	a5,-24(s0)
    5f8e:	df98                	sw	a4,56(a5)

            /* The event list is not altered if the queue is locked.  This will
             * be done when the queue is unlocked later. */
            if( cTxLock == queueUNLOCKED )
    5f90:	fdf40703          	lb	a4,-33(s0)
    5f94:	57fd                	li	a5,-1
    5f96:	02f71763          	bne	a4,a5,5fc4 <xQueueGiveFromISR+0xb2>
                        }
                    }
                }
                #else /* configUSE_QUEUE_SETS */
                {
                    if( listLIST_IS_EMPTY( &( pxQueue->xTasksWaitingToReceive ) ) == pdFALSE )
    5f9a:	fe842783          	lw	a5,-24(s0)
    5f9e:	53dc                	lw	a5,36(a5)
    5fa0:	c3ad                	beqz	a5,6002 <xQueueGiveFromISR+0xf0>
                    {
                        if( xTaskRemoveFromEventList( &( pxQueue->xTasksWaitingToReceive ) ) != pdFALSE )
    5fa2:	fe842783          	lw	a5,-24(s0)
    5fa6:	02478793          	addi	a5,a5,36
    5faa:	853e                	mv	a0,a5
    5fac:	900fc0ef          	jal	20ac <xTaskRemoveFromEventList>
    5fb0:	87aa                	mv	a5,a0
    5fb2:	cba1                	beqz	a5,6002 <xQueueGiveFromISR+0xf0>
                        {
                            /* The task waiting has a higher priority so record that a
                             * context switch is required. */
                            if( pxHigherPriorityTaskWoken != NULL )
    5fb4:	fc842783          	lw	a5,-56(s0)
    5fb8:	c7a9                	beqz	a5,6002 <xQueueGiveFromISR+0xf0>
                            {
                                *pxHigherPriorityTaskWoken = pdTRUE;
    5fba:	fc842783          	lw	a5,-56(s0)
    5fbe:	4705                	li	a4,1
    5fc0:	c398                	sw	a4,0(a5)
    5fc2:	a081                	j	6002 <xQueueGiveFromISR+0xf0>
            }
            else
            {
                /* Increment the lock count so the task that unlocks the queue
                 * knows that data was posted while it was locked. */
                prvIncrementQueueTxLock( pxQueue, cTxLock );
    5fc4:	96dfb0ef          	jal	1930 <uxTaskGetNumberOfTasks>
    5fc8:	fca42c23          	sw	a0,-40(s0)
    5fcc:	fdf40783          	lb	a5,-33(s0)
    5fd0:	fd842703          	lw	a4,-40(s0)
    5fd4:	02e7f763          	bgeu	a5,a4,6002 <xQueueGiveFromISR+0xf0>
    5fd8:	fdf40703          	lb	a4,-33(s0)
    5fdc:	07f00793          	li	a5,127
    5fe0:	00f71563          	bne	a4,a5,5fea <xQueueGiveFromISR+0xd8>
    5fe4:	30047073          	csrci	mstatus,8
    5fe8:	a001                	j	5fe8 <xQueueGiveFromISR+0xd6>
    5fea:	fdf44783          	lbu	a5,-33(s0)
    5fee:	0785                	addi	a5,a5,1
    5ff0:	0ff7f793          	zext.b	a5,a5
    5ff4:	01879713          	slli	a4,a5,0x18
    5ff8:	8761                	srai	a4,a4,0x18
    5ffa:	fe842783          	lw	a5,-24(s0)
    5ffe:	04e782a3          	sb	a4,69(a5)
            }

            xReturn = pdPASS;
    6002:	4785                	li	a5,1
    6004:	fef42623          	sw	a5,-20(s0)
    6008:	a019                	j	600e <xQueueGiveFromISR+0xfc>
        }
        else
        {
            traceQUEUE_SEND_FROM_ISR_FAILED( pxQueue );
            xReturn = errQUEUE_FULL;
    600a:	fe042623          	sw	zero,-20(s0)
    }
    taskEXIT_CRITICAL_FROM_ISR( uxSavedInterruptStatus );

    traceRETURN_xQueueGiveFromISR( xReturn );

    return xReturn;
    600e:	fec42783          	lw	a5,-20(s0)
}
    6012:	853e                	mv	a0,a5
    6014:	50f2                	lw	ra,60(sp)
    6016:	5462                	lw	s0,56(sp)
    6018:	6121                	addi	sp,sp,64
    601a:	8082                	ret

0000601c <xQueueReceive>:
/*-----------------------------------------------------------*/

BaseType_t xQueueReceive( QueueHandle_t xQueue,
                          void * const pvBuffer,
                          TickType_t xTicksToWait )
{
    601c:	7139                	addi	sp,sp,-64
    601e:	de06                	sw	ra,60(sp)
    6020:	dc22                	sw	s0,56(sp)
    6022:	0080                	addi	s0,sp,64
    6024:	fca42623          	sw	a0,-52(s0)
    6028:	fcb42423          	sw	a1,-56(s0)
    602c:	fcc42223          	sw	a2,-60(s0)
    BaseType_t xEntryTimeSet = pdFALSE;
    6030:	fe042623          	sw	zero,-20(s0)
    TimeOut_t xTimeOut;
    Queue_t * const pxQueue = xQueue;
    6034:	fcc42783          	lw	a5,-52(s0)
    6038:	fef42423          	sw	a5,-24(s0)

    traceENTER_xQueueReceive( xQueue, pvBuffer, xTicksToWait );

    /* Check the pointer is not NULL. */
    configASSERT( ( pxQueue ) );
    603c:	fe842783          	lw	a5,-24(s0)
    6040:	e781                	bnez	a5,6048 <xQueueReceive+0x2c>
    6042:	30047073          	csrci	mstatus,8
    6046:	a001                	j	6046 <xQueueReceive+0x2a>

    /* The buffer into which data is received can only be NULL if the data size
     * is zero (so no data is copied into the buffer). */
    configASSERT( !( ( ( pvBuffer ) == NULL ) && ( ( pxQueue )->uxItemSize != ( UBaseType_t ) 0U ) ) );
    6048:	fc842783          	lw	a5,-56(s0)
    604c:	eb81                	bnez	a5,605c <xQueueReceive+0x40>
    604e:	fe842783          	lw	a5,-24(s0)
    6052:	43bc                	lw	a5,64(a5)
    6054:	c781                	beqz	a5,605c <xQueueReceive+0x40>
    6056:	30047073          	csrci	mstatus,8
    605a:	a001                	j	605a <xQueueReceive+0x3e>

    /* Cannot block if the scheduler is suspended. */
    #if ( ( INCLUDE_xTaskGetSchedulerState == 1 ) || ( configUSE_TIMERS == 1 ) )
    {
        configASSERT( !( ( xTaskGetSchedulerState() == taskSCHEDULER_SUSPENDED ) && ( xTicksToWait != 0 ) ) );
    605c:	871fc0ef          	jal	28cc <xTaskGetSchedulerState>
    6060:	87aa                	mv	a5,a0
    6062:	e799                	bnez	a5,6070 <xQueueReceive+0x54>
    6064:	fc442783          	lw	a5,-60(s0)
    6068:	c781                	beqz	a5,6070 <xQueueReceive+0x54>
    606a:	30047073          	csrci	mstatus,8
    606e:	a001                	j	606e <xQueueReceive+0x52>
    }
    #endif

    for( ; ; )
    {
        taskENTER_CRITICAL();
    6070:	30047073          	csrci	mstatus,8
    6074:	8081a783          	lw	a5,-2040(gp) # 20000060 <xCriticalNesting>
    6078:	00178713          	addi	a4,a5,1
    607c:	80e1a423          	sw	a4,-2040(gp) # 20000060 <xCriticalNesting>
        {
            const UBaseType_t uxMessagesWaiting = pxQueue->uxMessagesWaiting;
    6080:	fe842783          	lw	a5,-24(s0)
    6084:	5f9c                	lw	a5,56(a5)
    6086:	fef42223          	sw	a5,-28(s0)

            /* Is there data in the queue now?  To be running the calling task
             * must be the highest priority task wanting to access the queue. */
            if( uxMessagesWaiting > ( UBaseType_t ) 0 )
    608a:	fe442783          	lw	a5,-28(s0)
    608e:	cba9                	beqz	a5,60e0 <xQueueReceive+0xc4>
            {
                /* Data available, remove one item. */
                prvCopyDataFromQueue( pxQueue, pvBuffer );
    6090:	fc842583          	lw	a1,-56(s0)
    6094:	fe842503          	lw	a0,-24(s0)
    6098:	22b000ef          	jal	6ac2 <prvCopyDataFromQueue>
                traceQUEUE_RECEIVE( pxQueue );
                pxQueue->uxMessagesWaiting = ( UBaseType_t ) ( uxMessagesWaiting - ( UBaseType_t ) 1 );
    609c:	fe442783          	lw	a5,-28(s0)
    60a0:	fff78713          	addi	a4,a5,-1
    60a4:	fe842783          	lw	a5,-24(s0)
    60a8:	df98                	sw	a4,56(a5)

                /* There is now space in the queue, were any tasks waiting to
                 * post to the queue?  If so, unblock the highest priority waiting
                 * task. */
                if( listLIST_IS_EMPTY( &( pxQueue->xTasksWaitingToSend ) ) == pdFALSE )
    60aa:	fe842783          	lw	a5,-24(s0)
    60ae:	4b9c                	lw	a5,16(a5)
    60b0:	cb99                	beqz	a5,60c6 <xQueueReceive+0xaa>
                {
                    if( xTaskRemoveFromEventList( &( pxQueue->xTasksWaitingToSend ) ) != pdFALSE )
    60b2:	fe842783          	lw	a5,-24(s0)
    60b6:	07c1                	addi	a5,a5,16
    60b8:	853e                	mv	a0,a5
    60ba:	ff3fb0ef          	jal	20ac <xTaskRemoveFromEventList>
    60be:	87aa                	mv	a5,a0
    60c0:	c399                	beqz	a5,60c6 <xQueueReceive+0xaa>
                    {
                        queueYIELD_IF_USING_PREEMPTION();
    60c2:	00000073          	ecall
                else
                {
                    mtCOVERAGE_TEST_MARKER();
                }

                taskEXIT_CRITICAL();
    60c6:	8081a783          	lw	a5,-2040(gp) # 20000060 <xCriticalNesting>
    60ca:	fff78713          	addi	a4,a5,-1
    60ce:	80e1a423          	sw	a4,-2040(gp) # 20000060 <xCriticalNesting>
    60d2:	8081a783          	lw	a5,-2040(gp) # 20000060 <xCriticalNesting>
    60d6:	e399                	bnez	a5,60dc <xQueueReceive+0xc0>
    60d8:	30046073          	csrsi	mstatus,8

                traceRETURN_xQueueReceive( pdPASS );

                return pdPASS;
    60dc:	4785                	li	a5,1
    60de:	a21d                	j	6204 <xQueueReceive+0x1e8>
            }
            else
            {
                if( xTicksToWait == ( TickType_t ) 0 )
    60e0:	fc442783          	lw	a5,-60(s0)
    60e4:	ef91                	bnez	a5,6100 <xQueueReceive+0xe4>
                {
                    /* The queue was empty and no block time is specified (or
                     * the block time has expired) so leave now. */
                    taskEXIT_CRITICAL();
    60e6:	8081a783          	lw	a5,-2040(gp) # 20000060 <xCriticalNesting>
    60ea:	fff78713          	addi	a4,a5,-1
    60ee:	80e1a423          	sw	a4,-2040(gp) # 20000060 <xCriticalNesting>
    60f2:	8081a783          	lw	a5,-2040(gp) # 20000060 <xCriticalNesting>
    60f6:	e399                	bnez	a5,60fc <xQueueReceive+0xe0>
    60f8:	30046073          	csrsi	mstatus,8

                    traceQUEUE_RECEIVE_FAILED( pxQueue );
                    traceRETURN_xQueueReceive( errQUEUE_EMPTY );

                    return errQUEUE_EMPTY;
    60fc:	4781                	li	a5,0
    60fe:	a219                	j	6204 <xQueueReceive+0x1e8>
                }
                else if( xEntryTimeSet == pdFALSE )
    6100:	fec42783          	lw	a5,-20(s0)
    6104:	eb89                	bnez	a5,6116 <xQueueReceive+0xfa>
                {
                    /* The queue was empty and a block time was specified so
                     * configure the timeout structure. */
                    vTaskInternalSetTimeOutState( &xTimeOut );
    6106:	fdc40793          	addi	a5,s0,-36
    610a:	853e                	mv	a0,a5
    610c:	bf0fc0ef          	jal	24fc <vTaskInternalSetTimeOutState>
                    xEntryTimeSet = pdTRUE;
    6110:	4785                	li	a5,1
    6112:	fef42623          	sw	a5,-20(s0)
                    /* Entry time was already set. */
                    mtCOVERAGE_TEST_MARKER();
                }
            }
        }
        taskEXIT_CRITICAL();
    6116:	8081a783          	lw	a5,-2040(gp) # 20000060 <xCriticalNesting>
    611a:	fff78713          	addi	a4,a5,-1
    611e:	80e1a423          	sw	a4,-2040(gp) # 20000060 <xCriticalNesting>
    6122:	8081a783          	lw	a5,-2040(gp) # 20000060 <xCriticalNesting>
    6126:	e399                	bnez	a5,612c <xQueueReceive+0x110>
    6128:	30046073          	csrsi	mstatus,8

        /* Interrupts and other tasks can send to and receive from the queue
         * now the critical section has been exited. */

        vTaskSuspendAll();
    612c:	d2efb0ef          	jal	165a <vTaskSuspendAll>
        prvLockQueue( pxQueue );
    6130:	30047073          	csrci	mstatus,8
    6134:	8081a783          	lw	a5,-2040(gp) # 20000060 <xCriticalNesting>
    6138:	00178713          	addi	a4,a5,1
    613c:	80e1a423          	sw	a4,-2040(gp) # 20000060 <xCriticalNesting>
    6140:	fe842783          	lw	a5,-24(s0)
    6144:	0447c783          	lbu	a5,68(a5)
    6148:	01879713          	slli	a4,a5,0x18
    614c:	8761                	srai	a4,a4,0x18
    614e:	57fd                	li	a5,-1
    6150:	00f71663          	bne	a4,a5,615c <xQueueReceive+0x140>
    6154:	fe842783          	lw	a5,-24(s0)
    6158:	04078223          	sb	zero,68(a5)
    615c:	fe842783          	lw	a5,-24(s0)
    6160:	0457c783          	lbu	a5,69(a5)
    6164:	01879713          	slli	a4,a5,0x18
    6168:	8761                	srai	a4,a4,0x18
    616a:	57fd                	li	a5,-1
    616c:	00f71663          	bne	a4,a5,6178 <xQueueReceive+0x15c>
    6170:	fe842783          	lw	a5,-24(s0)
    6174:	040782a3          	sb	zero,69(a5)
    6178:	8081a783          	lw	a5,-2040(gp) # 20000060 <xCriticalNesting>
    617c:	fff78713          	addi	a4,a5,-1
    6180:	80e1a423          	sw	a4,-2040(gp) # 20000060 <xCriticalNesting>
    6184:	8081a783          	lw	a5,-2040(gp) # 20000060 <xCriticalNesting>
    6188:	e399                	bnez	a5,618e <xQueueReceive+0x172>
    618a:	30046073          	csrsi	mstatus,8

        /* Update the timeout state to see if it has expired yet. */
        if( xTaskCheckForTimeOut( &xTimeOut, &xTicksToWait ) == pdFALSE )
    618e:	fc440713          	addi	a4,s0,-60
    6192:	fdc40793          	addi	a5,s0,-36
    6196:	85ba                	mv	a1,a4
    6198:	853e                	mv	a0,a5
    619a:	b8cfc0ef          	jal	2526 <xTaskCheckForTimeOut>
    619e:	87aa                	mv	a5,a0
    61a0:	e7a1                	bnez	a5,61e8 <xQueueReceive+0x1cc>
        {
            /* The timeout has not expired.  If the queue is still empty place
             * the task on the list of tasks waiting to receive from the queue. */
            if( prvIsQueueEmpty( pxQueue ) != pdFALSE )
    61a2:	fe842503          	lw	a0,-24(s0)
    61a6:	285000ef          	jal	6c2a <prvIsQueueEmpty>
    61aa:	87aa                	mv	a5,a0
    61ac:	c79d                	beqz	a5,61da <xQueueReceive+0x1be>
            {
                traceBLOCKING_ON_QUEUE_RECEIVE( pxQueue );
                vTaskPlaceOnEventList( &( pxQueue->xTasksWaitingToReceive ), xTicksToWait );
    61ae:	fe842783          	lw	a5,-24(s0)
    61b2:	02478793          	addi	a5,a5,36
    61b6:	fc442703          	lw	a4,-60(s0)
    61ba:	85ba                	mv	a1,a4
    61bc:	853e                	mv	a0,a5
    61be:	e09fb0ef          	jal	1fc6 <vTaskPlaceOnEventList>
                prvUnlockQueue( pxQueue );
    61c2:	fe842503          	lw	a0,-24(s0)
    61c6:	165000ef          	jal	6b2a <prvUnlockQueue>

                if( xTaskResumeAll() == pdFALSE )
    61ca:	caefb0ef          	jal	1678 <xTaskResumeAll>
    61ce:	87aa                	mv	a5,a0
    61d0:	ea0790e3          	bnez	a5,6070 <xQueueReceive+0x54>
                {
                    taskYIELD_WITHIN_API();
    61d4:	00000073          	ecall
    61d8:	bd61                	j	6070 <xQueueReceive+0x54>
            }
            else
            {
                /* The queue contains data again.  Loop back to try and read the
                 * data. */
                prvUnlockQueue( pxQueue );
    61da:	fe842503          	lw	a0,-24(s0)
    61de:	14d000ef          	jal	6b2a <prvUnlockQueue>
                ( void ) xTaskResumeAll();
    61e2:	c96fb0ef          	jal	1678 <xTaskResumeAll>
    61e6:	b569                	j	6070 <xQueueReceive+0x54>
        }
        else
        {
            /* Timed out.  If there is no data in the queue exit, otherwise loop
             * back and attempt to read the data. */
            prvUnlockQueue( pxQueue );
    61e8:	fe842503          	lw	a0,-24(s0)
    61ec:	13f000ef          	jal	6b2a <prvUnlockQueue>
            ( void ) xTaskResumeAll();
    61f0:	c88fb0ef          	jal	1678 <xTaskResumeAll>

            if( prvIsQueueEmpty( pxQueue ) != pdFALSE )
    61f4:	fe842503          	lw	a0,-24(s0)
    61f8:	233000ef          	jal	6c2a <prvIsQueueEmpty>
    61fc:	87aa                	mv	a5,a0
    61fe:	e60789e3          	beqz	a5,6070 <xQueueReceive+0x54>
            {
                traceQUEUE_RECEIVE_FAILED( pxQueue );
                traceRETURN_xQueueReceive( errQUEUE_EMPTY );

                return errQUEUE_EMPTY;
    6202:	4781                	li	a5,0
            {
                mtCOVERAGE_TEST_MARKER();
            }
        }
    }
}
    6204:	853e                	mv	a0,a5
    6206:	50f2                	lw	ra,60(sp)
    6208:	5462                	lw	s0,56(sp)
    620a:	6121                	addi	sp,sp,64
    620c:	8082                	ret

0000620e <xQueueSemaphoreTake>:
/*-----------------------------------------------------------*/

BaseType_t xQueueSemaphoreTake( QueueHandle_t xQueue,
                                TickType_t xTicksToWait )
{
    620e:	7139                	addi	sp,sp,-64
    6210:	de06                	sw	ra,60(sp)
    6212:	dc22                	sw	s0,56(sp)
    6214:	0080                	addi	s0,sp,64
    6216:	fca42623          	sw	a0,-52(s0)
    621a:	fcb42423          	sw	a1,-56(s0)
    BaseType_t xEntryTimeSet = pdFALSE;
    621e:	fe042623          	sw	zero,-20(s0)
    TimeOut_t xTimeOut;
    Queue_t * const pxQueue = xQueue;
    6222:	fcc42783          	lw	a5,-52(s0)
    6226:	fef42223          	sw	a5,-28(s0)

    #if ( configUSE_MUTEXES == 1 )
        BaseType_t xInheritanceOccurred = pdFALSE;
    622a:	fe042423          	sw	zero,-24(s0)
    #endif

    traceENTER_xQueueSemaphoreTake( xQueue, xTicksToWait );

    /* Check the queue pointer is not NULL. */
    configASSERT( ( pxQueue ) );
    622e:	fe442783          	lw	a5,-28(s0)
    6232:	e781                	bnez	a5,623a <xQueueSemaphoreTake+0x2c>
    6234:	30047073          	csrci	mstatus,8
    6238:	a001                	j	6238 <xQueueSemaphoreTake+0x2a>

    /* Check this really is a semaphore, in which case the item size will be
     * 0. */
    configASSERT( pxQueue->uxItemSize == 0 );
    623a:	fe442783          	lw	a5,-28(s0)
    623e:	43bc                	lw	a5,64(a5)
    6240:	c781                	beqz	a5,6248 <xQueueSemaphoreTake+0x3a>
    6242:	30047073          	csrci	mstatus,8
    6246:	a001                	j	6246 <xQueueSemaphoreTake+0x38>

    /* Cannot block if the scheduler is suspended. */
    #if ( ( INCLUDE_xTaskGetSchedulerState == 1 ) || ( configUSE_TIMERS == 1 ) )
    {
        configASSERT( !( ( xTaskGetSchedulerState() == taskSCHEDULER_SUSPENDED ) && ( xTicksToWait != 0 ) ) );
    6248:	e84fc0ef          	jal	28cc <xTaskGetSchedulerState>
    624c:	87aa                	mv	a5,a0
    624e:	e799                	bnez	a5,625c <xQueueSemaphoreTake+0x4e>
    6250:	fc842783          	lw	a5,-56(s0)
    6254:	c781                	beqz	a5,625c <xQueueSemaphoreTake+0x4e>
    6256:	30047073          	csrci	mstatus,8
    625a:	a001                	j	625a <xQueueSemaphoreTake+0x4c>
    }
    #endif

    for( ; ; )
    {
        taskENTER_CRITICAL();
    625c:	30047073          	csrci	mstatus,8
    6260:	8081a783          	lw	a5,-2040(gp) # 20000060 <xCriticalNesting>
    6264:	00178713          	addi	a4,a5,1
    6268:	80e1a423          	sw	a4,-2040(gp) # 20000060 <xCriticalNesting>
        {
            /* Semaphores are queues with an item size of 0, and where the
             * number of messages in the queue is the semaphore's count value. */
            const UBaseType_t uxSemaphoreCount = pxQueue->uxMessagesWaiting;
    626c:	fe442783          	lw	a5,-28(s0)
    6270:	5f9c                	lw	a5,56(a5)
    6272:	fef42023          	sw	a5,-32(s0)

            /* Is there data in the queue now?  To be running the calling task
             * must be the highest priority task wanting to access the queue. */
            if( uxSemaphoreCount > ( UBaseType_t ) 0 )
    6276:	fe042783          	lw	a5,-32(s0)
    627a:	cfa9                	beqz	a5,62d4 <xQueueSemaphoreTake+0xc6>
            {
                traceQUEUE_RECEIVE( pxQueue );

                /* Semaphores are queues with a data size of zero and where the
                 * messages waiting is the semaphore's count.  Reduce the count. */
                pxQueue->uxMessagesWaiting = ( UBaseType_t ) ( uxSemaphoreCount - ( UBaseType_t ) 1 );
    627c:	fe042783          	lw	a5,-32(s0)
    6280:	fff78713          	addi	a4,a5,-1
    6284:	fe442783          	lw	a5,-28(s0)
    6288:	df98                	sw	a4,56(a5)

                #if ( configUSE_MUTEXES == 1 )
                {
                    if( pxQueue->uxQueueType == queueQUEUE_IS_MUTEX )
    628a:	fe442783          	lw	a5,-28(s0)
    628e:	439c                	lw	a5,0(a5)
    6290:	e799                	bnez	a5,629e <xQueueSemaphoreTake+0x90>
                    {
                        /* Record the information required to implement
                         * priority inheritance should it become necessary. */
                        pxQueue->u.xSemaphore.xMutexHolder = pvTaskIncrementMutexHeldCount();
    6292:	b81fc0ef          	jal	2e12 <pvTaskIncrementMutexHeldCount>
    6296:	872a                	mv	a4,a0
    6298:	fe442783          	lw	a5,-28(s0)
    629c:	c798                	sw	a4,8(a5)
                }
                #endif /* configUSE_MUTEXES */

                /* Check to see if other tasks are blocked waiting to give the
                 * semaphore, and if so, unblock the highest priority such task. */
                if( listLIST_IS_EMPTY( &( pxQueue->xTasksWaitingToSend ) ) == pdFALSE )
    629e:	fe442783          	lw	a5,-28(s0)
    62a2:	4b9c                	lw	a5,16(a5)
    62a4:	cb99                	beqz	a5,62ba <xQueueSemaphoreTake+0xac>
                {
                    if( xTaskRemoveFromEventList( &( pxQueue->xTasksWaitingToSend ) ) != pdFALSE )
    62a6:	fe442783          	lw	a5,-28(s0)
    62aa:	07c1                	addi	a5,a5,16
    62ac:	853e                	mv	a0,a5
    62ae:	dfffb0ef          	jal	20ac <xTaskRemoveFromEventList>
    62b2:	87aa                	mv	a5,a0
    62b4:	c399                	beqz	a5,62ba <xQueueSemaphoreTake+0xac>
                    {
                        queueYIELD_IF_USING_PREEMPTION();
    62b6:	00000073          	ecall
                else
                {
                    mtCOVERAGE_TEST_MARKER();
                }

                taskEXIT_CRITICAL();
    62ba:	8081a783          	lw	a5,-2040(gp) # 20000060 <xCriticalNesting>
    62be:	fff78713          	addi	a4,a5,-1
    62c2:	80e1a423          	sw	a4,-2040(gp) # 20000060 <xCriticalNesting>
    62c6:	8081a783          	lw	a5,-2040(gp) # 20000060 <xCriticalNesting>
    62ca:	e399                	bnez	a5,62d0 <xQueueSemaphoreTake+0xc2>
    62cc:	30046073          	csrsi	mstatus,8

                traceRETURN_xQueueSemaphoreTake( pdPASS );

                return pdPASS;
    62d0:	4785                	li	a5,1
    62d2:	a26d                	j	647c <xQueueSemaphoreTake+0x26e>
            }
            else
            {
                if( xTicksToWait == ( TickType_t ) 0 )
    62d4:	fc842783          	lw	a5,-56(s0)
    62d8:	ef91                	bnez	a5,62f4 <xQueueSemaphoreTake+0xe6>
                {
                    /* The semaphore count was 0 and no block time is specified
                     * (or the block time has expired) so exit now. */
                    taskEXIT_CRITICAL();
    62da:	8081a783          	lw	a5,-2040(gp) # 20000060 <xCriticalNesting>
    62de:	fff78713          	addi	a4,a5,-1
    62e2:	80e1a423          	sw	a4,-2040(gp) # 20000060 <xCriticalNesting>
    62e6:	8081a783          	lw	a5,-2040(gp) # 20000060 <xCriticalNesting>
    62ea:	e399                	bnez	a5,62f0 <xQueueSemaphoreTake+0xe2>
    62ec:	30046073          	csrsi	mstatus,8

                    traceQUEUE_RECEIVE_FAILED( pxQueue );
                    traceRETURN_xQueueSemaphoreTake( errQUEUE_EMPTY );

                    return errQUEUE_EMPTY;
    62f0:	4781                	li	a5,0
    62f2:	a269                	j	647c <xQueueSemaphoreTake+0x26e>
                }
                else if( xEntryTimeSet == pdFALSE )
    62f4:	fec42783          	lw	a5,-20(s0)
    62f8:	eb89                	bnez	a5,630a <xQueueSemaphoreTake+0xfc>
                {
                    /* The semaphore count was 0 and a block time was specified
                     * so configure the timeout structure ready to block. */
                    vTaskInternalSetTimeOutState( &xTimeOut );
    62fa:	fd440793          	addi	a5,s0,-44
    62fe:	853e                	mv	a0,a5
    6300:	9fcfc0ef          	jal	24fc <vTaskInternalSetTimeOutState>
                    xEntryTimeSet = pdTRUE;
    6304:	4785                	li	a5,1
    6306:	fef42623          	sw	a5,-20(s0)
                    /* Entry time was already set. */
                    mtCOVERAGE_TEST_MARKER();
                }
            }
        }
        taskEXIT_CRITICAL();
    630a:	8081a783          	lw	a5,-2040(gp) # 20000060 <xCriticalNesting>
    630e:	fff78713          	addi	a4,a5,-1
    6312:	80e1a423          	sw	a4,-2040(gp) # 20000060 <xCriticalNesting>
    6316:	8081a783          	lw	a5,-2040(gp) # 20000060 <xCriticalNesting>
    631a:	e399                	bnez	a5,6320 <xQueueSemaphoreTake+0x112>
    631c:	30046073          	csrsi	mstatus,8

        /* Interrupts and other tasks can give to and take from the semaphore
         * now the critical section has been exited. */

        vTaskSuspendAll();
    6320:	b3afb0ef          	jal	165a <vTaskSuspendAll>
        prvLockQueue( pxQueue );
    6324:	30047073          	csrci	mstatus,8
    6328:	8081a783          	lw	a5,-2040(gp) # 20000060 <xCriticalNesting>
    632c:	00178713          	addi	a4,a5,1
    6330:	80e1a423          	sw	a4,-2040(gp) # 20000060 <xCriticalNesting>
    6334:	fe442783          	lw	a5,-28(s0)
    6338:	0447c783          	lbu	a5,68(a5)
    633c:	01879713          	slli	a4,a5,0x18
    6340:	8761                	srai	a4,a4,0x18
    6342:	57fd                	li	a5,-1
    6344:	00f71663          	bne	a4,a5,6350 <xQueueSemaphoreTake+0x142>
    6348:	fe442783          	lw	a5,-28(s0)
    634c:	04078223          	sb	zero,68(a5)
    6350:	fe442783          	lw	a5,-28(s0)
    6354:	0457c783          	lbu	a5,69(a5)
    6358:	01879713          	slli	a4,a5,0x18
    635c:	8761                	srai	a4,a4,0x18
    635e:	57fd                	li	a5,-1
    6360:	00f71663          	bne	a4,a5,636c <xQueueSemaphoreTake+0x15e>
    6364:	fe442783          	lw	a5,-28(s0)
    6368:	040782a3          	sb	zero,69(a5)
    636c:	8081a783          	lw	a5,-2040(gp) # 20000060 <xCriticalNesting>
    6370:	fff78713          	addi	a4,a5,-1
    6374:	80e1a423          	sw	a4,-2040(gp) # 20000060 <xCriticalNesting>
    6378:	8081a783          	lw	a5,-2040(gp) # 20000060 <xCriticalNesting>
    637c:	e399                	bnez	a5,6382 <xQueueSemaphoreTake+0x174>
    637e:	30046073          	csrsi	mstatus,8

        /* Update the timeout state to see if it has expired yet. */
        if( xTaskCheckForTimeOut( &xTimeOut, &xTicksToWait ) == pdFALSE )
    6382:	fc840713          	addi	a4,s0,-56
    6386:	fd440793          	addi	a5,s0,-44
    638a:	85ba                	mv	a1,a4
    638c:	853e                	mv	a0,a5
    638e:	998fc0ef          	jal	2526 <xTaskCheckForTimeOut>
    6392:	87aa                	mv	a5,a0
    6394:	e3d9                	bnez	a5,641a <xQueueSemaphoreTake+0x20c>
        {
            /* A block time is specified and not expired.  If the semaphore
             * count is 0 then enter the Blocked state to wait for a semaphore to
             * become available.  As semaphores are implemented with queues the
             * queue being empty is equivalent to the semaphore count being 0. */
            if( prvIsQueueEmpty( pxQueue ) != pdFALSE )
    6396:	fe442503          	lw	a0,-28(s0)
    639a:	091000ef          	jal	6c2a <prvIsQueueEmpty>
    639e:	87aa                	mv	a5,a0
    63a0:	c7b5                	beqz	a5,640c <xQueueSemaphoreTake+0x1fe>
            {
                traceBLOCKING_ON_QUEUE_RECEIVE( pxQueue );

                #if ( configUSE_MUTEXES == 1 )
                {
                    if( pxQueue->uxQueueType == queueQUEUE_IS_MUTEX )
    63a2:	fe442783          	lw	a5,-28(s0)
    63a6:	439c                	lw	a5,0(a5)
    63a8:	ef85                	bnez	a5,63e0 <xQueueSemaphoreTake+0x1d2>
                    {
                        taskENTER_CRITICAL();
    63aa:	30047073          	csrci	mstatus,8
    63ae:	8081a783          	lw	a5,-2040(gp) # 20000060 <xCriticalNesting>
    63b2:	00178713          	addi	a4,a5,1
    63b6:	80e1a423          	sw	a4,-2040(gp) # 20000060 <xCriticalNesting>
                        {
                            xInheritanceOccurred = xTaskPriorityInherit( pxQueue->u.xSemaphore.xMutexHolder );
    63ba:	fe442783          	lw	a5,-28(s0)
    63be:	479c                	lw	a5,8(a5)
    63c0:	853e                	mv	a0,a5
    63c2:	d40fc0ef          	jal	2902 <xTaskPriorityInherit>
    63c6:	fea42423          	sw	a0,-24(s0)
                        }
                        taskEXIT_CRITICAL();
    63ca:	8081a783          	lw	a5,-2040(gp) # 20000060 <xCriticalNesting>
    63ce:	fff78713          	addi	a4,a5,-1
    63d2:	80e1a423          	sw	a4,-2040(gp) # 20000060 <xCriticalNesting>
    63d6:	8081a783          	lw	a5,-2040(gp) # 20000060 <xCriticalNesting>
    63da:	e399                	bnez	a5,63e0 <xQueueSemaphoreTake+0x1d2>
    63dc:	30046073          	csrsi	mstatus,8
                        mtCOVERAGE_TEST_MARKER();
                    }
                }
                #endif /* if ( configUSE_MUTEXES == 1 ) */

                vTaskPlaceOnEventList( &( pxQueue->xTasksWaitingToReceive ), xTicksToWait );
    63e0:	fe442783          	lw	a5,-28(s0)
    63e4:	02478793          	addi	a5,a5,36
    63e8:	fc842703          	lw	a4,-56(s0)
    63ec:	85ba                	mv	a1,a4
    63ee:	853e                	mv	a0,a5
    63f0:	bd7fb0ef          	jal	1fc6 <vTaskPlaceOnEventList>
                prvUnlockQueue( pxQueue );
    63f4:	fe442503          	lw	a0,-28(s0)
    63f8:	732000ef          	jal	6b2a <prvUnlockQueue>

                if( xTaskResumeAll() == pdFALSE )
    63fc:	a7cfb0ef          	jal	1678 <xTaskResumeAll>
    6400:	87aa                	mv	a5,a0
    6402:	e4079de3          	bnez	a5,625c <xQueueSemaphoreTake+0x4e>
                {
                    taskYIELD_WITHIN_API();
    6406:	00000073          	ecall
    640a:	bd89                	j	625c <xQueueSemaphoreTake+0x4e>
            }
            else
            {
                /* There was no timeout and the semaphore count was not 0, so
                 * attempt to take the semaphore again. */
                prvUnlockQueue( pxQueue );
    640c:	fe442503          	lw	a0,-28(s0)
    6410:	71a000ef          	jal	6b2a <prvUnlockQueue>
                ( void ) xTaskResumeAll();
    6414:	a64fb0ef          	jal	1678 <xTaskResumeAll>
    6418:	b591                	j	625c <xQueueSemaphoreTake+0x4e>
            }
        }
        else
        {
            /* Timed out. */
            prvUnlockQueue( pxQueue );
    641a:	fe442503          	lw	a0,-28(s0)
    641e:	70c000ef          	jal	6b2a <prvUnlockQueue>
            ( void ) xTaskResumeAll();
    6422:	a56fb0ef          	jal	1678 <xTaskResumeAll>

            /* If the semaphore count is 0 exit now as the timeout has
             * expired.  Otherwise return to attempt to take the semaphore that is
             * known to be available.  As semaphores are implemented by queues the
             * queue being empty is equivalent to the semaphore count being 0. */
            if( prvIsQueueEmpty( pxQueue ) != pdFALSE )
    6426:	fe442503          	lw	a0,-28(s0)
    642a:	001000ef          	jal	6c2a <prvIsQueueEmpty>
    642e:	87aa                	mv	a5,a0
    6430:	e20786e3          	beqz	a5,625c <xQueueSemaphoreTake+0x4e>
                #if ( configUSE_MUTEXES == 1 )
                {
                    /* xInheritanceOccurred could only have be set if
                     * pxQueue->uxQueueType == queueQUEUE_IS_MUTEX so no need to
                     * test the mutex type again to check it is actually a mutex. */
                    if( xInheritanceOccurred != pdFALSE )
    6434:	fe842783          	lw	a5,-24(s0)
    6438:	c3a9                	beqz	a5,647a <xQueueSemaphoreTake+0x26c>
                    {
                        taskENTER_CRITICAL();
    643a:	30047073          	csrci	mstatus,8
    643e:	8081a783          	lw	a5,-2040(gp) # 20000060 <xCriticalNesting>
    6442:	00178713          	addi	a4,a5,1
    6446:	80e1a423          	sw	a4,-2040(gp) # 20000060 <xCriticalNesting>
                            /* This task blocking on the mutex caused another
                             * task to inherit this task's priority.  Now this task
                             * has timed out the priority should be disinherited
                             * again, but only as low as the next highest priority
                             * task that is waiting for the same mutex. */
                            uxHighestWaitingPriority = prvGetHighestPriorityOfWaitToReceiveList( pxQueue );
    644a:	fe442503          	lw	a0,-28(s0)
    644e:	2b09                	jal	6960 <prvGetHighestPriorityOfWaitToReceiveList>
    6450:	fca42e23          	sw	a0,-36(s0)
                             * mutex to the ready list for its new priority. Coverity thinks that
                             * it can result in out-of-bounds access which is not true because
                             * uxHighestWaitingPriority, as returned by prvGetHighestPriorityOfWaitToReceiveList,
                             * is capped at ( configMAX_PRIORITIES - 1 ). */
                            /* coverity[overrun] */
                            vTaskPriorityDisinheritAfterTimeout( pxQueue->u.xSemaphore.xMutexHolder, uxHighestWaitingPriority );
    6454:	fe442783          	lw	a5,-28(s0)
    6458:	479c                	lw	a5,8(a5)
    645a:	fdc42583          	lw	a1,-36(s0)
    645e:	853e                	mv	a0,a5
    6460:	fbefc0ef          	jal	2c1e <vTaskPriorityDisinheritAfterTimeout>
                        }
                        taskEXIT_CRITICAL();
    6464:	8081a783          	lw	a5,-2040(gp) # 20000060 <xCriticalNesting>
    6468:	fff78713          	addi	a4,a5,-1
    646c:	80e1a423          	sw	a4,-2040(gp) # 20000060 <xCriticalNesting>
    6470:	8081a783          	lw	a5,-2040(gp) # 20000060 <xCriticalNesting>
    6474:	e399                	bnez	a5,647a <xQueueSemaphoreTake+0x26c>
    6476:	30046073          	csrsi	mstatus,8
                #endif /* configUSE_MUTEXES */

                traceQUEUE_RECEIVE_FAILED( pxQueue );
                traceRETURN_xQueueSemaphoreTake( errQUEUE_EMPTY );

                return errQUEUE_EMPTY;
    647a:	4781                	li	a5,0
            {
                mtCOVERAGE_TEST_MARKER();
            }
        }
    }
}
    647c:	853e                	mv	a0,a5
    647e:	50f2                	lw	ra,60(sp)
    6480:	5462                	lw	s0,56(sp)
    6482:	6121                	addi	sp,sp,64
    6484:	8082                	ret

00006486 <xQueuePeek>:
/*-----------------------------------------------------------*/

BaseType_t xQueuePeek( QueueHandle_t xQueue,
                       void * const pvBuffer,
                       TickType_t xTicksToWait )
{
    6486:	7139                	addi	sp,sp,-64
    6488:	de06                	sw	ra,60(sp)
    648a:	dc22                	sw	s0,56(sp)
    648c:	0080                	addi	s0,sp,64
    648e:	fca42623          	sw	a0,-52(s0)
    6492:	fcb42423          	sw	a1,-56(s0)
    6496:	fcc42223          	sw	a2,-60(s0)
    BaseType_t xEntryTimeSet = pdFALSE;
    649a:	fe042623          	sw	zero,-20(s0)
    TimeOut_t xTimeOut;
    int8_t * pcOriginalReadPosition;
    Queue_t * const pxQueue = xQueue;
    649e:	fcc42783          	lw	a5,-52(s0)
    64a2:	fef42423          	sw	a5,-24(s0)

    traceENTER_xQueuePeek( xQueue, pvBuffer, xTicksToWait );

    /* The buffer into which data is received can only be NULL if the data size
     * is zero (so no data is copied into the buffer. */
    configASSERT( ( pxQueue != NULL ) && !( ( ( pvBuffer ) == NULL ) && ( ( pxQueue )->uxItemSize != ( UBaseType_t ) 0U ) ) );
    64a6:	fe842783          	lw	a5,-24(s0)
    64aa:	cb81                	beqz	a5,64ba <xQueuePeek+0x34>
    64ac:	fc842783          	lw	a5,-56(s0)
    64b0:	eb81                	bnez	a5,64c0 <xQueuePeek+0x3a>
    64b2:	fe842783          	lw	a5,-24(s0)
    64b6:	43bc                	lw	a5,64(a5)
    64b8:	c781                	beqz	a5,64c0 <xQueuePeek+0x3a>
    64ba:	30047073          	csrci	mstatus,8
    64be:	a001                	j	64be <xQueuePeek+0x38>

    /* Cannot block if the scheduler is suspended. */
    #if ( ( INCLUDE_xTaskGetSchedulerState == 1 ) || ( configUSE_TIMERS == 1 ) )
    {
        configASSERT( !( ( xTaskGetSchedulerState() == taskSCHEDULER_SUSPENDED ) && ( xTicksToWait != 0 ) ) );
    64c0:	c0cfc0ef          	jal	28cc <xTaskGetSchedulerState>
    64c4:	87aa                	mv	a5,a0
    64c6:	e799                	bnez	a5,64d4 <xQueuePeek+0x4e>
    64c8:	fc442783          	lw	a5,-60(s0)
    64cc:	c781                	beqz	a5,64d4 <xQueuePeek+0x4e>
    64ce:	30047073          	csrci	mstatus,8
    64d2:	a001                	j	64d2 <xQueuePeek+0x4c>
    }
    #endif

    for( ; ; )
    {
        taskENTER_CRITICAL();
    64d4:	30047073          	csrci	mstatus,8
    64d8:	8081a783          	lw	a5,-2040(gp) # 20000060 <xCriticalNesting>
    64dc:	00178713          	addi	a4,a5,1
    64e0:	80e1a423          	sw	a4,-2040(gp) # 20000060 <xCriticalNesting>
        {
            const UBaseType_t uxMessagesWaiting = pxQueue->uxMessagesWaiting;
    64e4:	fe842783          	lw	a5,-24(s0)
    64e8:	5f9c                	lw	a5,56(a5)
    64ea:	fef42223          	sw	a5,-28(s0)

            /* Is there data in the queue now?  To be running the calling task
             * must be the highest priority task wanting to access the queue. */
            if( uxMessagesWaiting > ( UBaseType_t ) 0 )
    64ee:	fe442783          	lw	a5,-28(s0)
    64f2:	cfa1                	beqz	a5,654a <xQueuePeek+0xc4>
            {
                /* Remember the read position so it can be reset after the data
                 * is read from the queue as this function is only peeking the
                 * data, not removing it. */
                pcOriginalReadPosition = pxQueue->u.xQueue.pcReadFrom;
    64f4:	fe842783          	lw	a5,-24(s0)
    64f8:	47dc                	lw	a5,12(a5)
    64fa:	fef42023          	sw	a5,-32(s0)

                prvCopyDataFromQueue( pxQueue, pvBuffer );
    64fe:	fc842583          	lw	a1,-56(s0)
    6502:	fe842503          	lw	a0,-24(s0)
    6506:	2b75                	jal	6ac2 <prvCopyDataFromQueue>
                traceQUEUE_PEEK( pxQueue );

                /* The data is not being removed, so reset the read pointer. */
                pxQueue->u.xQueue.pcReadFrom = pcOriginalReadPosition;
    6508:	fe842783          	lw	a5,-24(s0)
    650c:	fe042703          	lw	a4,-32(s0)
    6510:	c7d8                	sw	a4,12(a5)

                /* The data is being left in the queue, so see if there are
                 * any other tasks waiting for the data. */
                if( listLIST_IS_EMPTY( &( pxQueue->xTasksWaitingToReceive ) ) == pdFALSE )
    6512:	fe842783          	lw	a5,-24(s0)
    6516:	53dc                	lw	a5,36(a5)
    6518:	cf81                	beqz	a5,6530 <xQueuePeek+0xaa>
                {
                    if( xTaskRemoveFromEventList( &( pxQueue->xTasksWaitingToReceive ) ) != pdFALSE )
    651a:	fe842783          	lw	a5,-24(s0)
    651e:	02478793          	addi	a5,a5,36
    6522:	853e                	mv	a0,a5
    6524:	b89fb0ef          	jal	20ac <xTaskRemoveFromEventList>
    6528:	87aa                	mv	a5,a0
    652a:	c399                	beqz	a5,6530 <xQueuePeek+0xaa>
                    {
                        /* The task waiting has a higher priority than this task. */
                        queueYIELD_IF_USING_PREEMPTION();
    652c:	00000073          	ecall
                else
                {
                    mtCOVERAGE_TEST_MARKER();
                }

                taskEXIT_CRITICAL();
    6530:	8081a783          	lw	a5,-2040(gp) # 20000060 <xCriticalNesting>
    6534:	fff78713          	addi	a4,a5,-1
    6538:	80e1a423          	sw	a4,-2040(gp) # 20000060 <xCriticalNesting>
    653c:	8081a783          	lw	a5,-2040(gp) # 20000060 <xCriticalNesting>
    6540:	e399                	bnez	a5,6546 <xQueuePeek+0xc0>
    6542:	30046073          	csrsi	mstatus,8

                traceRETURN_xQueuePeek( pdPASS );

                return pdPASS;
    6546:	4785                	li	a5,1
    6548:	aa31                	j	6664 <xQueuePeek+0x1de>
            }
            else
            {
                if( xTicksToWait == ( TickType_t ) 0 )
    654a:	fc442783          	lw	a5,-60(s0)
    654e:	ef91                	bnez	a5,656a <xQueuePeek+0xe4>
                {
                    /* The queue was empty and no block time is specified (or
                     * the block time has expired) so leave now. */
                    taskEXIT_CRITICAL();
    6550:	8081a783          	lw	a5,-2040(gp) # 20000060 <xCriticalNesting>
    6554:	fff78713          	addi	a4,a5,-1
    6558:	80e1a423          	sw	a4,-2040(gp) # 20000060 <xCriticalNesting>
    655c:	8081a783          	lw	a5,-2040(gp) # 20000060 <xCriticalNesting>
    6560:	e399                	bnez	a5,6566 <xQueuePeek+0xe0>
    6562:	30046073          	csrsi	mstatus,8

                    traceQUEUE_PEEK_FAILED( pxQueue );
                    traceRETURN_xQueuePeek( errQUEUE_EMPTY );

                    return errQUEUE_EMPTY;
    6566:	4781                	li	a5,0
    6568:	a8f5                	j	6664 <xQueuePeek+0x1de>
                }
                else if( xEntryTimeSet == pdFALSE )
    656a:	fec42783          	lw	a5,-20(s0)
    656e:	eb89                	bnez	a5,6580 <xQueuePeek+0xfa>
                {
                    /* The queue was empty and a block time was specified so
                     * configure the timeout structure ready to enter the blocked
                     * state. */
                    vTaskInternalSetTimeOutState( &xTimeOut );
    6570:	fd840793          	addi	a5,s0,-40
    6574:	853e                	mv	a0,a5
    6576:	f87fb0ef          	jal	24fc <vTaskInternalSetTimeOutState>
                    xEntryTimeSet = pdTRUE;
    657a:	4785                	li	a5,1
    657c:	fef42623          	sw	a5,-20(s0)
                    /* Entry time was already set. */
                    mtCOVERAGE_TEST_MARKER();
                }
            }
        }
        taskEXIT_CRITICAL();
    6580:	8081a783          	lw	a5,-2040(gp) # 20000060 <xCriticalNesting>
    6584:	fff78713          	addi	a4,a5,-1
    6588:	80e1a423          	sw	a4,-2040(gp) # 20000060 <xCriticalNesting>
    658c:	8081a783          	lw	a5,-2040(gp) # 20000060 <xCriticalNesting>
    6590:	e399                	bnez	a5,6596 <xQueuePeek+0x110>
    6592:	30046073          	csrsi	mstatus,8

        /* Interrupts and other tasks can send to and receive from the queue
         * now that the critical section has been exited. */

        vTaskSuspendAll();
    6596:	8c4fb0ef          	jal	165a <vTaskSuspendAll>
        prvLockQueue( pxQueue );
    659a:	30047073          	csrci	mstatus,8
    659e:	8081a783          	lw	a5,-2040(gp) # 20000060 <xCriticalNesting>
    65a2:	00178713          	addi	a4,a5,1
    65a6:	80e1a423          	sw	a4,-2040(gp) # 20000060 <xCriticalNesting>
    65aa:	fe842783          	lw	a5,-24(s0)
    65ae:	0447c783          	lbu	a5,68(a5)
    65b2:	01879713          	slli	a4,a5,0x18
    65b6:	8761                	srai	a4,a4,0x18
    65b8:	57fd                	li	a5,-1
    65ba:	00f71663          	bne	a4,a5,65c6 <xQueuePeek+0x140>
    65be:	fe842783          	lw	a5,-24(s0)
    65c2:	04078223          	sb	zero,68(a5)
    65c6:	fe842783          	lw	a5,-24(s0)
    65ca:	0457c783          	lbu	a5,69(a5)
    65ce:	01879713          	slli	a4,a5,0x18
    65d2:	8761                	srai	a4,a4,0x18
    65d4:	57fd                	li	a5,-1
    65d6:	00f71663          	bne	a4,a5,65e2 <xQueuePeek+0x15c>
    65da:	fe842783          	lw	a5,-24(s0)
    65de:	040782a3          	sb	zero,69(a5)
    65e2:	8081a783          	lw	a5,-2040(gp) # 20000060 <xCriticalNesting>
    65e6:	fff78713          	addi	a4,a5,-1
    65ea:	80e1a423          	sw	a4,-2040(gp) # 20000060 <xCriticalNesting>
    65ee:	8081a783          	lw	a5,-2040(gp) # 20000060 <xCriticalNesting>
    65f2:	e399                	bnez	a5,65f8 <xQueuePeek+0x172>
    65f4:	30046073          	csrsi	mstatus,8

        /* Update the timeout state to see if it has expired yet. */
        if( xTaskCheckForTimeOut( &xTimeOut, &xTicksToWait ) == pdFALSE )
    65f8:	fc440713          	addi	a4,s0,-60
    65fc:	fd840793          	addi	a5,s0,-40
    6600:	85ba                	mv	a1,a4
    6602:	853e                	mv	a0,a5
    6604:	f23fb0ef          	jal	2526 <xTaskCheckForTimeOut>
    6608:	87aa                	mv	a5,a0
    660a:	e3a9                	bnez	a5,664c <xQueuePeek+0x1c6>
        {
            /* Timeout has not expired yet, check to see if there is data in the
            * queue now, and if not enter the Blocked state to wait for data. */
            if( prvIsQueueEmpty( pxQueue ) != pdFALSE )
    660c:	fe842503          	lw	a0,-24(s0)
    6610:	2d29                	jal	6c2a <prvIsQueueEmpty>
    6612:	87aa                	mv	a5,a0
    6614:	c795                	beqz	a5,6640 <xQueuePeek+0x1ba>
            {
                traceBLOCKING_ON_QUEUE_PEEK( pxQueue );
                vTaskPlaceOnEventList( &( pxQueue->xTasksWaitingToReceive ), xTicksToWait );
    6616:	fe842783          	lw	a5,-24(s0)
    661a:	02478793          	addi	a5,a5,36
    661e:	fc442703          	lw	a4,-60(s0)
    6622:	85ba                	mv	a1,a4
    6624:	853e                	mv	a0,a5
    6626:	9a1fb0ef          	jal	1fc6 <vTaskPlaceOnEventList>
                prvUnlockQueue( pxQueue );
    662a:	fe842503          	lw	a0,-24(s0)
    662e:	29f5                	jal	6b2a <prvUnlockQueue>

                if( xTaskResumeAll() == pdFALSE )
    6630:	848fb0ef          	jal	1678 <xTaskResumeAll>
    6634:	87aa                	mv	a5,a0
    6636:	e8079fe3          	bnez	a5,64d4 <xQueuePeek+0x4e>
                {
                    taskYIELD_WITHIN_API();
    663a:	00000073          	ecall
    663e:	bd59                	j	64d4 <xQueuePeek+0x4e>
            }
            else
            {
                /* There is data in the queue now, so don't enter the blocked
                 * state, instead return to try and obtain the data. */
                prvUnlockQueue( pxQueue );
    6640:	fe842503          	lw	a0,-24(s0)
    6644:	21dd                	jal	6b2a <prvUnlockQueue>
                ( void ) xTaskResumeAll();
    6646:	832fb0ef          	jal	1678 <xTaskResumeAll>
    664a:	b569                	j	64d4 <xQueuePeek+0x4e>
        }
        else
        {
            /* The timeout has expired.  If there is still no data in the queue
             * exit, otherwise go back and try to read the data again. */
            prvUnlockQueue( pxQueue );
    664c:	fe842503          	lw	a0,-24(s0)
    6650:	29e9                	jal	6b2a <prvUnlockQueue>
            ( void ) xTaskResumeAll();
    6652:	826fb0ef          	jal	1678 <xTaskResumeAll>

            if( prvIsQueueEmpty( pxQueue ) != pdFALSE )
    6656:	fe842503          	lw	a0,-24(s0)
    665a:	2bc1                	jal	6c2a <prvIsQueueEmpty>
    665c:	87aa                	mv	a5,a0
    665e:	e6078be3          	beqz	a5,64d4 <xQueuePeek+0x4e>
            {
                traceQUEUE_PEEK_FAILED( pxQueue );
                traceRETURN_xQueuePeek( errQUEUE_EMPTY );

                return errQUEUE_EMPTY;
    6662:	4781                	li	a5,0
            {
                mtCOVERAGE_TEST_MARKER();
            }
        }
    }
}
    6664:	853e                	mv	a0,a5
    6666:	50f2                	lw	ra,60(sp)
    6668:	5462                	lw	s0,56(sp)
    666a:	6121                	addi	sp,sp,64
    666c:	8082                	ret

0000666e <xQueueReceiveFromISR>:
/*-----------------------------------------------------------*/

BaseType_t xQueueReceiveFromISR( QueueHandle_t xQueue,
                                 void * const pvBuffer,
                                 BaseType_t * const pxHigherPriorityTaskWoken )
{
    666e:	7139                	addi	sp,sp,-64
    6670:	de06                	sw	ra,60(sp)
    6672:	dc22                	sw	s0,56(sp)
    6674:	0080                	addi	s0,sp,64
    6676:	fca42623          	sw	a0,-52(s0)
    667a:	fcb42423          	sw	a1,-56(s0)
    667e:	fcc42223          	sw	a2,-60(s0)
    BaseType_t xReturn;
    UBaseType_t uxSavedInterruptStatus;
    Queue_t * const pxQueue = xQueue;
    6682:	fcc42783          	lw	a5,-52(s0)
    6686:	fef42423          	sw	a5,-24(s0)

    traceENTER_xQueueReceiveFromISR( xQueue, pvBuffer, pxHigherPriorityTaskWoken );

    configASSERT( pxQueue );
    668a:	fe842783          	lw	a5,-24(s0)
    668e:	e781                	bnez	a5,6696 <xQueueReceiveFromISR+0x28>
    6690:	30047073          	csrci	mstatus,8
    6694:	a001                	j	6694 <xQueueReceiveFromISR+0x26>
    configASSERT( !( ( pvBuffer == NULL ) && ( pxQueue->uxItemSize != ( UBaseType_t ) 0U ) ) );
    6696:	fc842783          	lw	a5,-56(s0)
    669a:	eb81                	bnez	a5,66aa <xQueueReceiveFromISR+0x3c>
    669c:	fe842783          	lw	a5,-24(s0)
    66a0:	43bc                	lw	a5,64(a5)
    66a2:	c781                	beqz	a5,66aa <xQueueReceiveFromISR+0x3c>
    66a4:	30047073          	csrci	mstatus,8
    66a8:	a001                	j	66a8 <xQueueReceiveFromISR+0x3a>
    portASSERT_IF_INTERRUPT_PRIORITY_INVALID();

    /* MISRA Ref 4.7.1 [Return value shall be checked] */
    /* More details at: https://github.com/FreeRTOS/FreeRTOS-Kernel/blob/main/MISRA.md#dir-47 */
    /* coverity[misra_c_2012_directive_4_7_violation] */
    uxSavedInterruptStatus = ( UBaseType_t ) taskENTER_CRITICAL_FROM_ISR();
    66aa:	fe042223          	sw	zero,-28(s0)
    {
        const UBaseType_t uxMessagesWaiting = pxQueue->uxMessagesWaiting;
    66ae:	fe842783          	lw	a5,-24(s0)
    66b2:	5f9c                	lw	a5,56(a5)
    66b4:	fef42023          	sw	a5,-32(s0)

        /* Cannot block in an ISR, so check there is data available. */
        if( uxMessagesWaiting > ( UBaseType_t ) 0 )
    66b8:	fe042783          	lw	a5,-32(s0)
    66bc:	cfd9                	beqz	a5,675a <xQueueReceiveFromISR+0xec>
        {
            const int8_t cRxLock = pxQueue->cRxLock;
    66be:	fe842783          	lw	a5,-24(s0)
    66c2:	0447c783          	lbu	a5,68(a5)
    66c6:	fcf40fa3          	sb	a5,-33(s0)

            traceQUEUE_RECEIVE_FROM_ISR( pxQueue );

            prvCopyDataFromQueue( pxQueue, pvBuffer );
    66ca:	fc842583          	lw	a1,-56(s0)
    66ce:	fe842503          	lw	a0,-24(s0)
    66d2:	2ec5                	jal	6ac2 <prvCopyDataFromQueue>
            pxQueue->uxMessagesWaiting = ( UBaseType_t ) ( uxMessagesWaiting - ( UBaseType_t ) 1 );
    66d4:	fe042783          	lw	a5,-32(s0)
    66d8:	fff78713          	addi	a4,a5,-1
    66dc:	fe842783          	lw	a5,-24(s0)
    66e0:	df98                	sw	a4,56(a5)

            /* If the queue is locked the event list will not be modified.
             * Instead update the lock count so the task that unlocks the queue
             * will know that an ISR has removed data while the queue was
             * locked. */
            if( cRxLock == queueUNLOCKED )
    66e2:	fdf40703          	lb	a4,-33(s0)
    66e6:	57fd                	li	a5,-1
    66e8:	02f71663          	bne	a4,a5,6714 <xQueueReceiveFromISR+0xa6>
            {
                if( listLIST_IS_EMPTY( &( pxQueue->xTasksWaitingToSend ) ) == pdFALSE )
    66ec:	fe842783          	lw	a5,-24(s0)
    66f0:	4b9c                	lw	a5,16(a5)
    66f2:	c3a5                	beqz	a5,6752 <xQueueReceiveFromISR+0xe4>
                {
                    if( xTaskRemoveFromEventList( &( pxQueue->xTasksWaitingToSend ) ) != pdFALSE )
    66f4:	fe842783          	lw	a5,-24(s0)
    66f8:	07c1                	addi	a5,a5,16
    66fa:	853e                	mv	a0,a5
    66fc:	9b1fb0ef          	jal	20ac <xTaskRemoveFromEventList>
    6700:	87aa                	mv	a5,a0
    6702:	cba1                	beqz	a5,6752 <xQueueReceiveFromISR+0xe4>
                    {
                        /* The task waiting has a higher priority than us so
                         * force a context switch. */
                        if( pxHigherPriorityTaskWoken != NULL )
    6704:	fc442783          	lw	a5,-60(s0)
    6708:	c7a9                	beqz	a5,6752 <xQueueReceiveFromISR+0xe4>
                        {
                            *pxHigherPriorityTaskWoken = pdTRUE;
    670a:	fc442783          	lw	a5,-60(s0)
    670e:	4705                	li	a4,1
    6710:	c398                	sw	a4,0(a5)
    6712:	a081                	j	6752 <xQueueReceiveFromISR+0xe4>
            }
            else
            {
                /* Increment the lock count so the task that unlocks the queue
                 * knows that data was removed while it was locked. */
                prvIncrementQueueRxLock( pxQueue, cRxLock );
    6714:	a1cfb0ef          	jal	1930 <uxTaskGetNumberOfTasks>
    6718:	fca42c23          	sw	a0,-40(s0)
    671c:	fdf40783          	lb	a5,-33(s0)
    6720:	fd842703          	lw	a4,-40(s0)
    6724:	02e7f763          	bgeu	a5,a4,6752 <xQueueReceiveFromISR+0xe4>
    6728:	fdf40703          	lb	a4,-33(s0)
    672c:	07f00793          	li	a5,127
    6730:	00f71563          	bne	a4,a5,673a <xQueueReceiveFromISR+0xcc>
    6734:	30047073          	csrci	mstatus,8
    6738:	a001                	j	6738 <xQueueReceiveFromISR+0xca>
    673a:	fdf44783          	lbu	a5,-33(s0)
    673e:	0785                	addi	a5,a5,1
    6740:	0ff7f793          	zext.b	a5,a5
    6744:	01879713          	slli	a4,a5,0x18
    6748:	8761                	srai	a4,a4,0x18
    674a:	fe842783          	lw	a5,-24(s0)
    674e:	04e78223          	sb	a4,68(a5)
            }

            xReturn = pdPASS;
    6752:	4785                	li	a5,1
    6754:	fef42623          	sw	a5,-20(s0)
    6758:	a019                	j	675e <xQueueReceiveFromISR+0xf0>
        }
        else
        {
            xReturn = pdFAIL;
    675a:	fe042623          	sw	zero,-20(s0)
    }
    taskEXIT_CRITICAL_FROM_ISR( uxSavedInterruptStatus );

    traceRETURN_xQueueReceiveFromISR( xReturn );

    return xReturn;
    675e:	fec42783          	lw	a5,-20(s0)
}
    6762:	853e                	mv	a0,a5
    6764:	50f2                	lw	ra,60(sp)
    6766:	5462                	lw	s0,56(sp)
    6768:	6121                	addi	sp,sp,64
    676a:	8082                	ret

0000676c <xQueuePeekFromISR>:
/*-----------------------------------------------------------*/

BaseType_t xQueuePeekFromISR( QueueHandle_t xQueue,
                              void * const pvBuffer )
{
    676c:	7179                	addi	sp,sp,-48
    676e:	d606                	sw	ra,44(sp)
    6770:	d422                	sw	s0,40(sp)
    6772:	1800                	addi	s0,sp,48
    6774:	fca42e23          	sw	a0,-36(s0)
    6778:	fcb42c23          	sw	a1,-40(s0)
    BaseType_t xReturn;
    UBaseType_t uxSavedInterruptStatus;
    int8_t * pcOriginalReadPosition;
    Queue_t * const pxQueue = xQueue;
    677c:	fdc42783          	lw	a5,-36(s0)
    6780:	fef42423          	sw	a5,-24(s0)

    traceENTER_xQueuePeekFromISR( xQueue, pvBuffer );

    configASSERT( ( pxQueue != NULL ) && !( ( pvBuffer == NULL ) && ( pxQueue->uxItemSize != ( UBaseType_t ) 0U ) ) );
    6784:	fe842783          	lw	a5,-24(s0)
    6788:	cb81                	beqz	a5,6798 <xQueuePeekFromISR+0x2c>
    678a:	fd842783          	lw	a5,-40(s0)
    678e:	eb81                	bnez	a5,679e <xQueuePeekFromISR+0x32>
    6790:	fe842783          	lw	a5,-24(s0)
    6794:	43bc                	lw	a5,64(a5)
    6796:	c781                	beqz	a5,679e <xQueuePeekFromISR+0x32>
    6798:	30047073          	csrci	mstatus,8
    679c:	a001                	j	679c <xQueuePeekFromISR+0x30>
    configASSERT( ( pxQueue != NULL ) && ( pxQueue->uxItemSize != 0 ) ); /* Can't peek a semaphore. */
    679e:	fe842783          	lw	a5,-24(s0)
    67a2:	c789                	beqz	a5,67ac <xQueuePeekFromISR+0x40>
    67a4:	fe842783          	lw	a5,-24(s0)
    67a8:	43bc                	lw	a5,64(a5)
    67aa:	e781                	bnez	a5,67b2 <xQueuePeekFromISR+0x46>
    67ac:	30047073          	csrci	mstatus,8
    67b0:	a001                	j	67b0 <xQueuePeekFromISR+0x44>
    portASSERT_IF_INTERRUPT_PRIORITY_INVALID();

    /* MISRA Ref 4.7.1 [Return value shall be checked] */
    /* More details at: https://github.com/FreeRTOS/FreeRTOS-Kernel/blob/main/MISRA.md#dir-47 */
    /* coverity[misra_c_2012_directive_4_7_violation] */
    uxSavedInterruptStatus = ( UBaseType_t ) taskENTER_CRITICAL_FROM_ISR();
    67b2:	fe042223          	sw	zero,-28(s0)
    {
        /* Cannot block in an ISR, so check there is data available. */
        if( pxQueue->uxMessagesWaiting > ( UBaseType_t ) 0 )
    67b6:	fe842783          	lw	a5,-24(s0)
    67ba:	5f9c                	lw	a5,56(a5)
    67bc:	c785                	beqz	a5,67e4 <xQueuePeekFromISR+0x78>
        {
            traceQUEUE_PEEK_FROM_ISR( pxQueue );

            /* Remember the read position so it can be reset as nothing is
             * actually being removed from the queue. */
            pcOriginalReadPosition = pxQueue->u.xQueue.pcReadFrom;
    67be:	fe842783          	lw	a5,-24(s0)
    67c2:	47dc                	lw	a5,12(a5)
    67c4:	fef42023          	sw	a5,-32(s0)
            prvCopyDataFromQueue( pxQueue, pvBuffer );
    67c8:	fd842583          	lw	a1,-40(s0)
    67cc:	fe842503          	lw	a0,-24(s0)
    67d0:	2ccd                	jal	6ac2 <prvCopyDataFromQueue>
            pxQueue->u.xQueue.pcReadFrom = pcOriginalReadPosition;
    67d2:	fe842783          	lw	a5,-24(s0)
    67d6:	fe042703          	lw	a4,-32(s0)
    67da:	c7d8                	sw	a4,12(a5)

            xReturn = pdPASS;
    67dc:	4785                	li	a5,1
    67de:	fef42623          	sw	a5,-20(s0)
    67e2:	a019                	j	67e8 <xQueuePeekFromISR+0x7c>
        }
        else
        {
            xReturn = pdFAIL;
    67e4:	fe042623          	sw	zero,-20(s0)
    }
    taskEXIT_CRITICAL_FROM_ISR( uxSavedInterruptStatus );

    traceRETURN_xQueuePeekFromISR( xReturn );

    return xReturn;
    67e8:	fec42783          	lw	a5,-20(s0)
}
    67ec:	853e                	mv	a0,a5
    67ee:	50b2                	lw	ra,44(sp)
    67f0:	5422                	lw	s0,40(sp)
    67f2:	6145                	addi	sp,sp,48
    67f4:	8082                	ret

000067f6 <uxQueueMessagesWaiting>:
/*-----------------------------------------------------------*/

UBaseType_t uxQueueMessagesWaiting( const QueueHandle_t xQueue )
{
    67f6:	7179                	addi	sp,sp,-48
    67f8:	d606                	sw	ra,44(sp)
    67fa:	d422                	sw	s0,40(sp)
    67fc:	1800                	addi	s0,sp,48
    67fe:	fca42e23          	sw	a0,-36(s0)
    UBaseType_t uxReturn;

    traceENTER_uxQueueMessagesWaiting( xQueue );

    configASSERT( xQueue );
    6802:	fdc42783          	lw	a5,-36(s0)
    6806:	e781                	bnez	a5,680e <uxQueueMessagesWaiting+0x18>
    6808:	30047073          	csrci	mstatus,8
    680c:	a001                	j	680c <uxQueueMessagesWaiting+0x16>

    portBASE_TYPE_ENTER_CRITICAL();
    680e:	30047073          	csrci	mstatus,8
    6812:	8081a783          	lw	a5,-2040(gp) # 20000060 <xCriticalNesting>
    6816:	00178713          	addi	a4,a5,1
    681a:	80e1a423          	sw	a4,-2040(gp) # 20000060 <xCriticalNesting>
    {
        uxReturn = ( ( Queue_t * ) xQueue )->uxMessagesWaiting;
    681e:	fdc42783          	lw	a5,-36(s0)
    6822:	5f9c                	lw	a5,56(a5)
    6824:	fef42623          	sw	a5,-20(s0)
    }
    portBASE_TYPE_EXIT_CRITICAL();
    6828:	8081a783          	lw	a5,-2040(gp) # 20000060 <xCriticalNesting>
    682c:	fff78713          	addi	a4,a5,-1
    6830:	80e1a423          	sw	a4,-2040(gp) # 20000060 <xCriticalNesting>
    6834:	8081a783          	lw	a5,-2040(gp) # 20000060 <xCriticalNesting>
    6838:	e399                	bnez	a5,683e <uxQueueMessagesWaiting+0x48>
    683a:	30046073          	csrsi	mstatus,8

    traceRETURN_uxQueueMessagesWaiting( uxReturn );

    return uxReturn;
    683e:	fec42783          	lw	a5,-20(s0)
}
    6842:	853e                	mv	a0,a5
    6844:	50b2                	lw	ra,44(sp)
    6846:	5422                	lw	s0,40(sp)
    6848:	6145                	addi	sp,sp,48
    684a:	8082                	ret

0000684c <uxQueueSpacesAvailable>:
/*-----------------------------------------------------------*/

UBaseType_t uxQueueSpacesAvailable( const QueueHandle_t xQueue )
{
    684c:	7179                	addi	sp,sp,-48
    684e:	d606                	sw	ra,44(sp)
    6850:	d422                	sw	s0,40(sp)
    6852:	1800                	addi	s0,sp,48
    6854:	fca42e23          	sw	a0,-36(s0)
    UBaseType_t uxReturn;
    Queue_t * const pxQueue = xQueue;
    6858:	fdc42783          	lw	a5,-36(s0)
    685c:	fef42623          	sw	a5,-20(s0)

    traceENTER_uxQueueSpacesAvailable( xQueue );

    configASSERT( pxQueue );
    6860:	fec42783          	lw	a5,-20(s0)
    6864:	e781                	bnez	a5,686c <uxQueueSpacesAvailable+0x20>
    6866:	30047073          	csrci	mstatus,8
    686a:	a001                	j	686a <uxQueueSpacesAvailable+0x1e>

    portBASE_TYPE_ENTER_CRITICAL();
    686c:	30047073          	csrci	mstatus,8
    6870:	8081a783          	lw	a5,-2040(gp) # 20000060 <xCriticalNesting>
    6874:	00178713          	addi	a4,a5,1
    6878:	80e1a423          	sw	a4,-2040(gp) # 20000060 <xCriticalNesting>
    {
        uxReturn = ( UBaseType_t ) ( pxQueue->uxLength - pxQueue->uxMessagesWaiting );
    687c:	fec42783          	lw	a5,-20(s0)
    6880:	5fd8                	lw	a4,60(a5)
    6882:	fec42783          	lw	a5,-20(s0)
    6886:	5f9c                	lw	a5,56(a5)
    6888:	40f707b3          	sub	a5,a4,a5
    688c:	fef42423          	sw	a5,-24(s0)
    }
    portBASE_TYPE_EXIT_CRITICAL();
    6890:	8081a783          	lw	a5,-2040(gp) # 20000060 <xCriticalNesting>
    6894:	fff78713          	addi	a4,a5,-1
    6898:	80e1a423          	sw	a4,-2040(gp) # 20000060 <xCriticalNesting>
    689c:	8081a783          	lw	a5,-2040(gp) # 20000060 <xCriticalNesting>
    68a0:	e399                	bnez	a5,68a6 <uxQueueSpacesAvailable+0x5a>
    68a2:	30046073          	csrsi	mstatus,8

    traceRETURN_uxQueueSpacesAvailable( uxReturn );

    return uxReturn;
    68a6:	fe842783          	lw	a5,-24(s0)
}
    68aa:	853e                	mv	a0,a5
    68ac:	50b2                	lw	ra,44(sp)
    68ae:	5422                	lw	s0,40(sp)
    68b0:	6145                	addi	sp,sp,48
    68b2:	8082                	ret

000068b4 <uxQueueMessagesWaitingFromISR>:
/*-----------------------------------------------------------*/

UBaseType_t uxQueueMessagesWaitingFromISR( const QueueHandle_t xQueue )
{
    68b4:	7179                	addi	sp,sp,-48
    68b6:	d606                	sw	ra,44(sp)
    68b8:	d422                	sw	s0,40(sp)
    68ba:	1800                	addi	s0,sp,48
    68bc:	fca42e23          	sw	a0,-36(s0)
    UBaseType_t uxReturn;
    Queue_t * const pxQueue = xQueue;
    68c0:	fdc42783          	lw	a5,-36(s0)
    68c4:	fef42623          	sw	a5,-20(s0)

    traceENTER_uxQueueMessagesWaitingFromISR( xQueue );

    configASSERT( pxQueue );
    68c8:	fec42783          	lw	a5,-20(s0)
    68cc:	e781                	bnez	a5,68d4 <uxQueueMessagesWaitingFromISR+0x20>
    68ce:	30047073          	csrci	mstatus,8
    68d2:	a001                	j	68d2 <uxQueueMessagesWaitingFromISR+0x1e>
    uxReturn = pxQueue->uxMessagesWaiting;
    68d4:	fec42783          	lw	a5,-20(s0)
    68d8:	5f9c                	lw	a5,56(a5)
    68da:	fef42423          	sw	a5,-24(s0)

    traceRETURN_uxQueueMessagesWaitingFromISR( uxReturn );

    return uxReturn;
    68de:	fe842783          	lw	a5,-24(s0)
}
    68e2:	853e                	mv	a0,a5
    68e4:	50b2                	lw	ra,44(sp)
    68e6:	5422                	lw	s0,40(sp)
    68e8:	6145                	addi	sp,sp,48
    68ea:	8082                	ret

000068ec <vQueueDelete>:
/*-----------------------------------------------------------*/

void vQueueDelete( QueueHandle_t xQueue )
{
    68ec:	7179                	addi	sp,sp,-48
    68ee:	d606                	sw	ra,44(sp)
    68f0:	d422                	sw	s0,40(sp)
    68f2:	1800                	addi	s0,sp,48
    68f4:	fca42e23          	sw	a0,-36(s0)
    Queue_t * const pxQueue = xQueue;
    68f8:	fdc42783          	lw	a5,-36(s0)
    68fc:	fef42623          	sw	a5,-20(s0)

    traceENTER_vQueueDelete( xQueue );

    configASSERT( pxQueue );
    6900:	fec42783          	lw	a5,-20(s0)
    6904:	e781                	bnez	a5,690c <vQueueDelete+0x20>
    6906:	30047073          	csrci	mstatus,8
    690a:	a001                	j	690a <vQueueDelete+0x1e>
    }
    #elif ( ( configSUPPORT_DYNAMIC_ALLOCATION == 1 ) && ( configSUPPORT_STATIC_ALLOCATION == 1 ) )
    {
        /* The queue could have been allocated statically or dynamically, so
         * check before attempting to free the memory. */
        if( pxQueue->ucStaticallyAllocated == ( uint8_t ) pdFALSE )
    690c:	fec42783          	lw	a5,-20(s0)
    6910:	0467c783          	lbu	a5,70(a5)
    6914:	e789                	bnez	a5,691e <vQueueDelete+0x32>
        {
            vPortFree( pxQueue );
    6916:	fec42503          	lw	a0,-20(s0)
    691a:	fbcfd0ef          	jal	40d6 <vPortFree>
        ( void ) pxQueue;
    }
    #endif /* configSUPPORT_DYNAMIC_ALLOCATION */

    traceRETURN_vQueueDelete();
}
    691e:	0001                	nop
    6920:	50b2                	lw	ra,44(sp)
    6922:	5422                	lw	s0,40(sp)
    6924:	6145                	addi	sp,sp,48
    6926:	8082                	ret

00006928 <uxQueueGetQueueItemSize>:

#endif /* configUSE_TRACE_FACILITY */
/*-----------------------------------------------------------*/

UBaseType_t uxQueueGetQueueItemSize( QueueHandle_t xQueue ) /* PRIVILEGED_FUNCTION */
{
    6928:	1101                	addi	sp,sp,-32
    692a:	ce06                	sw	ra,28(sp)
    692c:	cc22                	sw	s0,24(sp)
    692e:	1000                	addi	s0,sp,32
    6930:	fea42623          	sw	a0,-20(s0)
    traceENTER_uxQueueGetQueueItemSize( xQueue );

    traceRETURN_uxQueueGetQueueItemSize( ( ( Queue_t * ) xQueue )->uxItemSize );

    return ( ( Queue_t * ) xQueue )->uxItemSize;
    6934:	fec42783          	lw	a5,-20(s0)
    6938:	43bc                	lw	a5,64(a5)
}
    693a:	853e                	mv	a0,a5
    693c:	40f2                	lw	ra,28(sp)
    693e:	4462                	lw	s0,24(sp)
    6940:	6105                	addi	sp,sp,32
    6942:	8082                	ret

00006944 <uxQueueGetQueueLength>:
/*-----------------------------------------------------------*/

UBaseType_t uxQueueGetQueueLength( QueueHandle_t xQueue ) /* PRIVILEGED_FUNCTION */
{
    6944:	1101                	addi	sp,sp,-32
    6946:	ce06                	sw	ra,28(sp)
    6948:	cc22                	sw	s0,24(sp)
    694a:	1000                	addi	s0,sp,32
    694c:	fea42623          	sw	a0,-20(s0)
    traceENTER_uxQueueGetQueueLength( xQueue );

    traceRETURN_uxQueueGetQueueLength( ( ( Queue_t * ) xQueue )->uxLength );

    return ( ( Queue_t * ) xQueue )->uxLength;
    6950:	fec42783          	lw	a5,-20(s0)
    6954:	5fdc                	lw	a5,60(a5)
}
    6956:	853e                	mv	a0,a5
    6958:	40f2                	lw	ra,28(sp)
    695a:	4462                	lw	s0,24(sp)
    695c:	6105                	addi	sp,sp,32
    695e:	8082                	ret

00006960 <prvGetHighestPriorityOfWaitToReceiveList>:
/*-----------------------------------------------------------*/

#if ( configUSE_MUTEXES == 1 )

    static UBaseType_t prvGetHighestPriorityOfWaitToReceiveList( const Queue_t * const pxQueue )
    {
    6960:	7179                	addi	sp,sp,-48
    6962:	d606                	sw	ra,44(sp)
    6964:	d422                	sw	s0,40(sp)
    6966:	1800                	addi	s0,sp,48
    6968:	fca42e23          	sw	a0,-36(s0)
         * priority, but the waiting task times out, then the holder should
         * disinherit the priority - but only down to the highest priority of any
         * other tasks that are waiting for the same mutex.  For this purpose,
         * return the priority of the highest priority task that is waiting for the
         * mutex. */
        if( listCURRENT_LIST_LENGTH( &( pxQueue->xTasksWaitingToReceive ) ) > 0U )
    696c:	fdc42783          	lw	a5,-36(s0)
    6970:	53dc                	lw	a5,36(a5)
    6972:	cf81                	beqz	a5,698a <prvGetHighestPriorityOfWaitToReceiveList+0x2a>
        {
            uxHighestPriorityOfWaitingTasks = ( UBaseType_t ) ( ( UBaseType_t ) configMAX_PRIORITIES - ( UBaseType_t ) listGET_ITEM_VALUE_OF_HEAD_ENTRY( &( pxQueue->xTasksWaitingToReceive ) ) );
    6974:	fdc42783          	lw	a5,-36(s0)
    6978:	5b9c                	lw	a5,48(a5)
    697a:	439c                	lw	a5,0(a5)
    697c:	02000713          	li	a4,32
    6980:	40f707b3          	sub	a5,a4,a5
    6984:	fef42623          	sw	a5,-20(s0)
    6988:	a019                	j	698e <prvGetHighestPriorityOfWaitToReceiveList+0x2e>
        }
        else
        {
            uxHighestPriorityOfWaitingTasks = tskIDLE_PRIORITY;
    698a:	fe042623          	sw	zero,-20(s0)
        }

        return uxHighestPriorityOfWaitingTasks;
    698e:	fec42783          	lw	a5,-20(s0)
    }
    6992:	853e                	mv	a0,a5
    6994:	50b2                	lw	ra,44(sp)
    6996:	5422                	lw	s0,40(sp)
    6998:	6145                	addi	sp,sp,48
    699a:	8082                	ret

0000699c <prvCopyDataToQueue>:
/*-----------------------------------------------------------*/

static BaseType_t prvCopyDataToQueue( Queue_t * const pxQueue,
                                      const void * pvItemToQueue,
                                      const BaseType_t xPosition )
{
    699c:	7179                	addi	sp,sp,-48
    699e:	d606                	sw	ra,44(sp)
    69a0:	d422                	sw	s0,40(sp)
    69a2:	1800                	addi	s0,sp,48
    69a4:	fca42e23          	sw	a0,-36(s0)
    69a8:	fcb42c23          	sw	a1,-40(s0)
    69ac:	fcc42a23          	sw	a2,-44(s0)
    BaseType_t xReturn = pdFALSE;
    69b0:	fe042623          	sw	zero,-20(s0)
    UBaseType_t uxMessagesWaiting;

    /* This function is called from a critical section. */

    uxMessagesWaiting = pxQueue->uxMessagesWaiting;
    69b4:	fdc42783          	lw	a5,-36(s0)
    69b8:	5f9c                	lw	a5,56(a5)
    69ba:	fef42423          	sw	a5,-24(s0)

    if( pxQueue->uxItemSize == ( UBaseType_t ) 0 )
    69be:	fdc42783          	lw	a5,-36(s0)
    69c2:	43bc                	lw	a5,64(a5)
    69c4:	e395                	bnez	a5,69e8 <prvCopyDataToQueue+0x4c>
    {
        #if ( configUSE_MUTEXES == 1 )
        {
            if( pxQueue->uxQueueType == queueQUEUE_IS_MUTEX )
    69c6:	fdc42783          	lw	a5,-36(s0)
    69ca:	439c                	lw	a5,0(a5)
    69cc:	efe9                	bnez	a5,6aa6 <prvCopyDataToQueue+0x10a>
            {
                /* The mutex is no longer being held. */
                xReturn = xTaskPriorityDisinherit( pxQueue->u.xSemaphore.xMutexHolder );
    69ce:	fdc42783          	lw	a5,-36(s0)
    69d2:	479c                	lw	a5,8(a5)
    69d4:	853e                	mv	a0,a5
    69d6:	8c6fc0ef          	jal	2a9c <xTaskPriorityDisinherit>
    69da:	fea42623          	sw	a0,-20(s0)
                pxQueue->u.xSemaphore.xMutexHolder = NULL;
    69de:	fdc42783          	lw	a5,-36(s0)
    69e2:	0007a423          	sw	zero,8(a5)
    69e6:	a0c1                	j	6aa6 <prvCopyDataToQueue+0x10a>
                mtCOVERAGE_TEST_MARKER();
            }
        }
        #endif /* configUSE_MUTEXES */
    }
    else if( xPosition == queueSEND_TO_BACK )
    69e8:	fd442783          	lw	a5,-44(s0)
    69ec:	e7a9                	bnez	a5,6a36 <prvCopyDataToQueue+0x9a>
    {
        ( void ) memcpy( ( void * ) pxQueue->pcWriteTo, pvItemToQueue, ( size_t ) pxQueue->uxItemSize );
    69ee:	fdc42783          	lw	a5,-36(s0)
    69f2:	43d8                	lw	a4,4(a5)
    69f4:	fdc42783          	lw	a5,-36(s0)
    69f8:	43bc                	lw	a5,64(a5)
    69fa:	863e                	mv	a2,a5
    69fc:	fd842583          	lw	a1,-40(s0)
    6a00:	853a                	mv	a0,a4
    6a02:	2d8d                	jal	7074 <memcpy>
        pxQueue->pcWriteTo += pxQueue->uxItemSize;
    6a04:	fdc42783          	lw	a5,-36(s0)
    6a08:	43d8                	lw	a4,4(a5)
    6a0a:	fdc42783          	lw	a5,-36(s0)
    6a0e:	43bc                	lw	a5,64(a5)
    6a10:	973e                	add	a4,a4,a5
    6a12:	fdc42783          	lw	a5,-36(s0)
    6a16:	c3d8                	sw	a4,4(a5)

        if( pxQueue->pcWriteTo >= pxQueue->u.xQueue.pcTail )
    6a18:	fdc42783          	lw	a5,-36(s0)
    6a1c:	43d8                	lw	a4,4(a5)
    6a1e:	fdc42783          	lw	a5,-36(s0)
    6a22:	479c                	lw	a5,8(a5)
    6a24:	08f76163          	bltu	a4,a5,6aa6 <prvCopyDataToQueue+0x10a>
        {
            pxQueue->pcWriteTo = pxQueue->pcHead;
    6a28:	fdc42783          	lw	a5,-36(s0)
    6a2c:	4398                	lw	a4,0(a5)
    6a2e:	fdc42783          	lw	a5,-36(s0)
    6a32:	c3d8                	sw	a4,4(a5)
    6a34:	a88d                	j	6aa6 <prvCopyDataToQueue+0x10a>
            mtCOVERAGE_TEST_MARKER();
        }
    }
    else
    {
        ( void ) memcpy( ( void * ) pxQueue->u.xQueue.pcReadFrom, pvItemToQueue, ( size_t ) pxQueue->uxItemSize );
    6a36:	fdc42783          	lw	a5,-36(s0)
    6a3a:	47d8                	lw	a4,12(a5)
    6a3c:	fdc42783          	lw	a5,-36(s0)
    6a40:	43bc                	lw	a5,64(a5)
    6a42:	863e                	mv	a2,a5
    6a44:	fd842583          	lw	a1,-40(s0)
    6a48:	853a                	mv	a0,a4
    6a4a:	252d                	jal	7074 <memcpy>
        pxQueue->u.xQueue.pcReadFrom -= pxQueue->uxItemSize;
    6a4c:	fdc42783          	lw	a5,-36(s0)
    6a50:	47d8                	lw	a4,12(a5)
    6a52:	fdc42783          	lw	a5,-36(s0)
    6a56:	43bc                	lw	a5,64(a5)
    6a58:	40f007b3          	neg	a5,a5
    6a5c:	973e                	add	a4,a4,a5
    6a5e:	fdc42783          	lw	a5,-36(s0)
    6a62:	c7d8                	sw	a4,12(a5)

        if( pxQueue->u.xQueue.pcReadFrom < pxQueue->pcHead )
    6a64:	fdc42783          	lw	a5,-36(s0)
    6a68:	47d8                	lw	a4,12(a5)
    6a6a:	fdc42783          	lw	a5,-36(s0)
    6a6e:	439c                	lw	a5,0(a5)
    6a70:	00f77e63          	bgeu	a4,a5,6a8c <prvCopyDataToQueue+0xf0>
        {
            pxQueue->u.xQueue.pcReadFrom = ( pxQueue->u.xQueue.pcTail - pxQueue->uxItemSize );
    6a74:	fdc42783          	lw	a5,-36(s0)
    6a78:	4798                	lw	a4,8(a5)
    6a7a:	fdc42783          	lw	a5,-36(s0)
    6a7e:	43bc                	lw	a5,64(a5)
    6a80:	40f007b3          	neg	a5,a5
    6a84:	973e                	add	a4,a4,a5
    6a86:	fdc42783          	lw	a5,-36(s0)
    6a8a:	c7d8                	sw	a4,12(a5)
        else
        {
            mtCOVERAGE_TEST_MARKER();
        }

        if( xPosition == queueOVERWRITE )
    6a8c:	fd442703          	lw	a4,-44(s0)
    6a90:	4789                	li	a5,2
    6a92:	00f71a63          	bne	a4,a5,6aa6 <prvCopyDataToQueue+0x10a>
        {
            if( uxMessagesWaiting > ( UBaseType_t ) 0 )
    6a96:	fe842783          	lw	a5,-24(s0)
    6a9a:	c791                	beqz	a5,6aa6 <prvCopyDataToQueue+0x10a>
            {
                /* An item is not being added but overwritten, so subtract
                 * one from the recorded number of items in the queue so when
                 * one is added again below the number of recorded items remains
                 * correct. */
                --uxMessagesWaiting;
    6a9c:	fe842783          	lw	a5,-24(s0)
    6aa0:	17fd                	addi	a5,a5,-1
    6aa2:	fef42423          	sw	a5,-24(s0)
        {
            mtCOVERAGE_TEST_MARKER();
        }
    }

    pxQueue->uxMessagesWaiting = ( UBaseType_t ) ( uxMessagesWaiting + ( UBaseType_t ) 1 );
    6aa6:	fe842783          	lw	a5,-24(s0)
    6aaa:	00178713          	addi	a4,a5,1
    6aae:	fdc42783          	lw	a5,-36(s0)
    6ab2:	df98                	sw	a4,56(a5)

    return xReturn;
    6ab4:	fec42783          	lw	a5,-20(s0)
}
    6ab8:	853e                	mv	a0,a5
    6aba:	50b2                	lw	ra,44(sp)
    6abc:	5422                	lw	s0,40(sp)
    6abe:	6145                	addi	sp,sp,48
    6ac0:	8082                	ret

00006ac2 <prvCopyDataFromQueue>:
/*-----------------------------------------------------------*/

static void prvCopyDataFromQueue( Queue_t * const pxQueue,
                                  void * const pvBuffer )
{
    6ac2:	1101                	addi	sp,sp,-32
    6ac4:	ce06                	sw	ra,28(sp)
    6ac6:	cc22                	sw	s0,24(sp)
    6ac8:	1000                	addi	s0,sp,32
    6aca:	fea42623          	sw	a0,-20(s0)
    6ace:	feb42423          	sw	a1,-24(s0)
    if( pxQueue->uxItemSize != ( UBaseType_t ) 0 )
    6ad2:	fec42783          	lw	a5,-20(s0)
    6ad6:	43bc                	lw	a5,64(a5)
    6ad8:	c7a1                	beqz	a5,6b20 <prvCopyDataFromQueue+0x5e>
    {
        pxQueue->u.xQueue.pcReadFrom += pxQueue->uxItemSize;
    6ada:	fec42783          	lw	a5,-20(s0)
    6ade:	47d8                	lw	a4,12(a5)
    6ae0:	fec42783          	lw	a5,-20(s0)
    6ae4:	43bc                	lw	a5,64(a5)
    6ae6:	973e                	add	a4,a4,a5
    6ae8:	fec42783          	lw	a5,-20(s0)
    6aec:	c7d8                	sw	a4,12(a5)

        if( pxQueue->u.xQueue.pcReadFrom >= pxQueue->u.xQueue.pcTail )
    6aee:	fec42783          	lw	a5,-20(s0)
    6af2:	47d8                	lw	a4,12(a5)
    6af4:	fec42783          	lw	a5,-20(s0)
    6af8:	479c                	lw	a5,8(a5)
    6afa:	00f76863          	bltu	a4,a5,6b0a <prvCopyDataFromQueue+0x48>
        {
            pxQueue->u.xQueue.pcReadFrom = pxQueue->pcHead;
    6afe:	fec42783          	lw	a5,-20(s0)
    6b02:	4398                	lw	a4,0(a5)
    6b04:	fec42783          	lw	a5,-20(s0)
    6b08:	c7d8                	sw	a4,12(a5)
        else
        {
            mtCOVERAGE_TEST_MARKER();
        }

        ( void ) memcpy( ( void * ) pvBuffer, ( void * ) pxQueue->u.xQueue.pcReadFrom, ( size_t ) pxQueue->uxItemSize );
    6b0a:	fec42783          	lw	a5,-20(s0)
    6b0e:	47d8                	lw	a4,12(a5)
    6b10:	fec42783          	lw	a5,-20(s0)
    6b14:	43bc                	lw	a5,64(a5)
    6b16:	863e                	mv	a2,a5
    6b18:	85ba                	mv	a1,a4
    6b1a:	fe842503          	lw	a0,-24(s0)
    6b1e:	2b99                	jal	7074 <memcpy>
    }
}
    6b20:	0001                	nop
    6b22:	40f2                	lw	ra,28(sp)
    6b24:	4462                	lw	s0,24(sp)
    6b26:	6105                	addi	sp,sp,32
    6b28:	8082                	ret

00006b2a <prvUnlockQueue>:
/*-----------------------------------------------------------*/

static void prvUnlockQueue( Queue_t * const pxQueue )
{
    6b2a:	7179                	addi	sp,sp,-48
    6b2c:	d606                	sw	ra,44(sp)
    6b2e:	d422                	sw	s0,40(sp)
    6b30:	1800                	addi	s0,sp,48
    6b32:	fca42e23          	sw	a0,-36(s0)

    /* The lock counts contains the number of extra data items placed or
     * removed from the queue while the queue was locked.  When a queue is
     * locked items can be added or removed, but the event lists cannot be
     * updated. */
    taskENTER_CRITICAL();
    6b36:	30047073          	csrci	mstatus,8
    6b3a:	8081a783          	lw	a5,-2040(gp) # 20000060 <xCriticalNesting>
    6b3e:	00178713          	addi	a4,a5,1
    6b42:	80e1a423          	sw	a4,-2040(gp) # 20000060 <xCriticalNesting>
    {
        int8_t cTxLock = pxQueue->cTxLock;
    6b46:	fdc42783          	lw	a5,-36(s0)
    6b4a:	0457c783          	lbu	a5,69(a5)
    6b4e:	fef407a3          	sb	a5,-17(s0)

        /* See if data was added to the queue while it was locked. */
        while( cTxLock > queueLOCKED_UNMODIFIED )
    6b52:	a03d                	j	6b80 <prvUnlockQueue+0x56>
            }
            #else /* configUSE_QUEUE_SETS */
            {
                /* Tasks that are removed from the event list will get added to
                 * the pending ready list as the scheduler is still suspended. */
                if( listLIST_IS_EMPTY( &( pxQueue->xTasksWaitingToReceive ) ) == pdFALSE )
    6b54:	fdc42783          	lw	a5,-36(s0)
    6b58:	53dc                	lw	a5,36(a5)
    6b5a:	cb85                	beqz	a5,6b8a <prvUnlockQueue+0x60>
                {
                    if( xTaskRemoveFromEventList( &( pxQueue->xTasksWaitingToReceive ) ) != pdFALSE )
    6b5c:	fdc42783          	lw	a5,-36(s0)
    6b60:	02478793          	addi	a5,a5,36
    6b64:	853e                	mv	a0,a5
    6b66:	d46fb0ef          	jal	20ac <xTaskRemoveFromEventList>
    6b6a:	87aa                	mv	a5,a0
    6b6c:	c399                	beqz	a5,6b72 <prvUnlockQueue+0x48>
                    {
                        /* The task waiting has a higher priority so record that
                         * a context switch is required. */
                        vTaskMissedYield();
    6b6e:	aa7fb0ef          	jal	2614 <vTaskMissedYield>
                    break;
                }
            }
            #endif /* configUSE_QUEUE_SETS */

            --cTxLock;
    6b72:	fef44783          	lbu	a5,-17(s0)
    6b76:	17fd                	addi	a5,a5,-1
    6b78:	0ff7f793          	zext.b	a5,a5
    6b7c:	fef407a3          	sb	a5,-17(s0)
        while( cTxLock > queueLOCKED_UNMODIFIED )
    6b80:	fef40783          	lb	a5,-17(s0)
    6b84:	fcf048e3          	bgtz	a5,6b54 <prvUnlockQueue+0x2a>
    6b88:	a011                	j	6b8c <prvUnlockQueue+0x62>
                    break;
    6b8a:	0001                	nop
        }

        pxQueue->cTxLock = queueUNLOCKED;
    6b8c:	fdc42783          	lw	a5,-36(s0)
    6b90:	577d                	li	a4,-1
    6b92:	04e782a3          	sb	a4,69(a5)
    }
    taskEXIT_CRITICAL();
    6b96:	8081a783          	lw	a5,-2040(gp) # 20000060 <xCriticalNesting>
    6b9a:	fff78713          	addi	a4,a5,-1
    6b9e:	80e1a423          	sw	a4,-2040(gp) # 20000060 <xCriticalNesting>
    6ba2:	8081a783          	lw	a5,-2040(gp) # 20000060 <xCriticalNesting>
    6ba6:	e399                	bnez	a5,6bac <prvUnlockQueue+0x82>
    6ba8:	30046073          	csrsi	mstatus,8

    /* Do the same for the Rx lock. */
    taskENTER_CRITICAL();
    6bac:	30047073          	csrci	mstatus,8
    6bb0:	8081a783          	lw	a5,-2040(gp) # 20000060 <xCriticalNesting>
    6bb4:	00178713          	addi	a4,a5,1
    6bb8:	80e1a423          	sw	a4,-2040(gp) # 20000060 <xCriticalNesting>
    {
        int8_t cRxLock = pxQueue->cRxLock;
    6bbc:	fdc42783          	lw	a5,-36(s0)
    6bc0:	0447c783          	lbu	a5,68(a5)
    6bc4:	fef40723          	sb	a5,-18(s0)

        while( cRxLock > queueLOCKED_UNMODIFIED )
    6bc8:	a035                	j	6bf4 <prvUnlockQueue+0xca>
        {
            if( listLIST_IS_EMPTY( &( pxQueue->xTasksWaitingToSend ) ) == pdFALSE )
    6bca:	fdc42783          	lw	a5,-36(s0)
    6bce:	4b9c                	lw	a5,16(a5)
    6bd0:	c79d                	beqz	a5,6bfe <prvUnlockQueue+0xd4>
            {
                if( xTaskRemoveFromEventList( &( pxQueue->xTasksWaitingToSend ) ) != pdFALSE )
    6bd2:	fdc42783          	lw	a5,-36(s0)
    6bd6:	07c1                	addi	a5,a5,16
    6bd8:	853e                	mv	a0,a5
    6bda:	cd2fb0ef          	jal	20ac <xTaskRemoveFromEventList>
    6bde:	87aa                	mv	a5,a0
    6be0:	c399                	beqz	a5,6be6 <prvUnlockQueue+0xbc>
                {
                    vTaskMissedYield();
    6be2:	a33fb0ef          	jal	2614 <vTaskMissedYield>
                else
                {
                    mtCOVERAGE_TEST_MARKER();
                }

                --cRxLock;
    6be6:	fee44783          	lbu	a5,-18(s0)
    6bea:	17fd                	addi	a5,a5,-1
    6bec:	0ff7f793          	zext.b	a5,a5
    6bf0:	fef40723          	sb	a5,-18(s0)
        while( cRxLock > queueLOCKED_UNMODIFIED )
    6bf4:	fee40783          	lb	a5,-18(s0)
    6bf8:	fcf049e3          	bgtz	a5,6bca <prvUnlockQueue+0xa0>
    6bfc:	a011                	j	6c00 <prvUnlockQueue+0xd6>
            }
            else
            {
                break;
    6bfe:	0001                	nop
            }
        }

        pxQueue->cRxLock = queueUNLOCKED;
    6c00:	fdc42783          	lw	a5,-36(s0)
    6c04:	577d                	li	a4,-1
    6c06:	04e78223          	sb	a4,68(a5)
    }
    taskEXIT_CRITICAL();
    6c0a:	8081a783          	lw	a5,-2040(gp) # 20000060 <xCriticalNesting>
    6c0e:	fff78713          	addi	a4,a5,-1
    6c12:	80e1a423          	sw	a4,-2040(gp) # 20000060 <xCriticalNesting>
    6c16:	8081a783          	lw	a5,-2040(gp) # 20000060 <xCriticalNesting>
    6c1a:	e399                	bnez	a5,6c20 <prvUnlockQueue+0xf6>
    6c1c:	30046073          	csrsi	mstatus,8
}
    6c20:	0001                	nop
    6c22:	50b2                	lw	ra,44(sp)
    6c24:	5422                	lw	s0,40(sp)
    6c26:	6145                	addi	sp,sp,48
    6c28:	8082                	ret

00006c2a <prvIsQueueEmpty>:
/*-----------------------------------------------------------*/

static BaseType_t prvIsQueueEmpty( const Queue_t * pxQueue )
{
    6c2a:	7179                	addi	sp,sp,-48
    6c2c:	d606                	sw	ra,44(sp)
    6c2e:	d422                	sw	s0,40(sp)
    6c30:	1800                	addi	s0,sp,48
    6c32:	fca42e23          	sw	a0,-36(s0)
    BaseType_t xReturn;

    taskENTER_CRITICAL();
    6c36:	30047073          	csrci	mstatus,8
    6c3a:	8081a783          	lw	a5,-2040(gp) # 20000060 <xCriticalNesting>
    6c3e:	00178713          	addi	a4,a5,1
    6c42:	80e1a423          	sw	a4,-2040(gp) # 20000060 <xCriticalNesting>
    {
        if( pxQueue->uxMessagesWaiting == ( UBaseType_t ) 0 )
    6c46:	fdc42783          	lw	a5,-36(s0)
    6c4a:	5f9c                	lw	a5,56(a5)
    6c4c:	e789                	bnez	a5,6c56 <prvIsQueueEmpty+0x2c>
        {
            xReturn = pdTRUE;
    6c4e:	4785                	li	a5,1
    6c50:	fef42623          	sw	a5,-20(s0)
    6c54:	a019                	j	6c5a <prvIsQueueEmpty+0x30>
        }
        else
        {
            xReturn = pdFALSE;
    6c56:	fe042623          	sw	zero,-20(s0)
        }
    }
    taskEXIT_CRITICAL();
    6c5a:	8081a783          	lw	a5,-2040(gp) # 20000060 <xCriticalNesting>
    6c5e:	fff78713          	addi	a4,a5,-1
    6c62:	80e1a423          	sw	a4,-2040(gp) # 20000060 <xCriticalNesting>
    6c66:	8081a783          	lw	a5,-2040(gp) # 20000060 <xCriticalNesting>
    6c6a:	e399                	bnez	a5,6c70 <prvIsQueueEmpty+0x46>
    6c6c:	30046073          	csrsi	mstatus,8

    return xReturn;
    6c70:	fec42783          	lw	a5,-20(s0)
}
    6c74:	853e                	mv	a0,a5
    6c76:	50b2                	lw	ra,44(sp)
    6c78:	5422                	lw	s0,40(sp)
    6c7a:	6145                	addi	sp,sp,48
    6c7c:	8082                	ret

00006c7e <xQueueIsQueueEmptyFromISR>:
/*-----------------------------------------------------------*/

BaseType_t xQueueIsQueueEmptyFromISR( const QueueHandle_t xQueue )
{
    6c7e:	7179                	addi	sp,sp,-48
    6c80:	d606                	sw	ra,44(sp)
    6c82:	d422                	sw	s0,40(sp)
    6c84:	1800                	addi	s0,sp,48
    6c86:	fca42e23          	sw	a0,-36(s0)
    BaseType_t xReturn;
    Queue_t * const pxQueue = xQueue;
    6c8a:	fdc42783          	lw	a5,-36(s0)
    6c8e:	fef42423          	sw	a5,-24(s0)

    traceENTER_xQueueIsQueueEmptyFromISR( xQueue );

    configASSERT( pxQueue );
    6c92:	fe842783          	lw	a5,-24(s0)
    6c96:	e781                	bnez	a5,6c9e <xQueueIsQueueEmptyFromISR+0x20>
    6c98:	30047073          	csrci	mstatus,8
    6c9c:	a001                	j	6c9c <xQueueIsQueueEmptyFromISR+0x1e>

    if( pxQueue->uxMessagesWaiting == ( UBaseType_t ) 0 )
    6c9e:	fe842783          	lw	a5,-24(s0)
    6ca2:	5f9c                	lw	a5,56(a5)
    6ca4:	e789                	bnez	a5,6cae <xQueueIsQueueEmptyFromISR+0x30>
    {
        xReturn = pdTRUE;
    6ca6:	4785                	li	a5,1
    6ca8:	fef42623          	sw	a5,-20(s0)
    6cac:	a019                	j	6cb2 <xQueueIsQueueEmptyFromISR+0x34>
    }
    else
    {
        xReturn = pdFALSE;
    6cae:	fe042623          	sw	zero,-20(s0)
    }

    traceRETURN_xQueueIsQueueEmptyFromISR( xReturn );

    return xReturn;
    6cb2:	fec42783          	lw	a5,-20(s0)
}
    6cb6:	853e                	mv	a0,a5
    6cb8:	50b2                	lw	ra,44(sp)
    6cba:	5422                	lw	s0,40(sp)
    6cbc:	6145                	addi	sp,sp,48
    6cbe:	8082                	ret

00006cc0 <prvIsQueueFull>:
/*-----------------------------------------------------------*/

static BaseType_t prvIsQueueFull( const Queue_t * pxQueue )
{
    6cc0:	7179                	addi	sp,sp,-48
    6cc2:	d606                	sw	ra,44(sp)
    6cc4:	d422                	sw	s0,40(sp)
    6cc6:	1800                	addi	s0,sp,48
    6cc8:	fca42e23          	sw	a0,-36(s0)
    BaseType_t xReturn;

    taskENTER_CRITICAL();
    6ccc:	30047073          	csrci	mstatus,8
    6cd0:	8081a783          	lw	a5,-2040(gp) # 20000060 <xCriticalNesting>
    6cd4:	00178713          	addi	a4,a5,1
    6cd8:	80e1a423          	sw	a4,-2040(gp) # 20000060 <xCriticalNesting>
    {
        if( pxQueue->uxMessagesWaiting == pxQueue->uxLength )
    6cdc:	fdc42783          	lw	a5,-36(s0)
    6ce0:	5f98                	lw	a4,56(a5)
    6ce2:	fdc42783          	lw	a5,-36(s0)
    6ce6:	5fdc                	lw	a5,60(a5)
    6ce8:	00f71663          	bne	a4,a5,6cf4 <prvIsQueueFull+0x34>
        {
            xReturn = pdTRUE;
    6cec:	4785                	li	a5,1
    6cee:	fef42623          	sw	a5,-20(s0)
    6cf2:	a019                	j	6cf8 <prvIsQueueFull+0x38>
        }
        else
        {
            xReturn = pdFALSE;
    6cf4:	fe042623          	sw	zero,-20(s0)
        }
    }
    taskEXIT_CRITICAL();
    6cf8:	8081a783          	lw	a5,-2040(gp) # 20000060 <xCriticalNesting>
    6cfc:	fff78713          	addi	a4,a5,-1
    6d00:	80e1a423          	sw	a4,-2040(gp) # 20000060 <xCriticalNesting>
    6d04:	8081a783          	lw	a5,-2040(gp) # 20000060 <xCriticalNesting>
    6d08:	e399                	bnez	a5,6d0e <prvIsQueueFull+0x4e>
    6d0a:	30046073          	csrsi	mstatus,8

    return xReturn;
    6d0e:	fec42783          	lw	a5,-20(s0)
}
    6d12:	853e                	mv	a0,a5
    6d14:	50b2                	lw	ra,44(sp)
    6d16:	5422                	lw	s0,40(sp)
    6d18:	6145                	addi	sp,sp,48
    6d1a:	8082                	ret

00006d1c <xQueueIsQueueFullFromISR>:
/*-----------------------------------------------------------*/

BaseType_t xQueueIsQueueFullFromISR( const QueueHandle_t xQueue )
{
    6d1c:	7179                	addi	sp,sp,-48
    6d1e:	d606                	sw	ra,44(sp)
    6d20:	d422                	sw	s0,40(sp)
    6d22:	1800                	addi	s0,sp,48
    6d24:	fca42e23          	sw	a0,-36(s0)
    BaseType_t xReturn;
    Queue_t * const pxQueue = xQueue;
    6d28:	fdc42783          	lw	a5,-36(s0)
    6d2c:	fef42423          	sw	a5,-24(s0)

    traceENTER_xQueueIsQueueFullFromISR( xQueue );

    configASSERT( pxQueue );
    6d30:	fe842783          	lw	a5,-24(s0)
    6d34:	e781                	bnez	a5,6d3c <xQueueIsQueueFullFromISR+0x20>
    6d36:	30047073          	csrci	mstatus,8
    6d3a:	a001                	j	6d3a <xQueueIsQueueFullFromISR+0x1e>

    if( pxQueue->uxMessagesWaiting == pxQueue->uxLength )
    6d3c:	fe842783          	lw	a5,-24(s0)
    6d40:	5f98                	lw	a4,56(a5)
    6d42:	fe842783          	lw	a5,-24(s0)
    6d46:	5fdc                	lw	a5,60(a5)
    6d48:	00f71663          	bne	a4,a5,6d54 <xQueueIsQueueFullFromISR+0x38>
    {
        xReturn = pdTRUE;
    6d4c:	4785                	li	a5,1
    6d4e:	fef42623          	sw	a5,-20(s0)
    6d52:	a019                	j	6d58 <xQueueIsQueueFullFromISR+0x3c>
    }
    else
    {
        xReturn = pdFALSE;
    6d54:	fe042623          	sw	zero,-20(s0)
    }

    traceRETURN_xQueueIsQueueFullFromISR( xReturn );

    return xReturn;
    6d58:	fec42783          	lw	a5,-20(s0)
}
    6d5c:	853e                	mv	a0,a5
    6d5e:	50b2                	lw	ra,44(sp)
    6d60:	5422                	lw	s0,40(sp)
    6d62:	6145                	addi	sp,sp,48
    6d64:	8082                	ret

00006d66 <hal_platform_critical_hardware_lock>:
#include "hal_platform_safety.h"
#include "hal_pwm.h"

void hal_platform_critical_hardware_lock(void)
{
    6d66:	1141                	addi	sp,sp,-16
    6d68:	c606                	sw	ra,12(sp)
    6d6a:	c422                	sw	s0,8(sp)
    6d6c:	0800                	addi	s0,sp,16
    hal_pwm_force_stop_all();
    6d6e:	2275                	jal	6f1a <hal_pwm_force_stop_all>
}
    6d70:	0001                	nop
    6d72:	40b2                	lw	ra,12(sp)
    6d74:	4422                	lw	s0,8(sp)
    6d76:	0141                	addi	sp,sp,16
    6d78:	8082                	ret

00006d7a <hal_platform_nmi_emergency_stamp>:

void hal_platform_nmi_emergency_stamp(void)
{
    6d7a:	1141                	addi	sp,sp,-16
    6d7c:	c606                	sw	ra,12(sp)
    6d7e:	c422                	sw	s0,8(sp)
    6d80:	0800                	addi	s0,sp,16
    /* CH32V307: 最小桩实现, 后续可写入 BKP/RTC 备份寄存器 */
}
    6d82:	0001                	nop
    6d84:	40b2                	lw	ra,12(sp)
    6d86:	4422                	lw	s0,8(sp)
    6d88:	0141                	addi	sp,sp,16
    6d8a:	8082                	ret

00006d8c <ch32_gpio_port>:
#ifndef CH32V307_APP_FLASH_SIZE
#define CH32V307_APP_FLASH_SIZE (288U * 1024U)
#endif

static GPIO_TypeDef* ch32_gpio_port(int port)
{
    6d8c:	1101                	addi	sp,sp,-32
    6d8e:	ce06                	sw	ra,28(sp)
    6d90:	cc22                	sw	s0,24(sp)
    6d92:	1000                	addi	s0,sp,32
    6d94:	fea42623          	sw	a0,-20(s0)
    switch (port)
    6d98:	fec42703          	lw	a4,-20(s0)
    6d9c:	4791                	li	a5,4
    6d9e:	06f70663          	beq	a4,a5,6e0a <ch32_gpio_port+0x7e>
    6da2:	fec42703          	lw	a4,-20(s0)
    6da6:	4791                	li	a5,4
    6da8:	06e7c663          	blt	a5,a4,6e14 <ch32_gpio_port+0x88>
    6dac:	fec42703          	lw	a4,-20(s0)
    6db0:	478d                	li	a5,3
    6db2:	04f70763          	beq	a4,a5,6e00 <ch32_gpio_port+0x74>
    6db6:	fec42703          	lw	a4,-20(s0)
    6dba:	478d                	li	a5,3
    6dbc:	04e7cc63          	blt	a5,a4,6e14 <ch32_gpio_port+0x88>
    6dc0:	fec42703          	lw	a4,-20(s0)
    6dc4:	4789                	li	a5,2
    6dc6:	02f70a63          	beq	a4,a5,6dfa <ch32_gpio_port+0x6e>
    6dca:	fec42703          	lw	a4,-20(s0)
    6dce:	4789                	li	a5,2
    6dd0:	04e7c263          	blt	a5,a4,6e14 <ch32_gpio_port+0x88>
    6dd4:	fec42783          	lw	a5,-20(s0)
    6dd8:	c799                	beqz	a5,6de6 <ch32_gpio_port+0x5a>
    6dda:	fec42703          	lw	a4,-20(s0)
    6dde:	4785                	li	a5,1
    6de0:	00f70863          	beq	a4,a5,6df0 <ch32_gpio_port+0x64>
    6de4:	a805                	j	6e14 <ch32_gpio_port+0x88>
    {
    case 0: return GPIOA;
    6de6:	400117b7          	lui	a5,0x40011
    6dea:	80078793          	addi	a5,a5,-2048 # 40010800 <__freertos_irq_stack_top+0x20008800>
    6dee:	a025                	j	6e16 <ch32_gpio_port+0x8a>
    case 1: return GPIOB;
    6df0:	400117b7          	lui	a5,0x40011
    6df4:	c0078793          	addi	a5,a5,-1024 # 40010c00 <__freertos_irq_stack_top+0x20008c00>
    6df8:	a839                	j	6e16 <ch32_gpio_port+0x8a>
    case 2: return GPIOC;
    6dfa:	400117b7          	lui	a5,0x40011
    6dfe:	a821                	j	6e16 <ch32_gpio_port+0x8a>
    case 3: return GPIOD;
    6e00:	400117b7          	lui	a5,0x40011
    6e04:	40078793          	addi	a5,a5,1024 # 40011400 <__freertos_irq_stack_top+0x20009400>
    6e08:	a039                	j	6e16 <ch32_gpio_port+0x8a>
    case 4: return GPIOE;
    6e0a:	400127b7          	lui	a5,0x40012
    6e0e:	80078793          	addi	a5,a5,-2048 # 40011800 <__freertos_irq_stack_top+0x20009800>
    6e12:	a011                	j	6e16 <ch32_gpio_port+0x8a>
    default: return NULL;
    6e14:	4781                	li	a5,0
    }
}
    6e16:	853e                	mv	a0,a5
    6e18:	40f2                	lw	ra,28(sp)
    6e1a:	4462                	lw	s0,24(sp)
    6e1c:	6105                	addi	sp,sp,32
    6e1e:	8082                	ret

00006e20 <hal_gpio_set_level>:

int hal_gpio_set_level(hal_pin_t pin, int level)
{
    6e20:	7179                	addi	sp,sp,-48
    6e22:	d606                	sw	ra,44(sp)
    6e24:	d422                	sw	s0,40(sp)
    6e26:	1800                	addi	s0,sp,48
    6e28:	fca42e23          	sw	a0,-36(s0)
    6e2c:	fcb42c23          	sw	a1,-40(s0)
    GPIO_TypeDef* port = ch32_gpio_port(HAL_PIN_PORT(pin));
    6e30:	fdc42783          	lw	a5,-36(s0)
    6e34:	83c1                	srli	a5,a5,0x10
    6e36:	853e                	mv	a0,a5
    6e38:	3f91                	jal	6d8c <ch32_gpio_port>
    6e3a:	fea42623          	sw	a0,-20(s0)
    if (!port) return -1;
    6e3e:	fec42783          	lw	a5,-20(s0)
    6e42:	e399                	bnez	a5,6e48 <hal_gpio_set_level+0x28>
    6e44:	57fd                	li	a5,-1
    6e46:	a80d                	j	6e78 <hal_gpio_set_level+0x58>

    const uint32_t bit = (1U << HAL_PIN_NUM(pin));
    6e48:	fdc42783          	lw	a5,-36(s0)
    6e4c:	07c2                	slli	a5,a5,0x10
    6e4e:	83c1                	srli	a5,a5,0x10
    6e50:	4705                	li	a4,1
    6e52:	00f717b3          	sll	a5,a4,a5
    6e56:	fef42423          	sw	a5,-24(s0)
    if (level)
    6e5a:	fd842783          	lw	a5,-40(s0)
    6e5e:	c799                	beqz	a5,6e6c <hal_gpio_set_level+0x4c>
        port->BSHR = bit;
    6e60:	fec42783          	lw	a5,-20(s0)
    6e64:	fe842703          	lw	a4,-24(s0)
    6e68:	cb98                	sw	a4,16(a5)
    6e6a:	a031                	j	6e76 <hal_gpio_set_level+0x56>
    else
        port->BCR = bit;
    6e6c:	fec42783          	lw	a5,-20(s0)
    6e70:	fe842703          	lw	a4,-24(s0)
    6e74:	cbd8                	sw	a4,20(a5)
    return 0;
    6e76:	4781                	li	a5,0
}
    6e78:	853e                	mv	a0,a5
    6e7a:	50b2                	lw	ra,44(sp)
    6e7c:	5422                	lw	s0,40(sp)
    6e7e:	6145                	addi	sp,sp,48
    6e80:	8082                	ret

00006e82 <hal_gpio_get_level>:

int hal_gpio_get_level(hal_pin_t pin)
{
    6e82:	7179                	addi	sp,sp,-48
    6e84:	d606                	sw	ra,44(sp)
    6e86:	d422                	sw	s0,40(sp)
    6e88:	1800                	addi	s0,sp,48
    6e8a:	fca42e23          	sw	a0,-36(s0)
    GPIO_TypeDef* port = ch32_gpio_port(HAL_PIN_PORT(pin));
    6e8e:	fdc42783          	lw	a5,-36(s0)
    6e92:	83c1                	srli	a5,a5,0x10
    6e94:	853e                	mv	a0,a5
    6e96:	3ddd                	jal	6d8c <ch32_gpio_port>
    6e98:	fea42623          	sw	a0,-20(s0)
    if (!port) return 0;
    6e9c:	fec42783          	lw	a5,-20(s0)
    6ea0:	e399                	bnez	a5,6ea6 <hal_gpio_get_level+0x24>
    6ea2:	4781                	li	a5,0
    6ea4:	a025                	j	6ecc <hal_gpio_get_level+0x4a>

    const uint32_t bit = (1U << HAL_PIN_NUM(pin));
    6ea6:	fdc42783          	lw	a5,-36(s0)
    6eaa:	07c2                	slli	a5,a5,0x10
    6eac:	83c1                	srli	a5,a5,0x10
    6eae:	4705                	li	a4,1
    6eb0:	00f717b3          	sll	a5,a4,a5
    6eb4:	fef42423          	sw	a5,-24(s0)
    return (port->OUTDR & bit) ? 1 : 0;
    6eb8:	fec42783          	lw	a5,-20(s0)
    6ebc:	47d8                	lw	a4,12(a5)
    6ebe:	fe842783          	lw	a5,-24(s0)
    6ec2:	8ff9                	and	a5,a5,a4
    6ec4:	00f037b3          	snez	a5,a5
    6ec8:	0ff7f793          	zext.b	a5,a5
}
    6ecc:	853e                	mv	a0,a5
    6ece:	50b2                	lw	ra,44(sp)
    6ed0:	5422                	lw	s0,40(sp)
    6ed2:	6145                	addi	sp,sp,48
    6ed4:	8082                	ret

00006ed6 <hal_pwm_init_struct>:

void hal_pwm_init_struct(struct hal_pwm_channel* pwm)
{
    6ed6:	1101                	addi	sp,sp,-32
    6ed8:	ce06                	sw	ra,28(sp)
    6eda:	cc22                	sw	s0,24(sp)
    6edc:	1000                	addi	s0,sp,32
    6ede:	fea42623          	sw	a0,-20(s0)
    if (pwm)
    6ee2:	fec42783          	lw	a5,-20(s0)
    6ee6:	c78d                	beqz	a5,6f10 <hal_pwm_init_struct+0x3a>
    {
        pwm->init     = NULL;
    6ee8:	fec42783          	lw	a5,-20(s0)
    6eec:	0007a023          	sw	zero,0(a5)
        pwm->set_duty = NULL;
    6ef0:	fec42783          	lw	a5,-20(s0)
    6ef4:	0007a223          	sw	zero,4(a5)
        pwm->get_duty = NULL;
    6ef8:	fec42783          	lw	a5,-20(s0)
    6efc:	0007a423          	sw	zero,8(a5)
        pwm->deinit   = NULL;
    6f00:	fec42783          	lw	a5,-20(s0)
    6f04:	0007a623          	sw	zero,12(a5)
        pwm->_impl    = NULL;
    6f08:	fec42783          	lw	a5,-20(s0)
    6f0c:	0007a823          	sw	zero,16(a5)
    }
}
    6f10:	0001                	nop
    6f12:	40f2                	lw	ra,28(sp)
    6f14:	4462                	lw	s0,24(sp)
    6f16:	6105                	addi	sp,sp,32
    6f18:	8082                	ret

00006f1a <hal_pwm_force_stop_all>:

void hal_pwm_force_stop_all(void)
{
    6f1a:	1141                	addi	sp,sp,-16
    6f1c:	c606                	sw	ra,12(sp)
    6f1e:	c422                	sw	s0,8(sp)
    6f20:	0800                	addi	s0,sp,16
}
    6f22:	0001                	nop
    6f24:	40b2                	lw	ra,12(sp)
    6f26:	4422                	lw	s0,8(sp)
    6f28:	0141                	addi	sp,sp,16
    6f2a:	8082                	ret

00006f2c <hal_cpu_emergency_stop_all_cores>:

void hal_cpu_emergency_stop_all_cores(void)
{
    6f2c:	1141                	addi	sp,sp,-16
    6f2e:	c606                	sw	ra,12(sp)
    6f30:	c422                	sw	s0,8(sp)
    6f32:	0800                	addi	s0,sp,16
    __asm__ volatile("csrci mstatus, 8" ::: "memory");
    6f34:	30047073          	csrci	mstatus,8
    while (1)
    {
        __asm__ volatile("nop");
    6f38:	0001                	nop
    6f3a:	bffd                	j	6f38 <hal_cpu_emergency_stop_all_cores+0xc>

00006f3c <hal_wdt_init_rtc>:
    }
}

bool hal_wdt_init_rtc(uint32_t timeout_ms)
{
    6f3c:	1101                	addi	sp,sp,-32
    6f3e:	ce06                	sw	ra,28(sp)
    6f40:	cc22                	sw	s0,24(sp)
    6f42:	1000                	addi	s0,sp,32
    6f44:	fea42623          	sw	a0,-20(s0)
    (void)timeout_ms;
    return false;
    6f48:	4781                	li	a5,0
}
    6f4a:	853e                	mv	a0,a5
    6f4c:	40f2                	lw	ra,28(sp)
    6f4e:	4462                	lw	s0,24(sp)
    6f50:	6105                	addi	sp,sp,32
    6f52:	8082                	ret

00006f54 <hal_wdt_feed_rtc>:

void hal_wdt_feed_rtc(void) {}
    6f54:	1141                	addi	sp,sp,-16
    6f56:	c606                	sw	ra,12(sp)
    6f58:	c422                	sw	s0,8(sp)
    6f5a:	0800                	addi	s0,sp,16
    6f5c:	0001                	nop
    6f5e:	40b2                	lw	ra,12(sp)
    6f60:	4422                	lw	s0,8(sp)
    6f62:	0141                	addi	sp,sp,16
    6f64:	8082                	ret

00006f66 <hal_wdt_rtc_set_long_timeout>:
void hal_wdt_rtc_set_long_timeout(void) {}
    6f66:	1141                	addi	sp,sp,-16
    6f68:	c606                	sw	ra,12(sp)
    6f6a:	c422                	sw	s0,8(sp)
    6f6c:	0800                	addi	s0,sp,16
    6f6e:	0001                	nop
    6f70:	40b2                	lw	ra,12(sp)
    6f72:	4422                	lw	s0,8(sp)
    6f74:	0141                	addi	sp,sp,16
    6f76:	8082                	ret

00006f78 <hal_wdt_rtc_restore_timeout>:
void hal_wdt_rtc_restore_timeout(void) {}
    6f78:	1141                	addi	sp,sp,-16
    6f7a:	c606                	sw	ra,12(sp)
    6f7c:	c422                	sw	s0,8(sp)
    6f7e:	0800                	addi	s0,sp,16
    6f80:	0001                	nop
    6f82:	40b2                	lw	ra,12(sp)
    6f84:	4422                	lw	s0,8(sp)
    6f86:	0141                	addi	sp,sp,16
    6f88:	8082                	ret

00006f8a <hal_wdt_init_twdt>:

bool hal_wdt_init_twdt(uint32_t timeout_ms)
{
    6f8a:	1101                	addi	sp,sp,-32
    6f8c:	ce06                	sw	ra,28(sp)
    6f8e:	cc22                	sw	s0,24(sp)
    6f90:	1000                	addi	s0,sp,32
    6f92:	fea42623          	sw	a0,-20(s0)
    (void)timeout_ms;
    return false;
    6f96:	4781                	li	a5,0
}
    6f98:	853e                	mv	a0,a5
    6f9a:	40f2                	lw	ra,28(sp)
    6f9c:	4462                	lw	s0,24(sp)
    6f9e:	6105                	addi	sp,sp,32
    6fa0:	8082                	ret

00006fa2 <hal_wdt_subscribe>:

bool hal_wdt_subscribe(void* task_handle)
{
    6fa2:	1101                	addi	sp,sp,-32
    6fa4:	ce06                	sw	ra,28(sp)
    6fa6:	cc22                	sw	s0,24(sp)
    6fa8:	1000                	addi	s0,sp,32
    6faa:	fea42623          	sw	a0,-20(s0)
    (void)task_handle;
    return false;
    6fae:	4781                	li	a5,0
}
    6fb0:	853e                	mv	a0,a5
    6fb2:	40f2                	lw	ra,28(sp)
    6fb4:	4462                	lw	s0,24(sp)
    6fb6:	6105                	addi	sp,sp,32
    6fb8:	8082                	ret

00006fba <hal_wdt_unsubscribe>:

bool hal_wdt_unsubscribe(void* task_handle)
{
    6fba:	1101                	addi	sp,sp,-32
    6fbc:	ce06                	sw	ra,28(sp)
    6fbe:	cc22                	sw	s0,24(sp)
    6fc0:	1000                	addi	s0,sp,32
    6fc2:	fea42623          	sw	a0,-20(s0)
    (void)task_handle;
    return false;
    6fc6:	4781                	li	a5,0
}
    6fc8:	853e                	mv	a0,a5
    6fca:	40f2                	lw	ra,28(sp)
    6fcc:	4462                	lw	s0,24(sp)
    6fce:	6105                	addi	sp,sp,32
    6fd0:	8082                	ret

00006fd2 <hal_wdt_feed_twdt>:

void hal_wdt_feed_twdt(void) {}
    6fd2:	1141                	addi	sp,sp,-16
    6fd4:	c606                	sw	ra,12(sp)
    6fd6:	c422                	sw	s0,8(sp)
    6fd8:	0800                	addi	s0,sp,16
    6fda:	0001                	nop
    6fdc:	40b2                	lw	ra,12(sp)
    6fde:	4422                	lw	s0,8(sp)
    6fe0:	0141                	addi	sp,sp,16
    6fe2:	8082                	ret

00006fe4 <hal_flash_read>:

bool hal_flash_read(uint32_t addr, uint8_t* buf, size_t len)
{
    6fe4:	1101                	addi	sp,sp,-32
    6fe6:	ce06                	sw	ra,28(sp)
    6fe8:	cc22                	sw	s0,24(sp)
    6fea:	1000                	addi	s0,sp,32
    6fec:	fea42623          	sw	a0,-20(s0)
    6ff0:	feb42423          	sw	a1,-24(s0)
    6ff4:	fec42223          	sw	a2,-28(s0)
    if (!buf || len == 0) return false;
    6ff8:	fe842783          	lw	a5,-24(s0)
    6ffc:	c781                	beqz	a5,7004 <hal_flash_read+0x20>
    6ffe:	fe442783          	lw	a5,-28(s0)
    7002:	e399                	bnez	a5,7008 <hal_flash_read+0x24>
    7004:	4781                	li	a5,0
    7006:	a02d                	j	7030 <hal_flash_read+0x4c>
    if (addr < CH32V307_APP_FLASH_BASE) return false;
    if ((addr + len) > (CH32V307_APP_FLASH_BASE + CH32V307_APP_FLASH_SIZE)) return false;
    7008:	fec42703          	lw	a4,-20(s0)
    700c:	fe442783          	lw	a5,-28(s0)
    7010:	973e                	add	a4,a4,a5
    7012:	000487b7          	lui	a5,0x48
    7016:	00e7f463          	bgeu	a5,a4,701e <hal_flash_read+0x3a>
    701a:	4781                	li	a5,0
    701c:	a811                	j	7030 <hal_flash_read+0x4c>

    memcpy(buf, (const void*)addr, len);
    701e:	fec42783          	lw	a5,-20(s0)
    7022:	fe442603          	lw	a2,-28(s0)
    7026:	85be                	mv	a1,a5
    7028:	fe842503          	lw	a0,-24(s0)
    702c:	20a1                	jal	7074 <memcpy>
    return true;
    702e:	4785                	li	a5,1
}
    7030:	853e                	mv	a0,a5
    7032:	40f2                	lw	ra,28(sp)
    7034:	4462                	lw	s0,24(sp)
    7036:	6105                	addi	sp,sp,32
    7038:	8082                	ret

0000703a <hal_flash_get_app_addr>:

uint32_t hal_flash_get_app_addr(void)
{
    703a:	1141                	addi	sp,sp,-16
    703c:	c606                	sw	ra,12(sp)
    703e:	c422                	sw	s0,8(sp)
    7040:	0800                	addi	s0,sp,16
    return CH32V307_APP_FLASH_BASE;
    7042:	4781                	li	a5,0
}
    7044:	853e                	mv	a0,a5
    7046:	40b2                	lw	ra,12(sp)
    7048:	4422                	lw	s0,8(sp)
    704a:	0141                	addi	sp,sp,16
    704c:	8082                	ret

0000704e <hal_flash_get_app_size>:

uint32_t hal_flash_get_app_size(void)
{
    704e:	1141                	addi	sp,sp,-16
    7050:	c606                	sw	ra,12(sp)
    7052:	c422                	sw	s0,8(sp)
    7054:	0800                	addi	s0,sp,16
    return CH32V307_APP_FLASH_SIZE;
    7056:	000487b7          	lui	a5,0x48
}
    705a:	853e                	mv	a0,a5
    705c:	40b2                	lw	ra,12(sp)
    705e:	4422                	lw	s0,8(sp)
    7060:	0141                	addi	sp,sp,16
    7062:	8082                	ret

00007064 <memset>:
    7064:	832a                	mv	t1,a0
    7066:	c611                	beqz	a2,7072 <memset+0xe>
    7068:	00b30023          	sb	a1,0(t1)
    706c:	167d                	addi	a2,a2,-1
    706e:	0305                	addi	t1,t1,1
    7070:	fe65                	bnez	a2,7068 <memset+0x4>
    7072:	8082                	ret

00007074 <memcpy>:
    7074:	832a                	mv	t1,a0
    7076:	ca09                	beqz	a2,7088 <memcpy+0x14>
    7078:	00058383          	lb	t2,0(a1)
    707c:	00730023          	sb	t2,0(t1)
    7080:	167d                	addi	a2,a2,-1
    7082:	0305                	addi	t1,t1,1
    7084:	0585                	addi	a1,a1,1
    7086:	fa6d                	bnez	a2,7078 <memcpy+0x4>
    7088:	8082                	ret

0000708a <ADC1_2_IRQHandler>:
DMA2_Channel8_IRQHandler:
DMA2_Channel9_IRQHandler:
DMA2_Channel10_IRQHandler:
DMA2_Channel11_IRQHandler:
1:
	j 1b
    708a:	a001                	j	708a <ADC1_2_IRQHandler>

0000708c <handle_reset>:
	.weak	handle_reset
	.align	1
handle_reset:
.option push 
.option	norelax 
	la gp, __global_pointer$
    708c:	1fff9197          	auipc	gp,0x1fff9
    7090:	7cc18193          	addi	gp,gp,1996 # 20000858 <__global_pointer$>
.option	pop 

	la sp, _eusrstack 
    7094:	20001117          	auipc	sp,0x20001
    7098:	f6c10113          	addi	sp,sp,-148 # 20008000 <__freertos_irq_stack_top>

/* Load data section from flash to RAM */
	la a0, _data_lma
    709c:	00001517          	auipc	a0,0x1
    70a0:	66850513          	addi	a0,a0,1640 # 8704 <_data_lma>
	la a1, _data_vma
    70a4:	1fff9597          	auipc	a1,0x1fff9
    70a8:	f5c58593          	addi	a1,a1,-164 # 20000000 <_impure_data>
	la a2, _edata
    70ac:	1fff9617          	auipc	a2,0x1fff9
    70b0:	fd460613          	addi	a2,a2,-44 # 20000080 <pxCurrentTCB>
	bgeu a1, a2, 2f
    70b4:	00c5fa63          	bgeu	a1,a2,70c8 <handle_reset+0x3c>
1:
	lw t0, (a0)
    70b8:	00052283          	lw	t0,0(a0)
	sw t0, (a1)
    70bc:	0055a023          	sw	t0,0(a1)
	addi a0, a0, 4
    70c0:	0511                	addi	a0,a0,4
	addi a1, a1, 4
    70c2:	0591                	addi	a1,a1,4
	bltu a1, a2, 1b
    70c4:	fec5eae3          	bltu	a1,a2,70b8 <handle_reset+0x2c>
2:
/* Clear bss section */
	la a0, _sbss
    70c8:	82818513          	addi	a0,gp,-2008 # 20000080 <pxCurrentTCB>
	la a1, _ebss
    70cc:	1fffc597          	auipc	a1,0x1fffc
    70d0:	06c58593          	addi	a1,a1,108 # 20003138 <_ebss>
	bgeu a0, a1, 2f
    70d4:	00b57763          	bgeu	a0,a1,70e2 <handle_reset+0x56>
1:
	sw zero, (a0)
    70d8:	00052023          	sw	zero,0(a0)
	addi a0, a0, 4
    70dc:	0511                	addi	a0,a0,4
	bltu a0, a1, 1b
    70de:	feb56de3          	bltu	a0,a1,70d8 <handle_reset+0x4c>
2:
/* Configure pipelining and instruction prediction */
    li t0, 0x1f
    70e2:	42fd                	li	t0,31
    csrw 0xbc0, t0
    70e4:	bc029073          	csrw	0xbc0,t0
/* Enable interrupt nesting and hardware stack */
	li t0, 0x0b
    70e8:	42ad                	li	t0,11
	csrw 0x804, t0
    70ea:	80429073          	csrw	0x804,t0
/* Enable floating point and global interrupt, configure privileged mode */
   	li t0, 0x6088           
    70ee:	6299                	lui	t0,0x6
    70f0:	08828293          	addi	t0,t0,136 # 6088 <xQueueReceive+0x6c>
   	csrw mstatus, t0
    70f4:	30029073          	csrw	mstatus,t0
/* Configure the interrupt vector table recognition mode and entry address mode */
 	la t0, _vector_base
    70f8:	ffff9297          	auipc	t0,0xffff9
    70fc:	f0c28293          	addi	t0,t0,-244 # 4 <_einit>
    ori t0, t0, 3           
    7100:	0032e293          	ori	t0,t0,3
	csrw mtvec, t0
    7104:	30529073          	csrw	mtvec,t0

    jal  SystemInit
    7108:	97cf90ef          	jal	284 <SystemInit>
	la t0, ch307_node_main
    710c:	00001297          	auipc	t0,0x1
    7110:	5e828293          	addi	t0,t0,1512 # 86f4 <ch307_node_main>
	csrw mepc, t0
    7114:	34129073          	csrw	mepc,t0
	mret
    7118:	30200073          	mret

0000711c <__clzsi2>:
    711c:	67c1                	lui	a5,0x10
    711e:	02f57563          	bgeu	a0,a5,7148 <__clzsi2+0x2c>
    7122:	10053793          	sltiu	a5,a0,256
    7126:	0017b793          	seqz	a5,a5
    712a:	078e                	slli	a5,a5,0x3
    712c:	6721                	lui	a4,0x8
    712e:	00f55533          	srl	a0,a0,a5
    7132:	59c70713          	addi	a4,a4,1436 # 859c <__clz_tab>
    7136:	972a                	add	a4,a4,a0
    7138:	00074503          	lbu	a0,0(a4)
    713c:	02000693          	li	a3,32
    7140:	8e9d                	sub	a3,a3,a5
    7142:	40a68533          	sub	a0,a3,a0
    7146:	8082                	ret
    7148:	01000737          	lui	a4,0x1000
    714c:	47e1                	li	a5,24
    714e:	fce57fe3          	bgeu	a0,a4,712c <__clzsi2+0x10>
    7152:	47c1                	li	a5,16
    7154:	bfe1                	j	712c <__clzsi2+0x10>

00007156 <__udivdi3>:
    7156:	8732                	mv	a4,a2
    7158:	88b6                	mv	a7,a3
    715a:	882a                	mv	a6,a0
    715c:	832e                	mv	t1,a1
    715e:	1c069263          	bnez	a3,7322 <__udivdi3+0x1cc>
    7162:	67a1                	lui	a5,0x8
    7164:	59c78793          	addi	a5,a5,1436 # 859c <__clz_tab>
    7168:	0ac5fb63          	bgeu	a1,a2,721e <__udivdi3+0xc8>
    716c:	66c1                	lui	a3,0x10
    716e:	08d67e63          	bgeu	a2,a3,720a <__udivdi3+0xb4>
    7172:	10063693          	sltiu	a3,a2,256
    7176:	0016b693          	seqz	a3,a3
    717a:	068e                	slli	a3,a3,0x3
    717c:	00d65e33          	srl	t3,a2,a3
    7180:	97f2                	add	a5,a5,t3
    7182:	0007c783          	lbu	a5,0(a5)
    7186:	97b6                	add	a5,a5,a3
    7188:	02000693          	li	a3,32
    718c:	00d78d63          	beq	a5,a3,71a6 <__udivdi3+0x50>
    7190:	8e9d                	sub	a3,a3,a5
    7192:	00d59333          	sll	t1,a1,a3
    7196:	00f557b3          	srl	a5,a0,a5
    719a:	00d61733          	sll	a4,a2,a3
    719e:	0067e333          	or	t1,a5,t1
    71a2:	00d51833          	sll	a6,a0,a3
    71a6:	01075513          	srli	a0,a4,0x10
    71aa:	02a357b3          	divu	a5,t1,a0
    71ae:	01071593          	slli	a1,a4,0x10
    71b2:	81c1                	srli	a1,a1,0x10
    71b4:	01085693          	srli	a3,a6,0x10
    71b8:	02a37333          	remu	t1,t1,a0
    71bc:	02f58633          	mul	a2,a1,a5
    71c0:	0342                	slli	t1,t1,0x10
    71c2:	0066e6b3          	or	a3,a3,t1
    71c6:	00c6f863          	bgeu	a3,a2,71d6 <__udivdi3+0x80>
    71ca:	96ba                	add	a3,a3,a4
    71cc:	00c6f463          	bgeu	a3,a2,71d4 <__udivdi3+0x7e>
    71d0:	04e6f463          	bgeu	a3,a4,7218 <__udivdi3+0xc2>
    71d4:	17fd                	addi	a5,a5,-1
    71d6:	8e91                	sub	a3,a3,a2
    71d8:	02a6d633          	divu	a2,a3,a0
    71dc:	0842                	slli	a6,a6,0x10
    71de:	01085813          	srli	a6,a6,0x10
    71e2:	02a6f6b3          	remu	a3,a3,a0
    71e6:	02c585b3          	mul	a1,a1,a2
    71ea:	06c2                	slli	a3,a3,0x10
    71ec:	00d86833          	or	a6,a6,a3
    71f0:	00b87863          	bgeu	a6,a1,7200 <__udivdi3+0xaa>
    71f4:	983a                	add	a6,a6,a4
    71f6:	00b87463          	bgeu	a6,a1,71fe <__udivdi3+0xa8>
    71fa:	12e87263          	bgeu	a6,a4,731e <__udivdi3+0x1c8>
    71fe:	167d                	addi	a2,a2,-1
    7200:	07c2                	slli	a5,a5,0x10
    7202:	8fd1                	or	a5,a5,a2
    7204:	853e                	mv	a0,a5
    7206:	85c6                	mv	a1,a7
    7208:	8082                	ret
    720a:	01000e37          	lui	t3,0x1000
    720e:	46e1                	li	a3,24
    7210:	f7c676e3          	bgeu	a2,t3,717c <__udivdi3+0x26>
    7214:	46c1                	li	a3,16
    7216:	b79d                	j	717c <__udivdi3+0x26>
    7218:	17f9                	addi	a5,a5,-2
    721a:	96ba                	add	a3,a3,a4
    721c:	bf6d                	j	71d6 <__udivdi3+0x80>
    721e:	4681                	li	a3,0
    7220:	ca09                	beqz	a2,7232 <__udivdi3+0xdc>
    7222:	66c1                	lui	a3,0x10
    7224:	04d67e63          	bgeu	a2,a3,7280 <__udivdi3+0x12a>
    7228:	10063693          	sltiu	a3,a2,256
    722c:	0016b693          	seqz	a3,a3
    7230:	068e                	slli	a3,a3,0x3
    7232:	00d658b3          	srl	a7,a2,a3
    7236:	97c6                	add	a5,a5,a7
    7238:	0007c783          	lbu	a5,0(a5)
    723c:	97b6                	add	a5,a5,a3
    723e:	02000693          	li	a3,32
    7242:	04d79663          	bne	a5,a3,728e <__udivdi3+0x138>
    7246:	40c58633          	sub	a2,a1,a2
    724a:	4885                	li	a7,1
    724c:	01075513          	srli	a0,a4,0x10
    7250:	02a657b3          	divu	a5,a2,a0
    7254:	01071593          	slli	a1,a4,0x10
    7258:	81c1                	srli	a1,a1,0x10
    725a:	01085693          	srli	a3,a6,0x10
    725e:	02a67633          	remu	a2,a2,a0
    7262:	02f58333          	mul	t1,a1,a5
    7266:	0642                	slli	a2,a2,0x10
    7268:	8ed1                	or	a3,a3,a2
    726a:	0066f863          	bgeu	a3,t1,727a <__udivdi3+0x124>
    726e:	96ba                	add	a3,a3,a4
    7270:	0066f463          	bgeu	a3,t1,7278 <__udivdi3+0x122>
    7274:	0ae6f263          	bgeu	a3,a4,7318 <__udivdi3+0x1c2>
    7278:	17fd                	addi	a5,a5,-1
    727a:	406686b3          	sub	a3,a3,t1
    727e:	bfa9                	j	71d8 <__udivdi3+0x82>
    7280:	010008b7          	lui	a7,0x1000
    7284:	46e1                	li	a3,24
    7286:	fb1676e3          	bgeu	a2,a7,7232 <__udivdi3+0xdc>
    728a:	46c1                	li	a3,16
    728c:	b75d                	j	7232 <__udivdi3+0xdc>
    728e:	40f68833          	sub	a6,a3,a5
    7292:	01061733          	sll	a4,a2,a6
    7296:	00f5d6b3          	srl	a3,a1,a5
    729a:	010595b3          	sll	a1,a1,a6
    729e:	00f557b3          	srl	a5,a0,a5
    72a2:	01051833          	sll	a6,a0,a6
    72a6:	01075513          	srli	a0,a4,0x10
    72aa:	02a6d8b3          	divu	a7,a3,a0
    72ae:	01071613          	slli	a2,a4,0x10
    72b2:	8241                	srli	a2,a2,0x10
    72b4:	8fcd                	or	a5,a5,a1
    72b6:	02a6f6b3          	remu	a3,a3,a0
    72ba:	03160333          	mul	t1,a2,a7
    72be:	01069593          	slli	a1,a3,0x10
    72c2:	0107d693          	srli	a3,a5,0x10
    72c6:	8ecd                	or	a3,a3,a1
    72c8:	0066f863          	bgeu	a3,t1,72d8 <__udivdi3+0x182>
    72cc:	96ba                	add	a3,a3,a4
    72ce:	0066f463          	bgeu	a3,t1,72d6 <__udivdi3+0x180>
    72d2:	02e6fd63          	bgeu	a3,a4,730c <__udivdi3+0x1b6>
    72d6:	18fd                	addi	a7,a7,-1 # ffffff <_data_lma+0xff78fb>
    72d8:	406686b3          	sub	a3,a3,t1
    72dc:	02a6d5b3          	divu	a1,a3,a0
    72e0:	07c2                	slli	a5,a5,0x10
    72e2:	83c1                	srli	a5,a5,0x10
    72e4:	02a6f6b3          	remu	a3,a3,a0
    72e8:	02b60633          	mul	a2,a2,a1
    72ec:	06c2                	slli	a3,a3,0x10
    72ee:	8fd5                	or	a5,a5,a3
    72f0:	00c7f863          	bgeu	a5,a2,7300 <__udivdi3+0x1aa>
    72f4:	97ba                	add	a5,a5,a4
    72f6:	00c7f463          	bgeu	a5,a2,72fe <__udivdi3+0x1a8>
    72fa:	00e7fc63          	bgeu	a5,a4,7312 <__udivdi3+0x1bc>
    72fe:	15fd                	addi	a1,a1,-1
    7300:	08c2                	slli	a7,a7,0x10
    7302:	40c78633          	sub	a2,a5,a2
    7306:	00b8e8b3          	or	a7,a7,a1
    730a:	b789                	j	724c <__udivdi3+0xf6>
    730c:	18f9                	addi	a7,a7,-2
    730e:	96ba                	add	a3,a3,a4
    7310:	b7e1                	j	72d8 <__udivdi3+0x182>
    7312:	15f9                	addi	a1,a1,-2
    7314:	97ba                	add	a5,a5,a4
    7316:	b7ed                	j	7300 <__udivdi3+0x1aa>
    7318:	17f9                	addi	a5,a5,-2
    731a:	96ba                	add	a3,a3,a4
    731c:	bfb9                	j	727a <__udivdi3+0x124>
    731e:	1679                	addi	a2,a2,-2
    7320:	b5c5                	j	7200 <__udivdi3+0xaa>
    7322:	12d5ea63          	bltu	a1,a3,7456 <__udivdi3+0x300>
    7326:	67c1                	lui	a5,0x10
    7328:	02f6fd63          	bgeu	a3,a5,7362 <__udivdi3+0x20c>
    732c:	1006b793          	sltiu	a5,a3,256
    7330:	0017b793          	seqz	a5,a5
    7334:	078e                	slli	a5,a5,0x3
    7336:	6721                	lui	a4,0x8
    7338:	00f6d833          	srl	a6,a3,a5
    733c:	59c70713          	addi	a4,a4,1436 # 859c <__clz_tab>
    7340:	9742                	add	a4,a4,a6
    7342:	00074703          	lbu	a4,0(a4)
    7346:	02000813          	li	a6,32
    734a:	973e                	add	a4,a4,a5
    734c:	03071263          	bne	a4,a6,7370 <__udivdi3+0x21a>
    7350:	00c537b3          	sltu	a5,a0,a2
    7354:	0017b793          	seqz	a5,a5
    7358:	00b6b6b3          	sltu	a3,a3,a1
    735c:	8fd5                	or	a5,a5,a3
    735e:	4881                	li	a7,0
    7360:	b555                	j	7204 <__udivdi3+0xae>
    7362:	01000737          	lui	a4,0x1000
    7366:	47e1                	li	a5,24
    7368:	fce6f7e3          	bgeu	a3,a4,7336 <__udivdi3+0x1e0>
    736c:	47c1                	li	a5,16
    736e:	b7e1                	j	7336 <__udivdi3+0x1e0>
    7370:	40e80833          	sub	a6,a6,a4
    7374:	00e658b3          	srl	a7,a2,a4
    7378:	010696b3          	sll	a3,a3,a6
    737c:	00d8e8b3          	or	a7,a7,a3
    7380:	0108de13          	srli	t3,a7,0x10
    7384:	00e5d6b3          	srl	a3,a1,a4
    7388:	03c6d7b3          	divu	a5,a3,t3
    738c:	01089313          	slli	t1,a7,0x10
    7390:	01035313          	srli	t1,t1,0x10
    7394:	010595b3          	sll	a1,a1,a6
    7398:	00e55733          	srl	a4,a0,a4
    739c:	8f4d                	or	a4,a4,a1
    739e:	01061633          	sll	a2,a2,a6
    73a2:	03c6f6b3          	remu	a3,a3,t3
    73a6:	02f30eb3          	mul	t4,t1,a5
    73aa:	01069593          	slli	a1,a3,0x10
    73ae:	01075693          	srli	a3,a4,0x10
    73b2:	8ecd                	or	a3,a3,a1
    73b4:	01d6f863          	bgeu	a3,t4,73c4 <__udivdi3+0x26e>
    73b8:	96c6                	add	a3,a3,a7
    73ba:	01d6f463          	bgeu	a3,t4,73c2 <__udivdi3+0x26c>
    73be:	0916f663          	bgeu	a3,a7,744a <__udivdi3+0x2f4>
    73c2:	17fd                	addi	a5,a5,-1 # ffff <_data_lma+0x78fb>
    73c4:	41d686b3          	sub	a3,a3,t4
    73c8:	03c6d5b3          	divu	a1,a3,t3
    73cc:	0742                	slli	a4,a4,0x10
    73ce:	8341                	srli	a4,a4,0x10
    73d0:	03c6f6b3          	remu	a3,a3,t3
    73d4:	02b30333          	mul	t1,t1,a1
    73d8:	06c2                	slli	a3,a3,0x10
    73da:	8f55                	or	a4,a4,a3
    73dc:	00677863          	bgeu	a4,t1,73ec <__udivdi3+0x296>
    73e0:	9746                	add	a4,a4,a7
    73e2:	00677463          	bgeu	a4,t1,73ea <__udivdi3+0x294>
    73e6:	07177563          	bgeu	a4,a7,7450 <__udivdi3+0x2fa>
    73ea:	15fd                	addi	a1,a1,-1
    73ec:	07c2                	slli	a5,a5,0x10
    73ee:	8fcd                	or	a5,a5,a1
    73f0:	40670733          	sub	a4,a4,t1
    73f4:	05c2                	slli	a1,a1,0x10
    73f6:	01061313          	slli	t1,a2,0x10
    73fa:	81c1                	srli	a1,a1,0x10
    73fc:	0107d893          	srli	a7,a5,0x10
    7400:	01035313          	srli	t1,t1,0x10
    7404:	8241                	srli	a2,a2,0x10
    7406:	02658e33          	mul	t3,a1,t1
    740a:	02688333          	mul	t1,a7,t1
    740e:	010e5693          	srli	a3,t3,0x10
    7412:	02c585b3          	mul	a1,a1,a2
    7416:	959a                	add	a1,a1,t1
    7418:	96ae                	add	a3,a3,a1
    741a:	02c888b3          	mul	a7,a7,a2
    741e:	0066f463          	bgeu	a3,t1,7426 <__udivdi3+0x2d0>
    7422:	6641                	lui	a2,0x10
    7424:	98b2                	add	a7,a7,a2
    7426:	0106d613          	srli	a2,a3,0x10
    742a:	9646                	add	a2,a2,a7
    742c:	00c76d63          	bltu	a4,a2,7446 <__udivdi3+0x2f0>
    7430:	0e42                	slli	t3,t3,0x10
    7432:	06c2                	slli	a3,a3,0x10
    7434:	010e5e13          	srli	t3,t3,0x10
    7438:	01051533          	sll	a0,a0,a6
    743c:	96f2                	add	a3,a3,t3
    743e:	f2d570e3          	bgeu	a0,a3,735e <__udivdi3+0x208>
    7442:	f0c71ee3          	bne	a4,a2,735e <__udivdi3+0x208>
    7446:	17fd                	addi	a5,a5,-1
    7448:	bf19                	j	735e <__udivdi3+0x208>
    744a:	17f9                	addi	a5,a5,-2
    744c:	96c6                	add	a3,a3,a7
    744e:	bf9d                	j	73c4 <__udivdi3+0x26e>
    7450:	15f9                	addi	a1,a1,-2
    7452:	9746                	add	a4,a4,a7
    7454:	bf61                	j	73ec <__udivdi3+0x296>
    7456:	4881                	li	a7,0
    7458:	4781                	li	a5,0
    745a:	b36d                	j	7204 <__udivdi3+0xae>

0000745c <calloc>:
    745c:	862e                	mv	a2,a1
    745e:	85aa                	mv	a1,a0
    7460:	8101a503          	lw	a0,-2032(gp) # 20000068 <_impure_ptr>
    7464:	a009                	j	7466 <_calloc_r>

00007466 <_calloc_r>:
    7466:	02c5b7b3          	mulhu	a5,a1,a2
    746a:	1101                	addi	sp,sp,-32
    746c:	ce06                	sw	ra,28(sp)
    746e:	cc22                	sw	s0,24(sp)
    7470:	02c58633          	mul	a2,a1,a2
    7474:	cb89                	beqz	a5,7486 <_calloc_r+0x20>
    7476:	47b1                	li	a5,12
    7478:	c11c                	sw	a5,0(a0)
    747a:	4401                	li	s0,0
    747c:	40f2                	lw	ra,28(sp)
    747e:	8522                	mv	a0,s0
    7480:	4462                	lw	s0,24(sp)
    7482:	6105                	addi	sp,sp,32
    7484:	8082                	ret
    7486:	85b2                	mv	a1,a2
    7488:	c632                	sw	a2,12(sp)
    748a:	20a5                	jal	74f2 <_malloc_r>
    748c:	842a                	mv	s0,a0
    748e:	d57d                	beqz	a0,747c <_calloc_r+0x16>
    7490:	4632                	lw	a2,12(sp)
    7492:	4581                	li	a1,0
    7494:	bd1ff0ef          	jal	7064 <memset>
    7498:	b7d5                	j	747c <_calloc_r+0x16>

0000749a <free>:
    749a:	85aa                	mv	a1,a0
    749c:	8101a503          	lw	a0,-2032(gp) # 20000068 <_impure_ptr>
    74a0:	aae1                	j	7678 <_free_r>

000074a2 <sbrk_aligned>:
    74a2:	1141                	addi	sp,sp,-16
    74a4:	c422                	sw	s0,8(sp)
    74a6:	8401a783          	lw	a5,-1984(gp) # 20000098 <__malloc_sbrk_start>
    74aa:	c226                	sw	s1,4(sp)
    74ac:	c04a                	sw	s2,0(sp)
    74ae:	c606                	sw	ra,12(sp)
    74b0:	892a                	mv	s2,a0
    74b2:	84ae                	mv	s1,a1
    74b4:	e789                	bnez	a5,74be <sbrk_aligned+0x1c>
    74b6:	4581                	li	a1,0
    74b8:	2a51                	jal	764c <_sbrk_r>
    74ba:	84a1a023          	sw	a0,-1984(gp) # 20000098 <__malloc_sbrk_start>
    74be:	85a6                	mv	a1,s1
    74c0:	854a                	mv	a0,s2
    74c2:	2269                	jal	764c <_sbrk_r>
    74c4:	54fd                	li	s1,-1
    74c6:	00951a63          	bne	a0,s1,74da <sbrk_aligned+0x38>
    74ca:	547d                	li	s0,-1
    74cc:	40b2                	lw	ra,12(sp)
    74ce:	8522                	mv	a0,s0
    74d0:	4422                	lw	s0,8(sp)
    74d2:	4492                	lw	s1,4(sp)
    74d4:	4902                	lw	s2,0(sp)
    74d6:	0141                	addi	sp,sp,16
    74d8:	8082                	ret
    74da:	00350413          	addi	s0,a0,3
    74de:	9871                	andi	s0,s0,-4
    74e0:	fe8506e3          	beq	a0,s0,74cc <sbrk_aligned+0x2a>
    74e4:	40a405b3          	sub	a1,s0,a0
    74e8:	854a                	mv	a0,s2
    74ea:	228d                	jal	764c <_sbrk_r>
    74ec:	fe9510e3          	bne	a0,s1,74cc <sbrk_aligned+0x2a>
    74f0:	bfe9                	j	74ca <sbrk_aligned+0x28>

000074f2 <_malloc_r>:
    74f2:	1101                	addi	sp,sp,-32
    74f4:	ca26                	sw	s1,20(sp)
    74f6:	00358493          	addi	s1,a1,3
    74fa:	98f1                	andi	s1,s1,-4
    74fc:	ce06                	sw	ra,28(sp)
    74fe:	cc22                	sw	s0,24(sp)
    7500:	c84a                	sw	s2,16(sp)
    7502:	c64e                	sw	s3,12(sp)
    7504:	c452                	sw	s4,8(sp)
    7506:	04a1                	addi	s1,s1,8
    7508:	47b1                	li	a5,12
    750a:	00f4f363          	bgeu	s1,a5,7510 <_malloc_r+0x1e>
    750e:	84be                	mv	s1,a5
    7510:	0004c463          	bltz	s1,7518 <_malloc_r+0x26>
    7514:	00b4fd63          	bgeu	s1,a1,752e <_malloc_r+0x3c>
    7518:	47b1                	li	a5,12
    751a:	c11c                	sw	a5,0(a0)
    751c:	4501                	li	a0,0
    751e:	40f2                	lw	ra,28(sp)
    7520:	4462                	lw	s0,24(sp)
    7522:	44d2                	lw	s1,20(sp)
    7524:	4942                	lw	s2,16(sp)
    7526:	49b2                	lw	s3,12(sp)
    7528:	4a22                	lw	s4,8(sp)
    752a:	6105                	addi	sp,sp,32
    752c:	8082                	ret
    752e:	892a                	mv	s2,a0
    7530:	28e1                	jal	7608 <__malloc_lock>
    7532:	8441a783          	lw	a5,-1980(gp) # 2000009c <__malloc_free_list>
    7536:	843e                	mv	s0,a5
    7538:	e829                	bnez	s0,758a <_malloc_r+0x98>
    753a:	85a6                	mv	a1,s1
    753c:	854a                	mv	a0,s2
    753e:	f65ff0ef          	jal	74a2 <sbrk_aligned>
    7542:	57fd                	li	a5,-1
    7544:	842a                	mv	s0,a0
    7546:	0af51f63          	bne	a0,a5,7604 <_malloc_r+0x112>
    754a:	8441a403          	lw	s0,-1980(gp) # 2000009c <__malloc_free_list>
    754e:	87a2                	mv	a5,s0
    7550:	ebd1                	bnez	a5,75e4 <_malloc_r+0xf2>
    7552:	c05d                	beqz	s0,75f8 <_malloc_r+0x106>
    7554:	00042a03          	lw	s4,0(s0)
    7558:	4581                	li	a1,0
    755a:	854a                	mv	a0,s2
    755c:	9a22                	add	s4,s4,s0
    755e:	20fd                	jal	764c <_sbrk_r>
    7560:	08aa1c63          	bne	s4,a0,75f8 <_malloc_r+0x106>
    7564:	401c                	lw	a5,0(s0)
    7566:	854a                	mv	a0,s2
    7568:	8c9d                	sub	s1,s1,a5
    756a:	85a6                	mv	a1,s1
    756c:	f37ff0ef          	jal	74a2 <sbrk_aligned>
    7570:	57fd                	li	a5,-1
    7572:	08f50363          	beq	a0,a5,75f8 <_malloc_r+0x106>
    7576:	401c                	lw	a5,0(s0)
    7578:	97a6                	add	a5,a5,s1
    757a:	c01c                	sw	a5,0(s0)
    757c:	8441a783          	lw	a5,-1980(gp) # 2000009c <__malloc_free_list>
    7580:	43d8                	lw	a4,4(a5)
    7582:	e725                	bnez	a4,75ea <_malloc_r+0xf8>
    7584:	8401a223          	sw	zero,-1980(gp) # 2000009c <__malloc_free_list>
    7588:	a015                	j	75ac <_malloc_r+0xba>
    758a:	4014                	lw	a3,0(s0)
    758c:	8e85                	sub	a3,a3,s1
    758e:	0406c863          	bltz	a3,75de <_malloc_r+0xec>
    7592:	472d                	li	a4,11
    7594:	02d77d63          	bgeu	a4,a3,75ce <_malloc_r+0xdc>
    7598:	c004                	sw	s1,0(s0)
    759a:	00940733          	add	a4,s0,s1
    759e:	02879663          	bne	a5,s0,75ca <_malloc_r+0xd8>
    75a2:	84e1a223          	sw	a4,-1980(gp) # 2000009c <__malloc_free_list>
    75a6:	405c                	lw	a5,4(s0)
    75a8:	c314                	sw	a3,0(a4)
    75aa:	c35c                	sw	a5,4(a4)
    75ac:	854a                	mv	a0,s2
    75ae:	28b1                	jal	760a <__malloc_unlock>
    75b0:	00b40513          	addi	a0,s0,11
    75b4:	00440793          	addi	a5,s0,4
    75b8:	9961                	andi	a0,a0,-8
    75ba:	40f50733          	sub	a4,a0,a5
    75be:	f6f500e3          	beq	a0,a5,751e <_malloc_r+0x2c>
    75c2:	943a                	add	s0,s0,a4
    75c4:	8f89                	sub	a5,a5,a0
    75c6:	c01c                	sw	a5,0(s0)
    75c8:	bf99                	j	751e <_malloc_r+0x2c>
    75ca:	c3d8                	sw	a4,4(a5)
    75cc:	bfe9                	j	75a6 <_malloc_r+0xb4>
    75ce:	4058                	lw	a4,4(s0)
    75d0:	00879563          	bne	a5,s0,75da <_malloc_r+0xe8>
    75d4:	84e1a223          	sw	a4,-1980(gp) # 2000009c <__malloc_free_list>
    75d8:	bfd1                	j	75ac <_malloc_r+0xba>
    75da:	c3d8                	sw	a4,4(a5)
    75dc:	bfc1                	j	75ac <_malloc_r+0xba>
    75de:	87a2                	mv	a5,s0
    75e0:	4040                	lw	s0,4(s0)
    75e2:	bf99                	j	7538 <_malloc_r+0x46>
    75e4:	843e                	mv	s0,a5
    75e6:	43dc                	lw	a5,4(a5)
    75e8:	b7a5                	j	7550 <_malloc_r+0x5e>
    75ea:	873e                	mv	a4,a5
    75ec:	43dc                	lw	a5,4(a5)
    75ee:	fe879ee3          	bne	a5,s0,75ea <_malloc_r+0xf8>
    75f2:	00072223          	sw	zero,4(a4) # 1000004 <_data_lma+0xff7900>
    75f6:	bf5d                	j	75ac <_malloc_r+0xba>
    75f8:	47b1                	li	a5,12
    75fa:	00f92023          	sw	a5,0(s2)
    75fe:	854a                	mv	a0,s2
    7600:	2029                	jal	760a <__malloc_unlock>
    7602:	bf29                	j	751c <_malloc_r+0x2a>
    7604:	c104                	sw	s1,0(a0)
    7606:	b75d                	j	75ac <_malloc_r+0xba>

00007608 <__malloc_lock>:
    7608:	8082                	ret

0000760a <__malloc_unlock>:
    760a:	8082                	ret

0000760c <iprintf>:
    760c:	7139                	addi	sp,sp,-64
    760e:	da3e                	sw	a5,52(sp)
    7610:	8101a783          	lw	a5,-2032(gp) # 20000068 <_impure_ptr>
    7614:	d432                	sw	a2,40(sp)
    7616:	d636                	sw	a3,44(sp)
    7618:	d22e                	sw	a1,36(sp)
    761a:	d83a                	sw	a4,48(sp)
    761c:	dc42                	sw	a6,56(sp)
    761e:	de46                	sw	a7,60(sp)
    7620:	478c                	lw	a1,8(a5)
    7622:	1054                	addi	a3,sp,36
    7624:	862a                	mv	a2,a0
    7626:	853e                	mv	a0,a5
    7628:	ce06                	sw	ra,28(sp)
    762a:	c636                	sw	a3,12(sp)
    762c:	2ab1                	jal	7788 <_vfiprintf_r>
    762e:	40f2                	lw	ra,28(sp)
    7630:	6121                	addi	sp,sp,64
    7632:	8082                	ret

00007634 <putchar>:
    7634:	85aa                	mv	a1,a0
    7636:	8101a503          	lw	a0,-2032(gp) # 20000068 <_impure_ptr>
    763a:	4510                	lw	a2,8(a0)
    763c:	08b0006f          	j	7ec6 <_putc_r>

00007640 <viprintf>:
    7640:	862a                	mv	a2,a0
    7642:	8101a503          	lw	a0,-2032(gp) # 20000068 <_impure_ptr>
    7646:	86ae                	mv	a3,a1
    7648:	450c                	lw	a1,8(a0)
    764a:	aa3d                	j	7788 <_vfiprintf_r>

0000764c <_sbrk_r>:
    764c:	1141                	addi	sp,sp,-16
    764e:	c422                	sw	s0,8(sp)
    7650:	c226                	sw	s1,4(sp)
    7652:	84aa                	mv	s1,a0
    7654:	852e                	mv	a0,a1
    7656:	c606                	sw	ra,12(sp)
    7658:	8401a623          	sw	zero,-1972(gp) # 200000a4 <errno>
    765c:	667000ef          	jal	84c2 <_sbrk>
    7660:	57fd                	li	a5,-1
    7662:	00f51663          	bne	a0,a5,766e <_sbrk_r+0x22>
    7666:	84c1a783          	lw	a5,-1972(gp) # 200000a4 <errno>
    766a:	c391                	beqz	a5,766e <_sbrk_r+0x22>
    766c:	c09c                	sw	a5,0(s1)
    766e:	40b2                	lw	ra,12(sp)
    7670:	4422                	lw	s0,8(sp)
    7672:	4492                	lw	s1,4(sp)
    7674:	0141                	addi	sp,sp,16
    7676:	8082                	ret

00007678 <_free_r>:
    7678:	c1c5                	beqz	a1,7718 <_free_r+0xa0>
    767a:	ffc5a783          	lw	a5,-4(a1)
    767e:	1101                	addi	sp,sp,-32
    7680:	cc22                	sw	s0,24(sp)
    7682:	ce06                	sw	ra,28(sp)
    7684:	ffc58413          	addi	s0,a1,-4
    7688:	0007d363          	bgez	a5,768e <_free_r+0x16>
    768c:	943e                	add	s0,s0,a5
    768e:	c62a                	sw	a0,12(sp)
    7690:	f79ff0ef          	jal	7608 <__malloc_lock>
    7694:	8441a783          	lw	a5,-1980(gp) # 2000009c <__malloc_free_list>
    7698:	4532                	lw	a0,12(sp)
    769a:	eb91                	bnez	a5,76ae <_free_r+0x36>
    769c:	00042223          	sw	zero,4(s0)
    76a0:	8481a223          	sw	s0,-1980(gp) # 2000009c <__malloc_free_list>
    76a4:	4462                	lw	s0,24(sp)
    76a6:	40f2                	lw	ra,28(sp)
    76a8:	6105                	addi	sp,sp,32
    76aa:	f61ff06f          	j	760a <__malloc_unlock>
    76ae:	00f47d63          	bgeu	s0,a5,76c8 <_free_r+0x50>
    76b2:	4010                	lw	a2,0(s0)
    76b4:	00c406b3          	add	a3,s0,a2
    76b8:	00d79663          	bne	a5,a3,76c4 <_free_r+0x4c>
    76bc:	4394                	lw	a3,0(a5)
    76be:	43dc                	lw	a5,4(a5)
    76c0:	96b2                	add	a3,a3,a2
    76c2:	c014                	sw	a3,0(s0)
    76c4:	c05c                	sw	a5,4(s0)
    76c6:	bfe9                	j	76a0 <_free_r+0x28>
    76c8:	873e                	mv	a4,a5
    76ca:	43dc                	lw	a5,4(a5)
    76cc:	c399                	beqz	a5,76d2 <_free_r+0x5a>
    76ce:	fef47de3          	bgeu	s0,a5,76c8 <_free_r+0x50>
    76d2:	4314                	lw	a3,0(a4)
    76d4:	00d70633          	add	a2,a4,a3
    76d8:	00861f63          	bne	a2,s0,76f6 <_free_r+0x7e>
    76dc:	4010                	lw	a2,0(s0)
    76de:	96b2                	add	a3,a3,a2
    76e0:	c314                	sw	a3,0(a4)
    76e2:	00d70633          	add	a2,a4,a3
    76e6:	fac79fe3          	bne	a5,a2,76a4 <_free_r+0x2c>
    76ea:	4390                	lw	a2,0(a5)
    76ec:	43dc                	lw	a5,4(a5)
    76ee:	96b2                	add	a3,a3,a2
    76f0:	c314                	sw	a3,0(a4)
    76f2:	c35c                	sw	a5,4(a4)
    76f4:	bf45                	j	76a4 <_free_r+0x2c>
    76f6:	00c47563          	bgeu	s0,a2,7700 <_free_r+0x88>
    76fa:	47b1                	li	a5,12
    76fc:	c11c                	sw	a5,0(a0)
    76fe:	b75d                	j	76a4 <_free_r+0x2c>
    7700:	4010                	lw	a2,0(s0)
    7702:	00c406b3          	add	a3,s0,a2
    7706:	00d79663          	bne	a5,a3,7712 <_free_r+0x9a>
    770a:	4394                	lw	a3,0(a5)
    770c:	43dc                	lw	a5,4(a5)
    770e:	96b2                	add	a3,a3,a2
    7710:	c014                	sw	a3,0(s0)
    7712:	c05c                	sw	a5,4(s0)
    7714:	c340                	sw	s0,4(a4)
    7716:	b779                	j	76a4 <_free_r+0x2c>
    7718:	8082                	ret

0000771a <__sfputc_r>:
    771a:	461c                	lw	a5,8(a2)
    771c:	17fd                	addi	a5,a5,-1
    771e:	c61c                	sw	a5,8(a2)
    7720:	0007da63          	bgez	a5,7734 <__sfputc_r+0x1a>
    7724:	4e18                	lw	a4,24(a2)
    7726:	00e7c563          	blt	a5,a4,7730 <__sfputc_r+0x16>
    772a:	ff658793          	addi	a5,a1,-10
    772e:	e399                	bnez	a5,7734 <__sfputc_r+0x1a>
    7730:	0ab0006f          	j	7fda <__swbuf_r>
    7734:	421c                	lw	a5,0(a2)
    7736:	852e                	mv	a0,a1
    7738:	00178713          	addi	a4,a5,1
    773c:	c218                	sw	a4,0(a2)
    773e:	00b78023          	sb	a1,0(a5)
    7742:	8082                	ret

00007744 <__sfputs_r>:
    7744:	1101                	addi	sp,sp,-32
    7746:	cc22                	sw	s0,24(sp)
    7748:	ca26                	sw	s1,20(sp)
    774a:	c84a                	sw	s2,16(sp)
    774c:	c64e                	sw	s3,12(sp)
    774e:	c452                	sw	s4,8(sp)
    7750:	ce06                	sw	ra,28(sp)
    7752:	89aa                	mv	s3,a0
    7754:	8a2e                	mv	s4,a1
    7756:	8432                	mv	s0,a2
    7758:	00d604b3          	add	s1,a2,a3
    775c:	597d                	li	s2,-1
    775e:	00941463          	bne	s0,s1,7766 <__sfputs_r+0x22>
    7762:	4501                	li	a0,0
    7764:	a811                	j	7778 <__sfputs_r+0x34>
    7766:	00044583          	lbu	a1,0(s0)
    776a:	8652                	mv	a2,s4
    776c:	854e                	mv	a0,s3
    776e:	fadff0ef          	jal	771a <__sfputc_r>
    7772:	0405                	addi	s0,s0,1
    7774:	ff2515e3          	bne	a0,s2,775e <__sfputs_r+0x1a>
    7778:	40f2                	lw	ra,28(sp)
    777a:	4462                	lw	s0,24(sp)
    777c:	44d2                	lw	s1,20(sp)
    777e:	4942                	lw	s2,16(sp)
    7780:	49b2                	lw	s3,12(sp)
    7782:	4a22                	lw	s4,8(sp)
    7784:	6105                	addi	sp,sp,32
    7786:	8082                	ret

00007788 <_vfiprintf_r>:
    7788:	7171                	addi	sp,sp,-176
    778a:	d522                	sw	s0,168(sp)
    778c:	d326                	sw	s1,164(sp)
    778e:	cf4e                	sw	s3,156(sp)
    7790:	cd52                	sw	s4,152(sp)
    7792:	d706                	sw	ra,172(sp)
    7794:	d14a                	sw	s2,160(sp)
    7796:	cb56                	sw	s5,148(sp)
    7798:	c95a                	sw	s6,144(sp)
    779a:	c75e                	sw	s7,140(sp)
    779c:	c562                	sw	s8,136(sp)
    779e:	c366                	sw	s9,132(sp)
    77a0:	89aa                	mv	s3,a0
    77a2:	84ae                	mv	s1,a1
    77a4:	8432                	mv	s0,a2
    77a6:	8a36                	mv	s4,a3
    77a8:	c501                	beqz	a0,77b0 <_vfiprintf_r+0x28>
    77aa:	511c                	lw	a5,32(a0)
    77ac:	e391                	bnez	a5,77b0 <_vfiprintf_r+0x28>
    77ae:	2545                	jal	7e4e <__sinit>
    77b0:	00c4d783          	lhu	a5,12(s1)
    77b4:	8ba1                	andi	a5,a5,8
    77b6:	c7f9                	beqz	a5,7884 <_vfiprintf_r+0xfc>
    77b8:	489c                	lw	a5,16(s1)
    77ba:	c7e9                	beqz	a5,7884 <_vfiprintf_r+0xfc>
    77bc:	02000793          	li	a5,32
    77c0:	02f10ca3          	sb	a5,57(sp)
    77c4:	ce52                	sw	s4,28(sp)
    77c6:	03000793          	li	a5,48
    77ca:	6a21                	lui	s4,0x8
    77cc:	da02                	sw	zero,52(sp)
    77ce:	02f10d23          	sb	a5,58(sp)
    77d2:	5afd                	li	s5,-1
    77d4:	560a0a13          	addi	s4,s4,1376 # 8560 <AHBPrescTable+0x70>
    77d8:	4b85                	li	s7,1
    77da:	4b29                	li	s6,10
    77dc:	8c22                	mv	s8,s0
    77de:	000c4783          	lbu	a5,0(s8)
    77e2:	00f03cb3          	snez	s9,a5
    77e6:	fdb78793          	addi	a5,a5,-37
    77ea:	00f037b3          	snez	a5,a5
    77ee:	00fcfcb3          	and	s9,s9,a5
    77f2:	0a0c9c63          	bnez	s9,78aa <_vfiprintf_r+0x122>
    77f6:	408c06b3          	sub	a3,s8,s0
    77fa:	008c0e63          	beq	s8,s0,7816 <_vfiprintf_r+0x8e>
    77fe:	8622                	mv	a2,s0
    7800:	85a6                	mv	a1,s1
    7802:	854e                	mv	a0,s3
    7804:	c636                	sw	a3,12(sp)
    7806:	f3fff0ef          	jal	7744 <__sfputs_r>
    780a:	1b550a63          	beq	a0,s5,79be <_vfiprintf_r+0x236>
    780e:	57d2                	lw	a5,52(sp)
    7810:	46b2                	lw	a3,12(sp)
    7812:	97b6                	add	a5,a5,a3
    7814:	da3e                	sw	a5,52(sp)
    7816:	000c4783          	lbu	a5,0(s8)
    781a:	1a078263          	beqz	a5,79be <_vfiprintf_r+0x236>
    781e:	001c0413          	addi	s0,s8,1
    7822:	d002                	sw	zero,32(sp)
    7824:	d602                	sw	zero,44(sp)
    7826:	d256                	sw	s5,36(sp)
    7828:	d402                	sw	zero,40(sp)
    782a:	060101a3          	sb	zero,99(sp)
    782e:	dc82                	sw	zero,120(sp)
    7830:	00044583          	lbu	a1,0(s0)
    7834:	4615                	li	a2,5
    7836:	8552                	mv	a0,s4
    7838:	0f3000ef          	jal	812a <memchr>
    783c:	5782                	lw	a5,32(sp)
    783e:	00140693          	addi	a3,s0,1
    7842:	e535                	bnez	a0,78ae <_vfiprintf_r+0x126>
    7844:	0107f713          	andi	a4,a5,16
    7848:	c709                	beqz	a4,7852 <_vfiprintf_r+0xca>
    784a:	02000713          	li	a4,32
    784e:	06e101a3          	sb	a4,99(sp)
    7852:	0087f713          	andi	a4,a5,8
    7856:	c709                	beqz	a4,7860 <_vfiprintf_r+0xd8>
    7858:	02b00713          	li	a4,43
    785c:	06e101a3          	sb	a4,99(sp)
    7860:	00044603          	lbu	a2,0(s0)
    7864:	02a00713          	li	a4,42
    7868:	04e60b63          	beq	a2,a4,78be <_vfiprintf_r+0x136>
    786c:	57b2                	lw	a5,44(sp)
    786e:	4681                	li	a3,0
    7870:	4625                	li	a2,9
    7872:	00044703          	lbu	a4,0(s0)
    7876:	fd070713          	addi	a4,a4,-48
    787a:	08e67963          	bgeu	a2,a4,790c <_vfiprintf_r+0x184>
    787e:	caa9                	beqz	a3,78d0 <_vfiprintf_r+0x148>
    7880:	d63e                	sw	a5,44(sp)
    7882:	a0b9                	j	78d0 <_vfiprintf_r+0x148>
    7884:	85a6                	mv	a1,s1
    7886:	854e                	mv	a0,s3
    7888:	7e2000ef          	jal	806a <__swsetup_r>
    788c:	d905                	beqz	a0,77bc <_vfiprintf_r+0x34>
    788e:	557d                	li	a0,-1
    7890:	50ba                	lw	ra,172(sp)
    7892:	542a                	lw	s0,168(sp)
    7894:	549a                	lw	s1,164(sp)
    7896:	590a                	lw	s2,160(sp)
    7898:	49fa                	lw	s3,156(sp)
    789a:	4a6a                	lw	s4,152(sp)
    789c:	4ada                	lw	s5,148(sp)
    789e:	4b4a                	lw	s6,144(sp)
    78a0:	4bba                	lw	s7,140(sp)
    78a2:	4c2a                	lw	s8,136(sp)
    78a4:	4c9a                	lw	s9,132(sp)
    78a6:	614d                	addi	sp,sp,176
    78a8:	8082                	ret
    78aa:	0c05                	addi	s8,s8,1
    78ac:	bf0d                	j	77de <_vfiprintf_r+0x56>
    78ae:	41450533          	sub	a0,a0,s4
    78b2:	00ab9533          	sll	a0,s7,a0
    78b6:	8d5d                	or	a0,a0,a5
    78b8:	d02a                	sw	a0,32(sp)
    78ba:	8436                	mv	s0,a3
    78bc:	bf95                	j	7830 <_vfiprintf_r+0xa8>
    78be:	4772                	lw	a4,28(sp)
    78c0:	00470613          	addi	a2,a4,4
    78c4:	4318                	lw	a4,0(a4)
    78c6:	ce32                	sw	a2,28(sp)
    78c8:	02074b63          	bltz	a4,78fe <_vfiprintf_r+0x176>
    78cc:	d63a                	sw	a4,44(sp)
    78ce:	8436                	mv	s0,a3
    78d0:	00044703          	lbu	a4,0(s0)
    78d4:	02e00793          	li	a5,46
    78d8:	04f71c63          	bne	a4,a5,7930 <_vfiprintf_r+0x1a8>
    78dc:	00144703          	lbu	a4,1(s0)
    78e0:	02a00793          	li	a5,42
    78e4:	02f71a63          	bne	a4,a5,7918 <_vfiprintf_r+0x190>
    78e8:	47f2                	lw	a5,28(sp)
    78ea:	0409                	addi	s0,s0,2
    78ec:	00478713          	addi	a4,a5,4
    78f0:	439c                	lw	a5,0(a5)
    78f2:	ce3a                	sw	a4,28(sp)
    78f4:	0007d363          	bgez	a5,78fa <_vfiprintf_r+0x172>
    78f8:	57fd                	li	a5,-1
    78fa:	d23e                	sw	a5,36(sp)
    78fc:	a815                	j	7930 <_vfiprintf_r+0x1a8>
    78fe:	40e00733          	neg	a4,a4
    7902:	0027e793          	ori	a5,a5,2
    7906:	d63a                	sw	a4,44(sp)
    7908:	d03e                	sw	a5,32(sp)
    790a:	b7d1                	j	78ce <_vfiprintf_r+0x146>
    790c:	036787b3          	mul	a5,a5,s6
    7910:	0405                	addi	s0,s0,1
    7912:	4685                	li	a3,1
    7914:	97ba                	add	a5,a5,a4
    7916:	bfb1                	j	7872 <_vfiprintf_r+0xea>
    7918:	0405                	addi	s0,s0,1
    791a:	d202                	sw	zero,36(sp)
    791c:	4781                	li	a5,0
    791e:	46a5                	li	a3,9
    7920:	00044703          	lbu	a4,0(s0)
    7924:	fd070713          	addi	a4,a4,-48
    7928:	06e6f363          	bgeu	a3,a4,798e <_vfiprintf_r+0x206>
    792c:	fc0c97e3          	bnez	s9,78fa <_vfiprintf_r+0x172>
    7930:	00044583          	lbu	a1,0(s0)
    7934:	6c21                	lui	s8,0x8
    7936:	460d                	li	a2,3
    7938:	568c0513          	addi	a0,s8,1384 # 8568 <AHBPrescTable+0x78>
    793c:	7ee000ef          	jal	812a <memchr>
    7940:	cd09                	beqz	a0,795a <_vfiprintf_r+0x1d2>
    7942:	5782                	lw	a5,32(sp)
    7944:	568c0c13          	addi	s8,s8,1384
    7948:	41850533          	sub	a0,a0,s8
    794c:	04000713          	li	a4,64
    7950:	00a71733          	sll	a4,a4,a0
    7954:	8fd9                	or	a5,a5,a4
    7956:	0405                	addi	s0,s0,1
    7958:	d03e                	sw	a5,32(sp)
    795a:	00044583          	lbu	a1,0(s0)
    795e:	6521                	lui	a0,0x8
    7960:	4619                	li	a2,6
    7962:	56c50513          	addi	a0,a0,1388 # 856c <AHBPrescTable+0x7c>
    7966:	02b10c23          	sb	a1,56(sp)
    796a:	7c0000ef          	jal	812a <memchr>
    796e:	c125                	beqz	a0,79ce <_vfiprintf_r+0x246>
    7970:	00000793          	li	a5,0
    7974:	e79d                	bnez	a5,79a2 <_vfiprintf_r+0x21a>
    7976:	5702                	lw	a4,32(sp)
    7978:	47f2                	lw	a5,28(sp)
    797a:	10077713          	andi	a4,a4,256
    797e:	cf11                	beqz	a4,799a <_vfiprintf_r+0x212>
    7980:	0791                	addi	a5,a5,4
    7982:	ce3e                	sw	a5,28(sp)
    7984:	57d2                	lw	a5,52(sp)
    7986:	0405                	addi	s0,s0,1
    7988:	97ca                	add	a5,a5,s2
    798a:	da3e                	sw	a5,52(sp)
    798c:	bd81                	j	77dc <_vfiprintf_r+0x54>
    798e:	036787b3          	mul	a5,a5,s6
    7992:	0405                	addi	s0,s0,1
    7994:	4c85                	li	s9,1
    7996:	97ba                	add	a5,a5,a4
    7998:	b761                	j	7920 <_vfiprintf_r+0x198>
    799a:	079d                	addi	a5,a5,7
    799c:	9be1                	andi	a5,a5,-8
    799e:	07a1                	addi	a5,a5,8
    79a0:	b7cd                	j	7982 <_vfiprintf_r+0x1fa>
    79a2:	669d                	lui	a3,0x7
    79a4:	0878                	addi	a4,sp,28
    79a6:	74468693          	addi	a3,a3,1860 # 7744 <__sfputs_r>
    79aa:	8626                	mv	a2,s1
    79ac:	100c                	addi	a1,sp,32
    79ae:	854e                	mv	a0,s3
    79b0:	00000097          	auipc	ra,0x0
    79b4:	000000e7          	jalr	zero # 0 <_sinit>
    79b8:	892a                	mv	s2,a0
    79ba:	fd5515e3          	bne	a0,s5,7984 <_vfiprintf_r+0x1fc>
    79be:	00c4d783          	lhu	a5,12(s1)
    79c2:	0407f793          	andi	a5,a5,64
    79c6:	ec0794e3          	bnez	a5,788e <_vfiprintf_r+0x106>
    79ca:	5552                	lw	a0,52(sp)
    79cc:	b5d1                	j	7890 <_vfiprintf_r+0x108>
    79ce:	669d                	lui	a3,0x7
    79d0:	0878                	addi	a4,sp,28
    79d2:	74468693          	addi	a3,a3,1860 # 7744 <__sfputs_r>
    79d6:	8626                	mv	a2,s1
    79d8:	100c                	addi	a1,sp,32
    79da:	854e                	mv	a0,s3
    79dc:	2a19                	jal	7af2 <_printf_i>
    79de:	bfe9                	j	79b8 <_vfiprintf_r+0x230>

000079e0 <_printf_common>:
    79e0:	7179                	addi	sp,sp,-48
    79e2:	ce4e                	sw	s3,28(sp)
    79e4:	499c                	lw	a5,16(a1)
    79e6:	89ba                	mv	s3,a4
    79e8:	4598                	lw	a4,8(a1)
    79ea:	d422                	sw	s0,40(sp)
    79ec:	d04a                	sw	s2,32(sp)
    79ee:	c85a                	sw	s6,16(sp)
    79f0:	c65e                	sw	s7,12(sp)
    79f2:	d606                	sw	ra,44(sp)
    79f4:	d226                	sw	s1,36(sp)
    79f6:	cc52                	sw	s4,24(sp)
    79f8:	ca56                	sw	s5,20(sp)
    79fa:	8b2a                	mv	s6,a0
    79fc:	842e                	mv	s0,a1
    79fe:	8932                	mv	s2,a2
    7a00:	8bb6                	mv	s7,a3
    7a02:	00e7d363          	bge	a5,a4,7a08 <_printf_common+0x28>
    7a06:	87ba                	mv	a5,a4
    7a08:	00f92023          	sw	a5,0(s2)
    7a0c:	04344703          	lbu	a4,67(s0)
    7a10:	c701                	beqz	a4,7a18 <_printf_common+0x38>
    7a12:	0785                	addi	a5,a5,1
    7a14:	00f92023          	sw	a5,0(s2)
    7a18:	401c                	lw	a5,0(s0)
    7a1a:	0207f793          	andi	a5,a5,32
    7a1e:	c791                	beqz	a5,7a2a <_printf_common+0x4a>
    7a20:	00092783          	lw	a5,0(s2)
    7a24:	0789                	addi	a5,a5,2
    7a26:	00f92023          	sw	a5,0(s2)
    7a2a:	4004                	lw	s1,0(s0)
    7a2c:	8899                	andi	s1,s1,6
    7a2e:	e891                	bnez	s1,7a42 <_printf_common+0x62>
    7a30:	01940a13          	addi	s4,s0,25
    7a34:	5afd                	li	s5,-1
    7a36:	445c                	lw	a5,12(s0)
    7a38:	00092703          	lw	a4,0(s2)
    7a3c:	8f99                	sub	a5,a5,a4
    7a3e:	04f4cd63          	blt	s1,a5,7a98 <_printf_common+0xb8>
    7a42:	401c                	lw	a5,0(s0)
    7a44:	04344683          	lbu	a3,67(s0)
    7a48:	0207f793          	andi	a5,a5,32
    7a4c:	00d036b3          	snez	a3,a3
    7a50:	ebad                	bnez	a5,7ac2 <_printf_common+0xe2>
    7a52:	04340613          	addi	a2,s0,67
    7a56:	85de                	mv	a1,s7
    7a58:	855a                	mv	a0,s6
    7a5a:	9982                	jalr	s3
    7a5c:	57fd                	li	a5,-1
    7a5e:	04f50463          	beq	a0,a5,7aa6 <_printf_common+0xc6>
    7a62:	401c                	lw	a5,0(s0)
    7a64:	4711                	li	a4,4
    7a66:	4481                	li	s1,0
    7a68:	8b99                	andi	a5,a5,6
    7a6a:	00e79a63          	bne	a5,a4,7a7e <_printf_common+0x9e>
    7a6e:	00092783          	lw	a5,0(s2)
    7a72:	4444                	lw	s1,12(s0)
    7a74:	8c9d                	sub	s1,s1,a5
    7a76:	fff4c793          	not	a5,s1
    7a7a:	87fd                	srai	a5,a5,0x1f
    7a7c:	8cfd                	and	s1,s1,a5
    7a7e:	441c                	lw	a5,8(s0)
    7a80:	4818                	lw	a4,16(s0)
    7a82:	00f75463          	bge	a4,a5,7a8a <_printf_common+0xaa>
    7a86:	8f99                	sub	a5,a5,a4
    7a88:	94be                	add	s1,s1,a5
    7a8a:	4901                	li	s2,0
    7a8c:	0469                	addi	s0,s0,26
    7a8e:	5a7d                	li	s4,-1
    7a90:	05249863          	bne	s1,s2,7ae0 <_printf_common+0x100>
    7a94:	4501                	li	a0,0
    7a96:	a809                	j	7aa8 <_printf_common+0xc8>
    7a98:	4685                	li	a3,1
    7a9a:	8652                	mv	a2,s4
    7a9c:	85de                	mv	a1,s7
    7a9e:	855a                	mv	a0,s6
    7aa0:	9982                	jalr	s3
    7aa2:	01551e63          	bne	a0,s5,7abe <_printf_common+0xde>
    7aa6:	557d                	li	a0,-1
    7aa8:	50b2                	lw	ra,44(sp)
    7aaa:	5422                	lw	s0,40(sp)
    7aac:	5492                	lw	s1,36(sp)
    7aae:	5902                	lw	s2,32(sp)
    7ab0:	49f2                	lw	s3,28(sp)
    7ab2:	4a62                	lw	s4,24(sp)
    7ab4:	4ad2                	lw	s5,20(sp)
    7ab6:	4b42                	lw	s6,16(sp)
    7ab8:	4bb2                	lw	s7,12(sp)
    7aba:	6145                	addi	sp,sp,48
    7abc:	8082                	ret
    7abe:	0485                	addi	s1,s1,1
    7ac0:	bf9d                	j	7a36 <_printf_common+0x56>
    7ac2:	00d40733          	add	a4,s0,a3
    7ac6:	03000613          	li	a2,48
    7aca:	04c701a3          	sb	a2,67(a4)
    7ace:	04544703          	lbu	a4,69(s0)
    7ad2:	00168793          	addi	a5,a3,1
    7ad6:	97a2                	add	a5,a5,s0
    7ad8:	0689                	addi	a3,a3,2
    7ada:	04e781a3          	sb	a4,67(a5)
    7ade:	bf95                	j	7a52 <_printf_common+0x72>
    7ae0:	4685                	li	a3,1
    7ae2:	8622                	mv	a2,s0
    7ae4:	85de                	mv	a1,s7
    7ae6:	855a                	mv	a0,s6
    7ae8:	9982                	jalr	s3
    7aea:	fb450ee3          	beq	a0,s4,7aa6 <_printf_common+0xc6>
    7aee:	0905                	addi	s2,s2,1
    7af0:	b745                	j	7a90 <_printf_common+0xb0>

00007af2 <_printf_i>:
    7af2:	7139                	addi	sp,sp,-64
    7af4:	dc22                	sw	s0,56(sp)
    7af6:	da26                	sw	s1,52(sp)
    7af8:	d452                	sw	s4,40(sp)
    7afa:	d256                	sw	s5,36(sp)
    7afc:	de06                	sw	ra,60(sp)
    7afe:	d84a                	sw	s2,48(sp)
    7b00:	d64e                	sw	s3,44(sp)
    7b02:	0185c783          	lbu	a5,24(a1)
    7b06:	84b6                	mv	s1,a3
    7b08:	07800693          	li	a3,120
    7b0c:	8a2a                	mv	s4,a0
    7b0e:	842e                	mv	s0,a1
    7b10:	8ab2                	mv	s5,a2
    7b12:	00f6ee63          	bltu	a3,a5,7b2e <_printf_i+0x3c>
    7b16:	06200693          	li	a3,98
    7b1a:	04358613          	addi	a2,a1,67
    7b1e:	00f6eb63          	bltu	a3,a5,7b34 <_printf_i+0x42>
    7b22:	1a078963          	beqz	a5,7cd4 <_printf_i+0x1e2>
    7b26:	05800693          	li	a3,88
    7b2a:	16d78663          	beq	a5,a3,7c96 <_printf_i+0x1a4>
    7b2e:	04240913          	addi	s2,s0,66
    7b32:	a035                	j	7b5e <_printf_i+0x6c>
    7b34:	f9d78693          	addi	a3,a5,-99
    7b38:	0ff6f693          	zext.b	a3,a3
    7b3c:	45d5                	li	a1,21
    7b3e:	fed5e8e3          	bltu	a1,a3,7b2e <_printf_i+0x3c>
    7b42:	65a1                	lui	a1,0x8
    7b44:	068a                	slli	a3,a3,0x2
    7b46:	69c58593          	addi	a1,a1,1692 # 869c <__clz_tab+0x100>
    7b4a:	96ae                	add	a3,a3,a1
    7b4c:	4294                	lw	a3,0(a3)
    7b4e:	8682                	jr	a3
    7b50:	431c                	lw	a5,0(a4)
    7b52:	04240913          	addi	s2,s0,66
    7b56:	00478693          	addi	a3,a5,4
    7b5a:	439c                	lw	a5,0(a5)
    7b5c:	c314                	sw	a3,0(a4)
    7b5e:	04f40123          	sb	a5,66(s0)
    7b62:	4785                	li	a5,1
    7b64:	aa59                	j	7cfa <_printf_i+0x208>
    7b66:	401c                	lw	a5,0(s0)
    7b68:	4308                	lw	a0,0(a4)
    7b6a:	0807f693          	andi	a3,a5,128
    7b6e:	00450593          	addi	a1,a0,4
    7b72:	c285                	beqz	a3,7b92 <_printf_i+0xa0>
    7b74:	411c                	lw	a5,0(a0)
    7b76:	c30c                	sw	a1,0(a4)
    7b78:	66a1                	lui	a3,0x8
    7b7a:	0007d863          	bgez	a5,7b8a <_printf_i+0x98>
    7b7e:	02d00713          	li	a4,45
    7b82:	40f007b3          	neg	a5,a5
    7b86:	04e401a3          	sb	a4,67(s0)
    7b8a:	57468693          	addi	a3,a3,1396 # 8574 <AHBPrescTable+0x84>
    7b8e:	4729                	li	a4,10
    7b90:	a091                	j	7bd4 <_printf_i+0xe2>
    7b92:	0407f693          	andi	a3,a5,64
    7b96:	411c                	lw	a5,0(a0)
    7b98:	c30c                	sw	a1,0(a4)
    7b9a:	def9                	beqz	a3,7b78 <_printf_i+0x86>
    7b9c:	07c2                	slli	a5,a5,0x10
    7b9e:	87c1                	srai	a5,a5,0x10
    7ba0:	bfe1                	j	7b78 <_printf_i+0x86>
    7ba2:	400c                	lw	a1,0(s0)
    7ba4:	4314                	lw	a3,0(a4)
    7ba6:	0805f513          	andi	a0,a1,128
    7baa:	429c                	lw	a5,0(a3)
    7bac:	0691                	addi	a3,a3,4
    7bae:	e511                	bnez	a0,7bba <_printf_i+0xc8>
    7bb0:	0405f593          	andi	a1,a1,64
    7bb4:	c199                	beqz	a1,7bba <_printf_i+0xc8>
    7bb6:	07c2                	slli	a5,a5,0x10
    7bb8:	83c1                	srli	a5,a5,0x10
    7bba:	c314                	sw	a3,0(a4)
    7bbc:	01844583          	lbu	a1,24(s0)
    7bc0:	66a1                	lui	a3,0x8
    7bc2:	06f00713          	li	a4,111
    7bc6:	57468693          	addi	a3,a3,1396 # 8574 <AHBPrescTable+0x84>
    7bca:	0ce59f63          	bne	a1,a4,7ca8 <_printf_i+0x1b6>
    7bce:	4721                	li	a4,8
    7bd0:	040401a3          	sb	zero,67(s0)
    7bd4:	404c                	lw	a1,4(s0)
    7bd6:	c40c                	sw	a1,8(s0)
    7bd8:	0005c863          	bltz	a1,7be8 <_printf_i+0xf6>
    7bdc:	4008                	lw	a0,0(s0)
    7bde:	8ddd                	or	a1,a1,a5
    7be0:	8932                	mv	s2,a2
    7be2:	996d                	andi	a0,a0,-5
    7be4:	c008                	sw	a0,0(s0)
    7be6:	cd99                	beqz	a1,7c04 <_printf_i+0x112>
    7be8:	8932                	mv	s2,a2
    7bea:	02e7f5b3          	remu	a1,a5,a4
    7bee:	197d                	addi	s2,s2,-1
    7bf0:	95b6                	add	a1,a1,a3
    7bf2:	0005c583          	lbu	a1,0(a1)
    7bf6:	00b90023          	sb	a1,0(s2)
    7bfa:	85be                	mv	a1,a5
    7bfc:	02e7d7b3          	divu	a5,a5,a4
    7c00:	fee5f5e3          	bgeu	a1,a4,7bea <_printf_i+0xf8>
    7c04:	47a1                	li	a5,8
    7c06:	00f71e63          	bne	a4,a5,7c22 <_printf_i+0x130>
    7c0a:	401c                	lw	a5,0(s0)
    7c0c:	8b85                	andi	a5,a5,1
    7c0e:	cb91                	beqz	a5,7c22 <_printf_i+0x130>
    7c10:	4058                	lw	a4,4(s0)
    7c12:	481c                	lw	a5,16(s0)
    7c14:	00e7c763          	blt	a5,a4,7c22 <_printf_i+0x130>
    7c18:	03000793          	li	a5,48
    7c1c:	fef90fa3          	sb	a5,-1(s2)
    7c20:	197d                	addi	s2,s2,-1
    7c22:	41260633          	sub	a2,a2,s2
    7c26:	c810                	sw	a2,16(s0)
    7c28:	8726                	mv	a4,s1
    7c2a:	86d6                	mv	a3,s5
    7c2c:	0870                	addi	a2,sp,28
    7c2e:	85a2                	mv	a1,s0
    7c30:	8552                	mv	a0,s4
    7c32:	dafff0ef          	jal	79e0 <_printf_common>
    7c36:	59fd                	li	s3,-1
    7c38:	0d351563          	bne	a0,s3,7d02 <_printf_i+0x210>
    7c3c:	557d                	li	a0,-1
    7c3e:	50f2                	lw	ra,60(sp)
    7c40:	5462                	lw	s0,56(sp)
    7c42:	54d2                	lw	s1,52(sp)
    7c44:	5942                	lw	s2,48(sp)
    7c46:	59b2                	lw	s3,44(sp)
    7c48:	5a22                	lw	s4,40(sp)
    7c4a:	5a92                	lw	s5,36(sp)
    7c4c:	6121                	addi	sp,sp,64
    7c4e:	8082                	ret
    7c50:	401c                	lw	a5,0(s0)
    7c52:	0207e793          	ori	a5,a5,32
    7c56:	c01c                	sw	a5,0(s0)
    7c58:	66a1                	lui	a3,0x8
    7c5a:	07800793          	li	a5,120
    7c5e:	58868693          	addi	a3,a3,1416 # 8588 <AHBPrescTable+0x98>
    7c62:	04f402a3          	sb	a5,69(s0)
    7c66:	400c                	lw	a1,0(s0)
    7c68:	4308                	lw	a0,0(a4)
    7c6a:	0805f813          	andi	a6,a1,128
    7c6e:	411c                	lw	a5,0(a0)
    7c70:	0511                	addi	a0,a0,4
    7c72:	00081863          	bnez	a6,7c82 <_printf_i+0x190>
    7c76:	0405f813          	andi	a6,a1,64
    7c7a:	00080463          	beqz	a6,7c82 <_printf_i+0x190>
    7c7e:	07c2                	slli	a5,a5,0x10
    7c80:	83c1                	srli	a5,a5,0x10
    7c82:	c308                	sw	a0,0(a4)
    7c84:	0015f713          	andi	a4,a1,1
    7c88:	c701                	beqz	a4,7c90 <_printf_i+0x19e>
    7c8a:	0205e593          	ori	a1,a1,32
    7c8e:	c00c                	sw	a1,0(s0)
    7c90:	c799                	beqz	a5,7c9e <_printf_i+0x1ac>
    7c92:	4741                	li	a4,16
    7c94:	bf35                	j	7bd0 <_printf_i+0xde>
    7c96:	66a1                	lui	a3,0x8
    7c98:	57468693          	addi	a3,a3,1396 # 8574 <AHBPrescTable+0x84>
    7c9c:	b7d9                	j	7c62 <_printf_i+0x170>
    7c9e:	4018                	lw	a4,0(s0)
    7ca0:	fdf77713          	andi	a4,a4,-33
    7ca4:	c018                	sw	a4,0(s0)
    7ca6:	b7f5                	j	7c92 <_printf_i+0x1a0>
    7ca8:	4729                	li	a4,10
    7caa:	b71d                	j	7bd0 <_printf_i+0xde>
    7cac:	4014                	lw	a3,0(s0)
    7cae:	431c                	lw	a5,0(a4)
    7cb0:	484c                	lw	a1,20(s0)
    7cb2:	0806f813          	andi	a6,a3,128
    7cb6:	00478513          	addi	a0,a5,4
    7cba:	00080663          	beqz	a6,7cc6 <_printf_i+0x1d4>
    7cbe:	c308                	sw	a0,0(a4)
    7cc0:	439c                	lw	a5,0(a5)
    7cc2:	c38c                	sw	a1,0(a5)
    7cc4:	a801                	j	7cd4 <_printf_i+0x1e2>
    7cc6:	c308                	sw	a0,0(a4)
    7cc8:	0406f693          	andi	a3,a3,64
    7ccc:	439c                	lw	a5,0(a5)
    7cce:	daf5                	beqz	a3,7cc2 <_printf_i+0x1d0>
    7cd0:	00b79023          	sh	a1,0(a5)
    7cd4:	00042823          	sw	zero,16(s0)
    7cd8:	8932                	mv	s2,a2
    7cda:	b7b9                	j	7c28 <_printf_i+0x136>
    7cdc:	431c                	lw	a5,0(a4)
    7cde:	4050                	lw	a2,4(s0)
    7ce0:	4581                	li	a1,0
    7ce2:	00478693          	addi	a3,a5,4
    7ce6:	c314                	sw	a3,0(a4)
    7ce8:	0007a903          	lw	s2,0(a5)
    7cec:	854a                	mv	a0,s2
    7cee:	2935                	jal	812a <memchr>
    7cf0:	c501                	beqz	a0,7cf8 <_printf_i+0x206>
    7cf2:	41250533          	sub	a0,a0,s2
    7cf6:	c048                	sw	a0,4(s0)
    7cf8:	405c                	lw	a5,4(s0)
    7cfa:	c81c                	sw	a5,16(s0)
    7cfc:	040401a3          	sb	zero,67(s0)
    7d00:	b725                	j	7c28 <_printf_i+0x136>
    7d02:	4814                	lw	a3,16(s0)
    7d04:	864a                	mv	a2,s2
    7d06:	85d6                	mv	a1,s5
    7d08:	8552                	mv	a0,s4
    7d0a:	9482                	jalr	s1
    7d0c:	f33508e3          	beq	a0,s3,7c3c <_printf_i+0x14a>
    7d10:	401c                	lw	a5,0(s0)
    7d12:	8b89                	andi	a5,a5,2
    7d14:	e795                	bnez	a5,7d40 <_printf_i+0x24e>
    7d16:	47f2                	lw	a5,28(sp)
    7d18:	4448                	lw	a0,12(s0)
    7d1a:	f2f552e3          	bge	a0,a5,7c3e <_printf_i+0x14c>
    7d1e:	853e                	mv	a0,a5
    7d20:	bf39                	j	7c3e <_printf_i+0x14c>
    7d22:	4685                	li	a3,1
    7d24:	85d6                	mv	a1,s5
    7d26:	8552                	mv	a0,s4
    7d28:	c632                	sw	a2,12(sp)
    7d2a:	9482                	jalr	s1
    7d2c:	f13508e3          	beq	a0,s3,7c3c <_printf_i+0x14a>
    7d30:	4632                	lw	a2,12(sp)
    7d32:	0905                	addi	s2,s2,1
    7d34:	445c                	lw	a5,12(s0)
    7d36:	4772                	lw	a4,28(sp)
    7d38:	8f99                	sub	a5,a5,a4
    7d3a:	fef944e3          	blt	s2,a5,7d22 <_printf_i+0x230>
    7d3e:	bfe1                	j	7d16 <_printf_i+0x224>
    7d40:	4901                	li	s2,0
    7d42:	01940613          	addi	a2,s0,25
    7d46:	b7fd                	j	7d34 <_printf_i+0x242>

00007d48 <std>:
    7d48:	1141                	addi	sp,sp,-16
    7d4a:	c422                	sw	s0,8(sp)
    7d4c:	c606                	sw	ra,12(sp)
    7d4e:	842a                	mv	s0,a0
    7d50:	00b51623          	sh	a1,12(a0)
    7d54:	00c51723          	sh	a2,14(a0)
    7d58:	00052023          	sw	zero,0(a0)
    7d5c:	00052223          	sw	zero,4(a0)
    7d60:	00052423          	sw	zero,8(a0)
    7d64:	06052223          	sw	zero,100(a0)
    7d68:	00052823          	sw	zero,16(a0)
    7d6c:	00052a23          	sw	zero,20(a0)
    7d70:	00052c23          	sw	zero,24(a0)
    7d74:	4621                	li	a2,8
    7d76:	4581                	li	a1,0
    7d78:	05c50513          	addi	a0,a0,92
    7d7c:	ae8ff0ef          	jal	7064 <memset>
    7d80:	67a1                	lui	a5,0x8
    7d82:	f1c78793          	addi	a5,a5,-228 # 7f1c <__sread>
    7d86:	d05c                	sw	a5,36(s0)
    7d88:	67a1                	lui	a5,0x8
    7d8a:	f4c78793          	addi	a5,a5,-180 # 7f4c <__swrite>
    7d8e:	d41c                	sw	a5,40(s0)
    7d90:	67a1                	lui	a5,0x8
    7d92:	f9a78793          	addi	a5,a5,-102 # 7f9a <__sseek>
    7d96:	d45c                	sw	a5,44(s0)
    7d98:	67a1                	lui	a5,0x8
    7d9a:	fd478793          	addi	a5,a5,-44 # 7fd4 <__sclose>
    7d9e:	40b2                	lw	ra,12(sp)
    7da0:	d000                	sw	s0,32(s0)
    7da2:	d81c                	sw	a5,48(s0)
    7da4:	4422                	lw	s0,8(sp)
    7da6:	0141                	addi	sp,sp,16
    7da8:	8082                	ret

00007daa <stdio_exit_handler>:
    7daa:	20000637          	lui	a2,0x20000
    7dae:	65a1                	lui	a1,0x8
    7db0:	20000537          	lui	a0,0x20000
    7db4:	04c60613          	addi	a2,a2,76 # 2000004c <__sglue>
    7db8:	31e58593          	addi	a1,a1,798 # 831e <_fflush_r>
    7dbc:	00050513          	mv	a0,a0
    7dc0:	a05d                	j	7e66 <_fwalk_sglue>

00007dc2 <cleanup_stdio>:
    7dc2:	414c                	lw	a1,4(a0)
    7dc4:	1141                	addi	sp,sp,-16
    7dc6:	200037b7          	lui	a5,0x20003
    7dca:	c422                	sw	s0,8(sp)
    7dcc:	c606                	sw	ra,12(sp)
    7dce:	00078793          	mv	a5,a5
    7dd2:	842a                	mv	s0,a0
    7dd4:	00f58363          	beq	a1,a5,7dda <cleanup_stdio+0x18>
    7dd8:	2399                	jal	831e <_fflush_r>
    7dda:	440c                	lw	a1,8(s0)
    7ddc:	200037b7          	lui	a5,0x20003
    7de0:	06878793          	addi	a5,a5,104 # 20003068 <__sf+0x68>
    7de4:	00f58463          	beq	a1,a5,7dec <cleanup_stdio+0x2a>
    7de8:	8522                	mv	a0,s0
    7dea:	2b15                	jal	831e <_fflush_r>
    7dec:	444c                	lw	a1,12(s0)
    7dee:	200037b7          	lui	a5,0x20003
    7df2:	0d078793          	addi	a5,a5,208 # 200030d0 <__sf+0xd0>
    7df6:	00f58763          	beq	a1,a5,7e04 <cleanup_stdio+0x42>
    7dfa:	8522                	mv	a0,s0
    7dfc:	4422                	lw	s0,8(sp)
    7dfe:	40b2                	lw	ra,12(sp)
    7e00:	0141                	addi	sp,sp,16
    7e02:	ab31                	j	831e <_fflush_r>
    7e04:	40b2                	lw	ra,12(sp)
    7e06:	4422                	lw	s0,8(sp)
    7e08:	0141                	addi	sp,sp,16
    7e0a:	8082                	ret

00007e0c <global_stdio_init.part.0>:
    7e0c:	67a1                	lui	a5,0x8
    7e0e:	20003537          	lui	a0,0x20003
    7e12:	1141                	addi	sp,sp,-16
    7e14:	daa78793          	addi	a5,a5,-598 # 7daa <stdio_exit_handler>
    7e18:	4601                	li	a2,0
    7e1a:	4591                	li	a1,4
    7e1c:	00050513          	mv	a0,a0
    7e20:	c606                	sw	ra,12(sp)
    7e22:	84f1a423          	sw	a5,-1976(gp) # 200000a0 <__stdio_exit_handler>
    7e26:	f23ff0ef          	jal	7d48 <std>
    7e2a:	20003537          	lui	a0,0x20003
    7e2e:	4605                	li	a2,1
    7e30:	45a5                	li	a1,9
    7e32:	06850513          	addi	a0,a0,104 # 20003068 <__sf+0x68>
    7e36:	f13ff0ef          	jal	7d48 <std>
    7e3a:	40b2                	lw	ra,12(sp)
    7e3c:	20003537          	lui	a0,0x20003
    7e40:	4609                	li	a2,2
    7e42:	45c9                	li	a1,18
    7e44:	0d050513          	addi	a0,a0,208 # 200030d0 <__sf+0xd0>
    7e48:	0141                	addi	sp,sp,16
    7e4a:	effff06f          	j	7d48 <std>

00007e4e <__sinit>:
    7e4e:	511c                	lw	a5,32(a0)
    7e50:	eb91                	bnez	a5,7e64 <__sinit+0x16>
    7e52:	67a1                	lui	a5,0x8
    7e54:	dc278793          	addi	a5,a5,-574 # 7dc2 <cleanup_stdio>
    7e58:	d11c                	sw	a5,32(a0)
    7e5a:	8481a783          	lw	a5,-1976(gp) # 200000a0 <__stdio_exit_handler>
    7e5e:	e399                	bnez	a5,7e64 <__sinit+0x16>
    7e60:	fadff06f          	j	7e0c <global_stdio_init.part.0>
    7e64:	8082                	ret

00007e66 <_fwalk_sglue>:
    7e66:	7179                	addi	sp,sp,-48
    7e68:	d422                	sw	s0,40(sp)
    7e6a:	d04a                	sw	s2,32(sp)
    7e6c:	ce4e                	sw	s3,28(sp)
    7e6e:	cc52                	sw	s4,24(sp)
    7e70:	ca56                	sw	s5,20(sp)
    7e72:	d606                	sw	ra,44(sp)
    7e74:	d226                	sw	s1,36(sp)
    7e76:	8a2a                	mv	s4,a0
    7e78:	8aae                	mv	s5,a1
    7e7a:	4401                	li	s0,0
    7e7c:	4905                	li	s2,1
    7e7e:	59fd                	li	s3,-1
    7e80:	460c                	lw	a1,8(a2)
    7e82:	4244                	lw	s1,4(a2)
    7e84:	14fd                	addi	s1,s1,-1
    7e86:	0004de63          	bgez	s1,7ea2 <_fwalk_sglue+0x3c>
    7e8a:	4210                	lw	a2,0(a2)
    7e8c:	fa75                	bnez	a2,7e80 <_fwalk_sglue+0x1a>
    7e8e:	50b2                	lw	ra,44(sp)
    7e90:	8522                	mv	a0,s0
    7e92:	5422                	lw	s0,40(sp)
    7e94:	5492                	lw	s1,36(sp)
    7e96:	5902                	lw	s2,32(sp)
    7e98:	49f2                	lw	s3,28(sp)
    7e9a:	4a62                	lw	s4,24(sp)
    7e9c:	4ad2                	lw	s5,20(sp)
    7e9e:	6145                	addi	sp,sp,48
    7ea0:	8082                	ret
    7ea2:	00c5d783          	lhu	a5,12(a1)
    7ea6:	00f97d63          	bgeu	s2,a5,7ec0 <_fwalk_sglue+0x5a>
    7eaa:	00e59783          	lh	a5,14(a1)
    7eae:	01378963          	beq	a5,s3,7ec0 <_fwalk_sglue+0x5a>
    7eb2:	8552                	mv	a0,s4
    7eb4:	c632                	sw	a2,12(sp)
    7eb6:	c42e                	sw	a1,8(sp)
    7eb8:	9a82                	jalr	s5
    7eba:	4632                	lw	a2,12(sp)
    7ebc:	45a2                	lw	a1,8(sp)
    7ebe:	8c49                	or	s0,s0,a0
    7ec0:	06858593          	addi	a1,a1,104
    7ec4:	b7c1                	j	7e84 <_fwalk_sglue+0x1e>

00007ec6 <_putc_r>:
    7ec6:	1101                	addi	sp,sp,-32
    7ec8:	cc22                	sw	s0,24(sp)
    7eca:	ce06                	sw	ra,28(sp)
    7ecc:	842a                	mv	s0,a0
    7ece:	c909                	beqz	a0,7ee0 <_putc_r+0x1a>
    7ed0:	511c                	lw	a5,32(a0)
    7ed2:	e799                	bnez	a5,7ee0 <_putc_r+0x1a>
    7ed4:	c632                	sw	a2,12(sp)
    7ed6:	c42e                	sw	a1,8(sp)
    7ed8:	f77ff0ef          	jal	7e4e <__sinit>
    7edc:	4632                	lw	a2,12(sp)
    7ede:	45a2                	lw	a1,8(sp)
    7ee0:	461c                	lw	a5,8(a2)
    7ee2:	0ff5f713          	zext.b	a4,a1
    7ee6:	17fd                	addi	a5,a5,-1
    7ee8:	c61c                	sw	a5,8(a2)
    7eea:	0007dd63          	bgez	a5,7f04 <_putc_r+0x3e>
    7eee:	4e14                	lw	a3,24(a2)
    7ef0:	00d7c563          	blt	a5,a3,7efa <_putc_r+0x34>
    7ef4:	ff670793          	addi	a5,a4,-10
    7ef8:	e791                	bnez	a5,7f04 <_putc_r+0x3e>
    7efa:	8522                	mv	a0,s0
    7efc:	4462                	lw	s0,24(sp)
    7efe:	40f2                	lw	ra,28(sp)
    7f00:	6105                	addi	sp,sp,32
    7f02:	a8e1                	j	7fda <__swbuf_r>
    7f04:	421c                	lw	a5,0(a2)
    7f06:	0ff5f513          	zext.b	a0,a1
    7f0a:	00178693          	addi	a3,a5,1
    7f0e:	c214                	sw	a3,0(a2)
    7f10:	00e78023          	sb	a4,0(a5)
    7f14:	40f2                	lw	ra,28(sp)
    7f16:	4462                	lw	s0,24(sp)
    7f18:	6105                	addi	sp,sp,32
    7f1a:	8082                	ret

00007f1c <__sread>:
    7f1c:	1141                	addi	sp,sp,-16
    7f1e:	c422                	sw	s0,8(sp)
    7f20:	842e                	mv	s0,a1
    7f22:	00e59583          	lh	a1,14(a1)
    7f26:	c606                	sw	ra,12(sp)
    7f28:	2c95                	jal	819c <_read_r>
    7f2a:	00054963          	bltz	a0,7f3c <__sread+0x20>
    7f2e:	487c                	lw	a5,84(s0)
    7f30:	97aa                	add	a5,a5,a0
    7f32:	c87c                	sw	a5,84(s0)
    7f34:	40b2                	lw	ra,12(sp)
    7f36:	4422                	lw	s0,8(sp)
    7f38:	0141                	addi	sp,sp,16
    7f3a:	8082                	ret
    7f3c:	00c45783          	lhu	a5,12(s0)
    7f40:	777d                	lui	a4,0xfffff
    7f42:	177d                	addi	a4,a4,-1 # ffffefff <__freertos_irq_stack_top+0xdfff6fff>
    7f44:	8ff9                	and	a5,a5,a4
    7f46:	00f41623          	sh	a5,12(s0)
    7f4a:	b7ed                	j	7f34 <__sread+0x18>

00007f4c <__swrite>:
    7f4c:	00c5d783          	lhu	a5,12(a1)
    7f50:	1101                	addi	sp,sp,-32
    7f52:	cc22                	sw	s0,24(sp)
    7f54:	ca26                	sw	s1,20(sp)
    7f56:	c84a                	sw	s2,16(sp)
    7f58:	c64e                	sw	s3,12(sp)
    7f5a:	ce06                	sw	ra,28(sp)
    7f5c:	1007f793          	andi	a5,a5,256
    7f60:	84aa                	mv	s1,a0
    7f62:	842e                	mv	s0,a1
    7f64:	8932                	mv	s2,a2
    7f66:	89b6                	mv	s3,a3
    7f68:	c791                	beqz	a5,7f74 <__swrite+0x28>
    7f6a:	00e59583          	lh	a1,14(a1)
    7f6e:	4689                	li	a3,2
    7f70:	4601                	li	a2,0
    7f72:	2af5                	jal	816e <_lseek_r>
    7f74:	00c45783          	lhu	a5,12(s0)
    7f78:	777d                	lui	a4,0xfffff
    7f7a:	177d                	addi	a4,a4,-1 # ffffefff <__freertos_irq_stack_top+0xdfff6fff>
    7f7c:	8ff9                	and	a5,a5,a4
    7f7e:	00e41583          	lh	a1,14(s0)
    7f82:	00f41623          	sh	a5,12(s0)
    7f86:	4462                	lw	s0,24(sp)
    7f88:	40f2                	lw	ra,28(sp)
    7f8a:	86ce                	mv	a3,s3
    7f8c:	864a                	mv	a2,s2
    7f8e:	49b2                	lw	s3,12(sp)
    7f90:	4942                	lw	s2,16(sp)
    7f92:	8526                	mv	a0,s1
    7f94:	44d2                	lw	s1,20(sp)
    7f96:	6105                	addi	sp,sp,32
    7f98:	ac0d                	j	81ca <_write_r>

00007f9a <__sseek>:
    7f9a:	1141                	addi	sp,sp,-16
    7f9c:	c422                	sw	s0,8(sp)
    7f9e:	842e                	mv	s0,a1
    7fa0:	00e59583          	lh	a1,14(a1)
    7fa4:	c606                	sw	ra,12(sp)
    7fa6:	22e1                	jal	816e <_lseek_r>
    7fa8:	577d                	li	a4,-1
    7faa:	00c41783          	lh	a5,12(s0)
    7fae:	00e51d63          	bne	a0,a4,7fc8 <__sseek+0x2e>
    7fb2:	80050713          	addi	a4,a0,-2048
    7fb6:	80070713          	addi	a4,a4,-2048
    7fba:	8ff9                	and	a5,a5,a4
    7fbc:	00f41623          	sh	a5,12(s0)
    7fc0:	40b2                	lw	ra,12(sp)
    7fc2:	4422                	lw	s0,8(sp)
    7fc4:	0141                	addi	sp,sp,16
    7fc6:	8082                	ret
    7fc8:	6705                	lui	a4,0x1
    7fca:	8fd9                	or	a5,a5,a4
    7fcc:	00f41623          	sh	a5,12(s0)
    7fd0:	c868                	sw	a0,84(s0)
    7fd2:	b7fd                	j	7fc0 <__sseek+0x26>

00007fd4 <__sclose>:
    7fd4:	00e59583          	lh	a1,14(a1)
    7fd8:	a2b5                	j	8144 <_close_r>

00007fda <__swbuf_r>:
    7fda:	1101                	addi	sp,sp,-32
    7fdc:	cc22                	sw	s0,24(sp)
    7fde:	ca26                	sw	s1,20(sp)
    7fe0:	c64e                	sw	s3,12(sp)
    7fe2:	ce06                	sw	ra,28(sp)
    7fe4:	c84a                	sw	s2,16(sp)
    7fe6:	84aa                	mv	s1,a0
    7fe8:	89ae                	mv	s3,a1
    7fea:	8432                	mv	s0,a2
    7fec:	c509                	beqz	a0,7ff6 <__swbuf_r+0x1c>
    7fee:	511c                	lw	a5,32(a0)
    7ff0:	e399                	bnez	a5,7ff6 <__swbuf_r+0x1c>
    7ff2:	e5dff0ef          	jal	7e4e <__sinit>
    7ff6:	4c1c                	lw	a5,24(s0)
    7ff8:	c41c                	sw	a5,8(s0)
    7ffa:	00c45783          	lhu	a5,12(s0)
    7ffe:	8ba1                	andi	a5,a5,8
    8000:	c399                	beqz	a5,8006 <__swbuf_r+0x2c>
    8002:	481c                	lw	a5,16(s0)
    8004:	ef91                	bnez	a5,8020 <__swbuf_r+0x46>
    8006:	85a2                	mv	a1,s0
    8008:	8526                	mv	a0,s1
    800a:	2085                	jal	806a <__swsetup_r>
    800c:	c911                	beqz	a0,8020 <__swbuf_r+0x46>
    800e:	597d                	li	s2,-1
    8010:	40f2                	lw	ra,28(sp)
    8012:	4462                	lw	s0,24(sp)
    8014:	44d2                	lw	s1,20(sp)
    8016:	49b2                	lw	s3,12(sp)
    8018:	854a                	mv	a0,s2
    801a:	4942                	lw	s2,16(sp)
    801c:	6105                	addi	sp,sp,32
    801e:	8082                	ret
    8020:	481c                	lw	a5,16(s0)
    8022:	4008                	lw	a0,0(s0)
    8024:	8d1d                	sub	a0,a0,a5
    8026:	485c                	lw	a5,20(s0)
    8028:	00f54663          	blt	a0,a5,8034 <__swbuf_r+0x5a>
    802c:	85a2                	mv	a1,s0
    802e:	8526                	mv	a0,s1
    8030:	24fd                	jal	831e <_fflush_r>
    8032:	fd71                	bnez	a0,800e <__swbuf_r+0x34>
    8034:	441c                	lw	a5,8(s0)
    8036:	0505                	addi	a0,a0,1
    8038:	0ff9f913          	zext.b	s2,s3
    803c:	17fd                	addi	a5,a5,-1
    803e:	c41c                	sw	a5,8(s0)
    8040:	401c                	lw	a5,0(s0)
    8042:	00178713          	addi	a4,a5,1
    8046:	c018                	sw	a4,0(s0)
    8048:	01378023          	sb	s3,0(a5)
    804c:	485c                	lw	a5,20(s0)
    804e:	00a78963          	beq	a5,a0,8060 <__swbuf_r+0x86>
    8052:	00c45783          	lhu	a5,12(s0)
    8056:	8b85                	andi	a5,a5,1
    8058:	dfc5                	beqz	a5,8010 <__swbuf_r+0x36>
    805a:	ff690793          	addi	a5,s2,-10
    805e:	fbcd                	bnez	a5,8010 <__swbuf_r+0x36>
    8060:	85a2                	mv	a1,s0
    8062:	8526                	mv	a0,s1
    8064:	2c6d                	jal	831e <_fflush_r>
    8066:	d54d                	beqz	a0,8010 <__swbuf_r+0x36>
    8068:	b75d                	j	800e <__swbuf_r+0x34>

0000806a <__swsetup_r>:
    806a:	1141                	addi	sp,sp,-16
    806c:	c226                	sw	s1,4(sp)
    806e:	84aa                	mv	s1,a0
    8070:	8101a503          	lw	a0,-2032(gp) # 20000068 <_impure_ptr>
    8074:	c422                	sw	s0,8(sp)
    8076:	c606                	sw	ra,12(sp)
    8078:	842e                	mv	s0,a1
    807a:	c509                	beqz	a0,8084 <__swsetup_r+0x1a>
    807c:	511c                	lw	a5,32(a0)
    807e:	e399                	bnez	a5,8084 <__swsetup_r+0x1a>
    8080:	dcfff0ef          	jal	7e4e <__sinit>
    8084:	00c41783          	lh	a5,12(s0)
    8088:	0087f713          	andi	a4,a5,8
    808c:	e731                	bnez	a4,80d8 <__swsetup_r+0x6e>
    808e:	0107f713          	andi	a4,a5,16
    8092:	eb09                	bnez	a4,80a4 <__swsetup_r+0x3a>
    8094:	4725                	li	a4,9
    8096:	c098                	sw	a4,0(s1)
    8098:	0407e793          	ori	a5,a5,64
    809c:	00f41623          	sh	a5,12(s0)
    80a0:	557d                	li	a0,-1
    80a2:	a885                	j	8112 <__swsetup_r+0xa8>
    80a4:	0047f713          	andi	a4,a5,4
    80a8:	c705                	beqz	a4,80d0 <__swsetup_r+0x66>
    80aa:	584c                	lw	a1,52(s0)
    80ac:	c991                	beqz	a1,80c0 <__swsetup_r+0x56>
    80ae:	04440793          	addi	a5,s0,68
    80b2:	00f58563          	beq	a1,a5,80bc <__swsetup_r+0x52>
    80b6:	8526                	mv	a0,s1
    80b8:	dc0ff0ef          	jal	7678 <_free_r>
    80bc:	02042a23          	sw	zero,52(s0)
    80c0:	00c45783          	lhu	a5,12(s0)
    80c4:	4818                	lw	a4,16(s0)
    80c6:	00042223          	sw	zero,4(s0)
    80ca:	fdb7f793          	andi	a5,a5,-37
    80ce:	c018                	sw	a4,0(s0)
    80d0:	0087e793          	ori	a5,a5,8
    80d4:	00f41623          	sh	a5,12(s0)
    80d8:	481c                	lw	a5,16(s0)
    80da:	eb99                	bnez	a5,80f0 <__swsetup_r+0x86>
    80dc:	445c                	lw	a5,12(s0)
    80de:	20000713          	li	a4,512
    80e2:	2807f793          	andi	a5,a5,640
    80e6:	00e78563          	beq	a5,a4,80f0 <__swsetup_r+0x86>
    80ea:	85a2                	mv	a1,s0
    80ec:	8526                	mv	a0,s1
    80ee:	24c1                	jal	83ae <__smakebuf_r>
    80f0:	00c41783          	lh	a5,12(s0)
    80f4:	0017f713          	andi	a4,a5,1
    80f8:	c315                	beqz	a4,811c <__swsetup_r+0xb2>
    80fa:	4858                	lw	a4,20(s0)
    80fc:	00042423          	sw	zero,8(s0)
    8100:	40e00733          	neg	a4,a4
    8104:	cc18                	sw	a4,24(s0)
    8106:	4818                	lw	a4,16(s0)
    8108:	4501                	li	a0,0
    810a:	e701                	bnez	a4,8112 <__swsetup_r+0xa8>
    810c:	0807f713          	andi	a4,a5,128
    8110:	f741                	bnez	a4,8098 <__swsetup_r+0x2e>
    8112:	40b2                	lw	ra,12(sp)
    8114:	4422                	lw	s0,8(sp)
    8116:	4492                	lw	s1,4(sp)
    8118:	0141                	addi	sp,sp,16
    811a:	8082                	ret
    811c:	0027f713          	andi	a4,a5,2
    8120:	4681                	li	a3,0
    8122:	e311                	bnez	a4,8126 <__swsetup_r+0xbc>
    8124:	4854                	lw	a3,20(s0)
    8126:	c414                	sw	a3,8(s0)
    8128:	bff9                	j	8106 <__swsetup_r+0x9c>

0000812a <memchr>:
    812a:	0ff5f593          	zext.b	a1,a1
    812e:	962a                	add	a2,a2,a0
    8130:	00c51463          	bne	a0,a2,8138 <memchr+0xe>
    8134:	4501                	li	a0,0
    8136:	8082                	ret
    8138:	00054783          	lbu	a5,0(a0)
    813c:	feb78de3          	beq	a5,a1,8136 <memchr+0xc>
    8140:	0505                	addi	a0,a0,1
    8142:	b7fd                	j	8130 <memchr+0x6>

00008144 <_close_r>:
    8144:	1141                	addi	sp,sp,-16
    8146:	c422                	sw	s0,8(sp)
    8148:	c226                	sw	s1,4(sp)
    814a:	84aa                	mv	s1,a0
    814c:	852e                	mv	a0,a1
    814e:	c606                	sw	ra,12(sp)
    8150:	8401a623          	sw	zero,-1972(gp) # 200000a4 <errno>
    8154:	2e0d                	jal	8486 <_close>
    8156:	57fd                	li	a5,-1
    8158:	00f51663          	bne	a0,a5,8164 <_close_r+0x20>
    815c:	84c1a783          	lw	a5,-1972(gp) # 200000a4 <errno>
    8160:	c391                	beqz	a5,8164 <_close_r+0x20>
    8162:	c09c                	sw	a5,0(s1)
    8164:	40b2                	lw	ra,12(sp)
    8166:	4422                	lw	s0,8(sp)
    8168:	4492                	lw	s1,4(sp)
    816a:	0141                	addi	sp,sp,16
    816c:	8082                	ret

0000816e <_lseek_r>:
    816e:	1141                	addi	sp,sp,-16
    8170:	c422                	sw	s0,8(sp)
    8172:	c226                	sw	s1,4(sp)
    8174:	84aa                	mv	s1,a0
    8176:	852e                	mv	a0,a1
    8178:	85b2                	mv	a1,a2
    817a:	8636                	mv	a2,a3
    817c:	c606                	sw	ra,12(sp)
    817e:	8401a623          	sw	zero,-1972(gp) # 200000a4 <errno>
    8182:	2625                	jal	84aa <_lseek>
    8184:	57fd                	li	a5,-1
    8186:	00f51663          	bne	a0,a5,8192 <_lseek_r+0x24>
    818a:	84c1a783          	lw	a5,-1972(gp) # 200000a4 <errno>
    818e:	c391                	beqz	a5,8192 <_lseek_r+0x24>
    8190:	c09c                	sw	a5,0(s1)
    8192:	40b2                	lw	ra,12(sp)
    8194:	4422                	lw	s0,8(sp)
    8196:	4492                	lw	s1,4(sp)
    8198:	0141                	addi	sp,sp,16
    819a:	8082                	ret

0000819c <_read_r>:
    819c:	1141                	addi	sp,sp,-16
    819e:	c422                	sw	s0,8(sp)
    81a0:	c226                	sw	s1,4(sp)
    81a2:	84aa                	mv	s1,a0
    81a4:	852e                	mv	a0,a1
    81a6:	85b2                	mv	a1,a2
    81a8:	8636                	mv	a2,a3
    81aa:	c606                	sw	ra,12(sp)
    81ac:	8401a623          	sw	zero,-1972(gp) # 200000a4 <errno>
    81b0:	2619                	jal	84b6 <_read>
    81b2:	57fd                	li	a5,-1
    81b4:	00f51663          	bne	a0,a5,81c0 <_read_r+0x24>
    81b8:	84c1a783          	lw	a5,-1972(gp) # 200000a4 <errno>
    81bc:	c391                	beqz	a5,81c0 <_read_r+0x24>
    81be:	c09c                	sw	a5,0(s1)
    81c0:	40b2                	lw	ra,12(sp)
    81c2:	4422                	lw	s0,8(sp)
    81c4:	4492                	lw	s1,4(sp)
    81c6:	0141                	addi	sp,sp,16
    81c8:	8082                	ret

000081ca <_write_r>:
    81ca:	1141                	addi	sp,sp,-16
    81cc:	c422                	sw	s0,8(sp)
    81ce:	c226                	sw	s1,4(sp)
    81d0:	84aa                	mv	s1,a0
    81d2:	852e                	mv	a0,a1
    81d4:	85b2                	mv	a1,a2
    81d6:	8636                	mv	a2,a3
    81d8:	c606                	sw	ra,12(sp)
    81da:	8401a623          	sw	zero,-1972(gp) # 200000a4 <errno>
    81de:	2619                	jal	84e4 <_write>
    81e0:	57fd                	li	a5,-1
    81e2:	00f51663          	bne	a0,a5,81ee <_write_r+0x24>
    81e6:	84c1a783          	lw	a5,-1972(gp) # 200000a4 <errno>
    81ea:	c391                	beqz	a5,81ee <_write_r+0x24>
    81ec:	c09c                	sw	a5,0(s1)
    81ee:	40b2                	lw	ra,12(sp)
    81f0:	4422                	lw	s0,8(sp)
    81f2:	4492                	lw	s1,4(sp)
    81f4:	0141                	addi	sp,sp,16
    81f6:	8082                	ret

000081f8 <__sflush_r>:
    81f8:	00c59783          	lh	a5,12(a1)
    81fc:	1101                	addi	sp,sp,-32
    81fe:	cc22                	sw	s0,24(sp)
    8200:	ca26                	sw	s1,20(sp)
    8202:	ce06                	sw	ra,28(sp)
    8204:	c84a                	sw	s2,16(sp)
    8206:	0087f713          	andi	a4,a5,8
    820a:	84aa                	mv	s1,a0
    820c:	842e                	mv	s0,a1
    820e:	e369                	bnez	a4,82d0 <__sflush_r+0xd8>
    8210:	41d8                	lw	a4,4(a1)
    8212:	00e04563          	bgtz	a4,821c <__sflush_r+0x24>
    8216:	41b8                	lw	a4,64(a1)
    8218:	0ae05a63          	blez	a4,82cc <__sflush_r+0xd4>
    821c:	5458                	lw	a4,44(s0)
    821e:	c75d                	beqz	a4,82cc <__sflush_r+0xd4>
    8220:	0004a903          	lw	s2,0(s1)
    8224:	01379693          	slli	a3,a5,0x13
    8228:	0004a023          	sw	zero,0(s1)
    822c:	0606de63          	bgez	a3,82a8 <__sflush_r+0xb0>
    8230:	4870                	lw	a2,84(s0)
    8232:	00c45783          	lhu	a5,12(s0)
    8236:	8b91                	andi	a5,a5,4
    8238:	c799                	beqz	a5,8246 <__sflush_r+0x4e>
    823a:	405c                	lw	a5,4(s0)
    823c:	8e1d                	sub	a2,a2,a5
    823e:	585c                	lw	a5,52(s0)
    8240:	c399                	beqz	a5,8246 <__sflush_r+0x4e>
    8242:	403c                	lw	a5,64(s0)
    8244:	8e1d                	sub	a2,a2,a5
    8246:	545c                	lw	a5,44(s0)
    8248:	500c                	lw	a1,32(s0)
    824a:	4681                	li	a3,0
    824c:	8526                	mv	a0,s1
    824e:	9782                	jalr	a5
    8250:	577d                	li	a4,-1
    8252:	00c41783          	lh	a5,12(s0)
    8256:	00e51d63          	bne	a0,a4,8270 <__sflush_r+0x78>
    825a:	4094                	lw	a3,0(s1)
    825c:	4775                	li	a4,29
    825e:	0ad76163          	bltu	a4,a3,8300 <__sflush_r+0x108>
    8262:	20400737          	lui	a4,0x20400
    8266:	0705                	addi	a4,a4,1 # 20400001 <__freertos_irq_stack_top+0x3f8001>
    8268:	00d75733          	srl	a4,a4,a3
    826c:	8b05                	andi	a4,a4,1
    826e:	cb49                	beqz	a4,8300 <__sflush_r+0x108>
    8270:	4818                	lw	a4,16(s0)
    8272:	00042223          	sw	zero,4(s0)
    8276:	c018                	sw	a4,0(s0)
    8278:	01379713          	slli	a4,a5,0x13
    827c:	00075863          	bgez	a4,828c <__sflush_r+0x94>
    8280:	57fd                	li	a5,-1
    8282:	00f51463          	bne	a0,a5,828a <__sflush_r+0x92>
    8286:	409c                	lw	a5,0(s1)
    8288:	e391                	bnez	a5,828c <__sflush_r+0x94>
    828a:	c868                	sw	a0,84(s0)
    828c:	584c                	lw	a1,52(s0)
    828e:	0124a023          	sw	s2,0(s1)
    8292:	cd8d                	beqz	a1,82cc <__sflush_r+0xd4>
    8294:	04440793          	addi	a5,s0,68
    8298:	00f58563          	beq	a1,a5,82a2 <__sflush_r+0xaa>
    829c:	8526                	mv	a0,s1
    829e:	bdaff0ef          	jal	7678 <_free_r>
    82a2:	02042a23          	sw	zero,52(s0)
    82a6:	a01d                	j	82cc <__sflush_r+0xd4>
    82a8:	500c                	lw	a1,32(s0)
    82aa:	4601                	li	a2,0
    82ac:	4685                	li	a3,1
    82ae:	8526                	mv	a0,s1
    82b0:	9702                	jalr	a4
    82b2:	57fd                	li	a5,-1
    82b4:	862a                	mv	a2,a0
    82b6:	f6f51ee3          	bne	a0,a5,8232 <__sflush_r+0x3a>
    82ba:	409c                	lw	a5,0(s1)
    82bc:	dbbd                	beqz	a5,8232 <__sflush_r+0x3a>
    82be:	fe378713          	addi	a4,a5,-29
    82c2:	c319                	beqz	a4,82c8 <__sflush_r+0xd0>
    82c4:	17a9                	addi	a5,a5,-22
    82c6:	eb9d                	bnez	a5,82fc <__sflush_r+0x104>
    82c8:	0124a023          	sw	s2,0(s1)
    82cc:	4501                	li	a0,0
    82ce:	a835                	j	830a <__sflush_r+0x112>
    82d0:	4990                	lw	a2,16(a1)
    82d2:	de6d                	beqz	a2,82cc <__sflush_r+0xd4>
    82d4:	4194                	lw	a3,0(a1)
    82d6:	8b8d                	andi	a5,a5,3
    82d8:	c190                	sw	a2,0(a1)
    82da:	40c68933          	sub	s2,a3,a2
    82de:	4701                	li	a4,0
    82e0:	e391                	bnez	a5,82e4 <__sflush_r+0xec>
    82e2:	49d8                	lw	a4,20(a1)
    82e4:	c418                	sw	a4,8(s0)
    82e6:	ff2053e3          	blez	s2,82cc <__sflush_r+0xd4>
    82ea:	541c                	lw	a5,40(s0)
    82ec:	500c                	lw	a1,32(s0)
    82ee:	86ca                	mv	a3,s2
    82f0:	8526                	mv	a0,s1
    82f2:	c632                	sw	a2,12(sp)
    82f4:	9782                	jalr	a5
    82f6:	4632                	lw	a2,12(sp)
    82f8:	00a04f63          	bgtz	a0,8316 <__sflush_r+0x11e>
    82fc:	00c45783          	lhu	a5,12(s0)
    8300:	0407e793          	ori	a5,a5,64
    8304:	00f41623          	sh	a5,12(s0)
    8308:	557d                	li	a0,-1
    830a:	40f2                	lw	ra,28(sp)
    830c:	4462                	lw	s0,24(sp)
    830e:	44d2                	lw	s1,20(sp)
    8310:	4942                	lw	s2,16(sp)
    8312:	6105                	addi	sp,sp,32
    8314:	8082                	ret
    8316:	962a                	add	a2,a2,a0
    8318:	40a90933          	sub	s2,s2,a0
    831c:	b7e9                	j	82e6 <__sflush_r+0xee>

0000831e <_fflush_r>:
    831e:	499c                	lw	a5,16(a1)
    8320:	cb95                	beqz	a5,8354 <_fflush_r+0x36>
    8322:	1101                	addi	sp,sp,-32
    8324:	cc22                	sw	s0,24(sp)
    8326:	ce06                	sw	ra,28(sp)
    8328:	842a                	mv	s0,a0
    832a:	c519                	beqz	a0,8338 <_fflush_r+0x1a>
    832c:	511c                	lw	a5,32(a0)
    832e:	e789                	bnez	a5,8338 <_fflush_r+0x1a>
    8330:	c62e                	sw	a1,12(sp)
    8332:	b1dff0ef          	jal	7e4e <__sinit>
    8336:	45b2                	lw	a1,12(sp)
    8338:	00c59783          	lh	a5,12(a1)
    833c:	c799                	beqz	a5,834a <_fflush_r+0x2c>
    833e:	8522                	mv	a0,s0
    8340:	4462                	lw	s0,24(sp)
    8342:	40f2                	lw	ra,28(sp)
    8344:	6105                	addi	sp,sp,32
    8346:	eb3ff06f          	j	81f8 <__sflush_r>
    834a:	40f2                	lw	ra,28(sp)
    834c:	4462                	lw	s0,24(sp)
    834e:	4501                	li	a0,0
    8350:	6105                	addi	sp,sp,32
    8352:	8082                	ret
    8354:	4501                	li	a0,0
    8356:	8082                	ret

00008358 <__swhatbuf_r>:
    8358:	7119                	addi	sp,sp,-128
    835a:	dca2                	sw	s0,120(sp)
    835c:	842e                	mv	s0,a1
    835e:	00e59583          	lh	a1,14(a1)
    8362:	daa6                	sw	s1,116(sp)
    8364:	de86                	sw	ra,124(sp)
    8366:	84b2                	mv	s1,a2
    8368:	0205d163          	bgez	a1,838a <__swhatbuf_r+0x32>
    836c:	00c45783          	lhu	a5,12(s0)
    8370:	0807f793          	andi	a5,a5,128
    8374:	eb8d                	bnez	a5,83a6 <__swhatbuf_r+0x4e>
    8376:	40000713          	li	a4,1024
    837a:	50f6                	lw	ra,124(sp)
    837c:	5466                	lw	s0,120(sp)
    837e:	c29c                	sw	a5,0(a3)
    8380:	c098                	sw	a4,0(s1)
    8382:	4501                	li	a0,0
    8384:	54d6                	lw	s1,116(sp)
    8386:	6109                	addi	sp,sp,128
    8388:	8082                	ret
    838a:	0830                	addi	a2,sp,24
    838c:	c636                	sw	a3,12(sp)
    838e:	204d                	jal	8430 <_fstat_r>
    8390:	46b2                	lw	a3,12(sp)
    8392:	fc054de3          	bltz	a0,836c <__swhatbuf_r+0x14>
    8396:	47f2                	lw	a5,28(sp)
    8398:	673d                	lui	a4,0xf
    839a:	8ff9                	and	a5,a5,a4
    839c:	7779                	lui	a4,0xffffe
    839e:	97ba                	add	a5,a5,a4
    83a0:	0017b793          	seqz	a5,a5
    83a4:	bfc9                	j	8376 <__swhatbuf_r+0x1e>
    83a6:	4781                	li	a5,0
    83a8:	04000713          	li	a4,64
    83ac:	b7f9                	j	837a <__swhatbuf_r+0x22>

000083ae <__smakebuf_r>:
    83ae:	00c5d703          	lhu	a4,12(a1)
    83b2:	7179                	addi	sp,sp,-48
    83b4:	d422                	sw	s0,40(sp)
    83b6:	d606                	sw	ra,44(sp)
    83b8:	d226                	sw	s1,36(sp)
    83ba:	8b09                	andi	a4,a4,2
    83bc:	842e                	mv	s0,a1
    83be:	cf01                	beqz	a4,83d6 <__smakebuf_r+0x28>
    83c0:	04740793          	addi	a5,s0,71
    83c4:	c01c                	sw	a5,0(s0)
    83c6:	c81c                	sw	a5,16(s0)
    83c8:	4785                	li	a5,1
    83ca:	c85c                	sw	a5,20(s0)
    83cc:	50b2                	lw	ra,44(sp)
    83ce:	5422                	lw	s0,40(sp)
    83d0:	5492                	lw	s1,36(sp)
    83d2:	6145                	addi	sp,sp,48
    83d4:	8082                	ret
    83d6:	0874                	addi	a3,sp,28
    83d8:	0830                	addi	a2,sp,24
    83da:	84aa                	mv	s1,a0
    83dc:	f7dff0ef          	jal	8358 <__swhatbuf_r>
    83e0:	45e2                	lw	a1,24(sp)
    83e2:	8526                	mv	a0,s1
    83e4:	c62e                	sw	a1,12(sp)
    83e6:	90cff0ef          	jal	74f2 <_malloc_r>
    83ea:	00c41783          	lh	a5,12(s0)
    83ee:	45b2                	lw	a1,12(sp)
    83f0:	e911                	bnez	a0,8404 <__smakebuf_r+0x56>
    83f2:	2007f713          	andi	a4,a5,512
    83f6:	fb79                	bnez	a4,83cc <__smakebuf_r+0x1e>
    83f8:	9bf1                	andi	a5,a5,-4
    83fa:	0027e793          	ori	a5,a5,2
    83fe:	00f41623          	sh	a5,12(s0)
    8402:	bf7d                	j	83c0 <__smakebuf_r+0x12>
    8404:	0807e793          	ori	a5,a5,128
    8408:	00f41623          	sh	a5,12(s0)
    840c:	47f2                	lw	a5,28(sp)
    840e:	c008                	sw	a0,0(s0)
    8410:	c808                	sw	a0,16(s0)
    8412:	c84c                	sw	a1,20(s0)
    8414:	dfc5                	beqz	a5,83cc <__smakebuf_r+0x1e>
    8416:	00e41583          	lh	a1,14(s0)
    841a:	8526                	mv	a0,s1
    841c:	2081                	jal	845c <_isatty_r>
    841e:	d55d                	beqz	a0,83cc <__smakebuf_r+0x1e>
    8420:	00c45783          	lhu	a5,12(s0)
    8424:	9bf1                	andi	a5,a5,-4
    8426:	0017e793          	ori	a5,a5,1
    842a:	00f41623          	sh	a5,12(s0)
    842e:	bf79                	j	83cc <__smakebuf_r+0x1e>

00008430 <_fstat_r>:
    8430:	1141                	addi	sp,sp,-16
    8432:	c422                	sw	s0,8(sp)
    8434:	c226                	sw	s1,4(sp)
    8436:	84aa                	mv	s1,a0
    8438:	852e                	mv	a0,a1
    843a:	85b2                	mv	a1,a2
    843c:	c606                	sw	ra,12(sp)
    843e:	8401a623          	sw	zero,-1972(gp) # 200000a4 <errno>
    8442:	2881                	jal	8492 <_fstat>
    8444:	57fd                	li	a5,-1
    8446:	00f51663          	bne	a0,a5,8452 <_fstat_r+0x22>
    844a:	84c1a783          	lw	a5,-1972(gp) # 200000a4 <errno>
    844e:	c391                	beqz	a5,8452 <_fstat_r+0x22>
    8450:	c09c                	sw	a5,0(s1)
    8452:	40b2                	lw	ra,12(sp)
    8454:	4422                	lw	s0,8(sp)
    8456:	4492                	lw	s1,4(sp)
    8458:	0141                	addi	sp,sp,16
    845a:	8082                	ret

0000845c <_isatty_r>:
    845c:	1141                	addi	sp,sp,-16
    845e:	c422                	sw	s0,8(sp)
    8460:	c226                	sw	s1,4(sp)
    8462:	84aa                	mv	s1,a0
    8464:	852e                	mv	a0,a1
    8466:	c606                	sw	ra,12(sp)
    8468:	8401a623          	sw	zero,-1972(gp) # 200000a4 <errno>
    846c:	280d                	jal	849e <_isatty>
    846e:	57fd                	li	a5,-1
    8470:	00f51663          	bne	a0,a5,847c <_isatty_r+0x20>
    8474:	84c1a783          	lw	a5,-1972(gp) # 200000a4 <errno>
    8478:	c391                	beqz	a5,847c <_isatty_r+0x20>
    847a:	c09c                	sw	a5,0(s1)
    847c:	40b2                	lw	ra,12(sp)
    847e:	4422                	lw	s0,8(sp)
    8480:	4492                	lw	s1,4(sp)
    8482:	0141                	addi	sp,sp,16
    8484:	8082                	ret

00008486 <_close>:
    8486:	05800713          	li	a4,88
    848a:	84e1a623          	sw	a4,-1972(gp) # 200000a4 <errno>
    848e:	557d                	li	a0,-1
    8490:	8082                	ret

00008492 <_fstat>:
    8492:	05800713          	li	a4,88
    8496:	84e1a623          	sw	a4,-1972(gp) # 200000a4 <errno>
    849a:	557d                	li	a0,-1
    849c:	8082                	ret

0000849e <_isatty>:
    849e:	05800713          	li	a4,88
    84a2:	84e1a623          	sw	a4,-1972(gp) # 200000a4 <errno>
    84a6:	4501                	li	a0,0
    84a8:	8082                	ret

000084aa <_lseek>:
    84aa:	05800713          	li	a4,88
    84ae:	84e1a623          	sw	a4,-1972(gp) # 200000a4 <errno>
    84b2:	557d                	li	a0,-1
    84b4:	8082                	ret

000084b6 <_read>:
    84b6:	05800713          	li	a4,88
    84ba:	84e1a623          	sw	a4,-1972(gp) # 200000a4 <errno>
    84be:	557d                	li	a0,-1
    84c0:	8082                	ret

000084c2 <_sbrk>:
    84c2:	8501a783          	lw	a5,-1968(gp) # 200000a8 <heap_end.0>
    84c6:	c791                	beqz	a5,84d2 <_sbrk+0x10>
    84c8:	953e                	add	a0,a0,a5
    84ca:	84a1a823          	sw	a0,-1968(gp) # 200000a8 <heap_end.0>
    84ce:	853e                	mv	a0,a5
    84d0:	8082                	ret
    84d2:	200037b7          	lui	a5,0x20003
    84d6:	13878793          	addi	a5,a5,312 # 20003138 <_ebss>
    84da:	953e                	add	a0,a0,a5
    84dc:	84a1a823          	sw	a0,-1968(gp) # 200000a8 <heap_end.0>
    84e0:	853e                	mv	a0,a5
    84e2:	8082                	ret

000084e4 <_write>:
    84e4:	05800713          	li	a4,88
    84e8:	84e1a623          	sw	a4,-1972(gp) # 200000a4 <errno>
    84ec:	557d                	li	a0,-1
    84ee:	8082                	ret

000084f0 <AHBPrescTable>:
	...
    84f8:	0201 0403 0706 0908 4449 454c 0000 0000     ........IDLE....
    8508:	4f42 544f 4f4c 504f 4420 5445 4345 4554     BOOTLOOP DETECTE
    8518:	2044 203e 2035 80e2 2094 5953 5453 4d45     D > 5 ... SYSTEM
    8528:	4620 4f52 455a 004e 003f 0000 6e28 6c75      FROZEN.?...(nul
    8538:	296c 0000 7264 0076 255b 5d73 0020 0000     l)..drv.[%s] ...
    8548:	7246 6565 5452 534f 7320 6174 6b63 6f20     FreeRTOS stack o
    8558:	6576 6672 6f6c 0077 2d23 2b30 0020 0000     verflow.#-0+ ...
    8568:	6c68 004c 6665 4567 4746 0000 3130 3332     hlL.efgEFG..0123
    8578:	3534 3736 3938 4241 4443 4645 0000 0000     456789ABCDEF....
    8588:	3130 3332 3534 3736 3938 6261 6463 6665     0123456789abcdef
    8598:	0000 0000                                   ....

0000859c <__clz_tab>:
    859c:	0100 0202 0303 0303 0404 0404 0404 0404     ................
    85ac:	0505 0505 0505 0505 0505 0505 0505 0505     ................
    85bc:	0606 0606 0606 0606 0606 0606 0606 0606     ................
    85cc:	0606 0606 0606 0606 0606 0606 0606 0606     ................
    85dc:	0707 0707 0707 0707 0707 0707 0707 0707     ................
    85ec:	0707 0707 0707 0707 0707 0707 0707 0707     ................
    85fc:	0707 0707 0707 0707 0707 0707 0707 0707     ................
    860c:	0707 0707 0707 0707 0707 0707 0707 0707     ................
    861c:	0808 0808 0808 0808 0808 0808 0808 0808     ................
    862c:	0808 0808 0808 0808 0808 0808 0808 0808     ................
    863c:	0808 0808 0808 0808 0808 0808 0808 0808     ................
    864c:	0808 0808 0808 0808 0808 0808 0808 0808     ................
    865c:	0808 0808 0808 0808 0808 0808 0808 0808     ................
    866c:	0808 0808 0808 0808 0808 0808 0808 0808     ................
    867c:	0808 0808 0808 0808 0808 0808 0808 0808     ................
    868c:	0808 0808 0808 0808 0808 0808 0808 0808     ................
    869c:	7b50 0000 7b66 0000 7b2e 0000 7b2e 0000     P{..f{...{...{..
    86ac:	7b2e 0000 7b2e 0000 7b66 0000 7b2e 0000     .{...{..f{...{..
    86bc:	7b2e 0000 7b2e 0000 7b2e 0000 7cac 0000     .{...{...{...|..
    86cc:	7ba2 0000 7c50 0000 7b2e 0000 7b2e 0000     .{..P|...{...{..
    86dc:	7cdc 0000 7b2e 0000 7ba2 0000 7b2e 0000     .|...{...{...{..
    86ec:	7b2e 0000 7c58 0000                         .{..X|..

Disassembly of section .entry:

000086f4 <ch307_node_main>:
#include "freeRTOS.hpp"

extern "C" __attribute__((used, section(".entry"))) int ch307_node_main(void)
{
    86f4:	1141                	addi	sp,sp,-16
    86f6:	c606                	sw	ra,12(sp)
    task_rtos_main();
    86f8:	d39f70ef          	jal	430 <_Z14task_rtos_mainv>
    return 0;
    86fc:	4501                	li	a0,0
    86fe:	40b2                	lw	ra,12(sp)
    8700:	0141                	addi	sp,sp,16
    8702:	8082                	ret
